
/Users/ruslanpavluchenko/Documents/PlatformIO/Projects/iDryer/.pio/build/EEP/firmware.elf:     file format elf32-avr

Sections:
Idx Name          Size      VMA       LMA       File off  Algn
  0 .data         0000015a  00800100  00007f3a  00007fee  2**0
                  CONTENTS, ALLOC, LOAD, DATA
  1 .text         00007f3a  00000000  00000000  000000b4  2**1
                  CONTENTS, ALLOC, LOAD, READONLY, CODE
  2 .bss          0000046f  0080025a  0080025a  00008148  2**0
                  ALLOC
  3 .eeprom       000001c4  00810000  00810000  00008148  2**0
                  CONTENTS, ALLOC, LOAD, DATA
  4 .comment      00000011  00000000  00000000  0000830c  2**0
                  CONTENTS, READONLY
  5 .note.gnu.avr.deviceinfo 00000040  00000000  00000000  00008320  2**2
                  CONTENTS, READONLY, OCTETS
  6 .debug_aranges 00000220  00000000  00000000  00008360  2**3
                  CONTENTS, READONLY, DEBUGGING, OCTETS
  7 .debug_info   00001182  00000000  00000000  00008580  2**0
                  CONTENTS, READONLY, DEBUGGING, OCTETS
  8 .debug_abbrev 000006f6  00000000  00000000  00009702  2**0
                  CONTENTS, READONLY, DEBUGGING, OCTETS
  9 .debug_line   00000b04  00000000  00000000  00009df8  2**0
                  CONTENTS, READONLY, DEBUGGING, OCTETS
 10 .debug_str    00000208  00000000  00000000  0000a8fc  2**0
                  CONTENTS, READONLY, DEBUGGING, OCTETS

Disassembly of section .text:

00000000 <__vectors>:
       0:	0c 94 34 04 	jmp	0x868	; 0x868 <__dtors_end>
       4:	0c 94 80 2a 	jmp	0x5500	; 0x5500 <__vector_1>
       8:	0c 94 59 2a 	jmp	0x54b2	; 0x54b2 <__vector_2>
       c:	0c 94 5c 04 	jmp	0x8b8	; 0x8b8 <__bad_interrupt>
      10:	0c 94 46 2b 	jmp	0x568c	; 0x568c <__vector_4>
      14:	0c 94 5c 04 	jmp	0x8b8	; 0x8b8 <__bad_interrupt>
      18:	0c 94 ff 2a 	jmp	0x55fe	; 0x55fe <__vector_6>
      1c:	0c 94 5c 04 	jmp	0x8b8	; 0x8b8 <__bad_interrupt>
      20:	0c 94 5c 04 	jmp	0x8b8	; 0x8b8 <__bad_interrupt>
      24:	0c 94 5c 04 	jmp	0x8b8	; 0x8b8 <__bad_interrupt>
      28:	0c 94 5c 04 	jmp	0x8b8	; 0x8b8 <__bad_interrupt>
      2c:	0c 94 94 2b 	jmp	0x5728	; 0x5728 <__vector_11>
      30:	0c 94 5c 04 	jmp	0x8b8	; 0x8b8 <__bad_interrupt>
      34:	0c 94 5c 04 	jmp	0x8b8	; 0x8b8 <__bad_interrupt>
      38:	0c 94 5c 04 	jmp	0x8b8	; 0x8b8 <__bad_interrupt>
      3c:	0c 94 5c 04 	jmp	0x8b8	; 0x8b8 <__bad_interrupt>
      40:	0c 94 0f 2a 	jmp	0x541e	; 0x541e <__vector_16>
      44:	0c 94 5c 04 	jmp	0x8b8	; 0x8b8 <__bad_interrupt>
      48:	0c 94 cd 2a 	jmp	0x559a	; 0x559a <__vector_18>
      4c:	0c 94 a7 2a 	jmp	0x554e	; 0x554e <__vector_19>
      50:	0c 94 5c 04 	jmp	0x8b8	; 0x8b8 <__bad_interrupt>
      54:	0c 94 5c 04 	jmp	0x8b8	; 0x8b8 <__bad_interrupt>
      58:	0c 94 5c 04 	jmp	0x8b8	; 0x8b8 <__bad_interrupt>
      5c:	0c 94 5c 04 	jmp	0x8b8	; 0x8b8 <__bad_interrupt>
      60:	0c 94 e4 28 	jmp	0x51c8	; 0x51c8 <__vector_24>
      64:	0c 94 5c 04 	jmp	0x8b8	; 0x8b8 <__bad_interrupt>

00000068 <_ZL3s18>:
      68:	d0 93 d0 a0 00                                      .....

0000006d <_ZL3s17>:
      6d:	d0 92 d0 95 d0 a1 00                                .......

00000074 <_ZL3s16>:
      74:	d0 a3 d0 a1 d0 a2 d0 90 d0 9d d0 9e d0 92 d0 98     ................
	...

00000085 <_ZL3s15>:
      85:	d0 a3 d0 a1 d0 a2 d0 90 d0 9d d0 9e d0 92 d0 9a     ................
      95:	d0 90 00                                            ...

00000098 <_ZL3s14>:
      98:	d0 9a d0 90 d0 a2 d0 a3 d0 a8 d0 9a d0 90 00        ...............

000000a7 <_ZL3s13>:
      a7:	d0 a3 d0 94 d0 90 d0 9b d0 98 00                    ...........

000000b2 <_ZL3s12>:
      b2:	d0 9f d0 95 d0 a0 d0 95 d0 93 d0 a0 d0 a3 d0 97     ................
      c2:	d0 98 00                                            ...

000000c5 <_ZL3s11>:
      c5:	d0 a2 d0 95 d0 a0 d0 9c d0 98 d0 a1 d0 a2 d0 9e     ................
      d5:	d0 a0 00                                            ...

000000d8 <_ZL3s10>:
      d8:	d0 9f d0 a0 d0 9e d0 92 d0 95 d0 a0 d0 ac 00        ...............

000000e7 <_ZL2s9>:
      e7:	d0 9e d0 a8 d0 98 d0 91 d0 9a d0 90 00              .............

000000f4 <_ZL2s8>:
      f4:	d0 92 d0 9b d0 90 d0 96 d0 9d d0 9e d0 a1 d0 a2     ................
     104:	d0 ac 00                                            ...

00000107 <_ZL2s7>:
     107:	d0 9d d0 90 d0 93 d0 a0 d0 95 d0 92 d0 90 d0 a2     ................
     117:	d0 95 d0 9b d0 ac 00                                .......

0000011e <_ZL2s6>:
     11e:	d0 92 d0 9e d0 97 d0 94 d0 a3 d0 a5 00              .............

0000012b <_ZL2s5>:
     12b:	d0 a1 d0 9e d0 a5 d0 a0 d0 90 d0 9d d0 95 d0 9d     ................
     13b:	d0 9e 00                                            ...

0000013e <_ZL2s4>:
     13e:	d0 9e d0 a5 d0 9b d0 90 d0 96 d0 94 d0 95 d0 9d     ................
     14e:	d0 98 d0 95 00                                      .....

00000153 <_ZL2s3>:
     153:	30 2e 35 2e 30 00                                   0.5.0.

00000159 <_ZL2s2>:
     159:	d0 92 d0 95 d0 a0 d0 a1 d0 98 d0 af 00              .............

00000166 <_ZL2s1>:
     166:	d0 90 d0 99 d0 94 d0 a0 d0 90 d0 99 00              .............

00000173 <_ZL2s0>:
     173:	d0 9f d0 a0 d0 9e d0 a8 d0 98 d0 92 d0 9a d0 90     ................
	...

00000184 <_ZL11temptable_6>:
     184:	10 00 5e 01 c0 01 fa 00 f0 01 f5 00 30 02 f0 00     ..^.........0...
     194:	70 02 eb 00 a0 02 e6 00 c0 02 e1 00 10 03 dc 00     p...............
     1a4:	50 03 d7 00 e0 03 d2 00 70 04 cd 00 e0 04 c8 00     P.......p.......
     1b4:	e0 05 be 00 60 06 b9 00 40 07 aa 00 f0 08 a0 00     ....`...@.......
     1c4:	70 0b 96 00 f0 0d 8c 00 e0 10 82 00 e0 13 78 00     p.............x.
     1d4:	f0 17 6e 00 d0 19 69 00 70 1b 64 00 40 1e 5f 00     ..n...i.p.d.@._.
     1e4:	10 20 5a 00 f0 25 50 00 80 29 46 00 d0 30 3c 00     . Z..%P..)F..0<.
     1f4:	a0 32 37 00 10 35 32 00 20 39 2d 00 20 39 28 00     .27..52. 9-. 9(.
     204:	70 3a 23 00 a0 3b 1e 00 a0 3c 19 00 20 3d 16 00     p:#..;...<.. =..
     214:	00 3f 03 00 f0 3f 00 00                             .?...?..

0000021c <_ZL3i51>:
     21c:	d0 a3 d0 a1 d0 a2 d0 90 d0 9d d0 9e d0 92 d0 9a     ................
     22c:	d0 90 00                                            ...

0000022f <_ZL3i50>:
     22f:	d0 a2 d0 90 d0 a0 d0 90 00                          .........

00000238 <_ZL3i49>:
     238:	d0 9a d0 90 d0 a2 d0 a3 d0 a8 d0 9a d0 90 20 34     .............. 4
	...

00000249 <_ZL3i48>:
     249:	d0 a3 d0 a1 d0 a2 d0 90 d0 9d d0 9e d0 92 d0 9a     ................
     259:	d0 90 00                                            ...

0000025c <_ZL3i47>:
     25c:	d0 a2 d0 90 d0 a0 d0 90 00                          .........

00000265 <_ZL3i46>:
     265:	d0 9a d0 90 d0 a2 d0 a3 d0 a8 d0 9a d0 90 20 33     .............. 3
	...

00000276 <_ZL3i45>:
     276:	d0 a3 d0 a1 d0 a2 d0 90 d0 9d d0 9e d0 92 d0 9a     ................
     286:	d0 90 00                                            ...

00000289 <_ZL3i44>:
     289:	d0 a2 d0 90 d0 a0 d0 90 00                          .........

00000292 <_ZL3i43>:
     292:	d0 9a d0 90 d0 a2 d0 a3 d0 a8 d0 9a d0 90 20 32     .............. 2
	...

000002a3 <_ZL3i42>:
     2a3:	d0 a3 d0 a1 d0 a2 d0 90 d0 9d d0 9e d0 92 d0 9a     ................
     2b3:	d0 90 00                                            ...

000002b6 <_ZL3i41>:
     2b6:	d0 a2 d0 90 d0 a0 d0 90 00                          .........

000002bf <_ZL3i40>:
     2bf:	d0 9a d0 90 d0 a2 d0 a3 d0 a8 d0 9a d0 90 20 31     .............. 1
	...

000002d0 <_ZL3i39>:
     2d0:	d0 92 d0 95 d0 a1 d0 ab 00                          .........

000002d9 <_ZL3i38>:
     2d9:	d0 a1 d0 9e d0 a5 d0 a0 d0 90 d0 9d d0 98 d0 a2     ................
     2e9:	d0 ac 00                                            ...

000002ec <_ZL3i37>:
     2ec:	d0 a2 d0 95 d0 a1 d0 a2 00                          .........

000002f5 <_ZL3i36>:
     2f5:	d0 a3 d0 93 d0 9e d0 9b 00                          .........

000002fe <_ZL3i35>:
     2fe:	d0 9e d0 a2 d0 9a d0 a0 d0 ab d0 a2 d0 9e 00        ...............

0000030d <_ZL3i34>:
     30d:	d0 97 d0 90 d0 9a d0 a0 d0 ab d0 a2 d0 9e 00        ...............

0000031c <_ZL3i33>:
     31c:	d0 a1 d0 95 d0 a0 d0 92 d0 9e 00                    ...........

00000327 <_ZL3i32>:
     327:	d0 94 d0 95 d0 9b d0 ac d0 a2 d0 90 00              .............

00000334 <_ZL3i31>:
     334:	d0 9e d0 91 d0 94 d0 a3 d0 92 00                    ...........

0000033f <_ZL3i28>:
     33f:	d0 92 d0 a0 d0 95 d0 9c d0 af 2f d0 9c d0 a1 00     ........../.....

0000034f <_ZL3i27>:
     34f:	d0 90 d0 92 d0 a2 d0 9e d0 9f d0 98 d0 94 00        ...............

0000035e <_ZL3i26>:
     35e:	d0 9a d0 94 00                                      .....

00000363 <_ZL3i25>:
     363:	d0 9a d0 98 00                                      .....

00000368 <_ZL3i24>:
     368:	d0 9a d0 9f 00                                      .....

0000036d <_ZL3i23>:
     36d:	d0 9f d0 98 d0 94 00                                .......

00000374 <_ZL3i22>:
     374:	d0 9d d0 90 d0 a1 d0 a2 d0 a0 d0 9e d0 99 d0 9a     ................
     384:	d0 98 00                                            ...

00000387 <_ZL3i18>:
     387:	d0 90 d0 91 d0 a1 00                                .......

0000038e <_ZL3i14>:
     38e:	d0 9f d0 95 d0 a2 d0 93 00                          .........

00000397 <_ZL3i10>:
     397:	d0 9f d0 9b d0 90 00                                .......

0000039e <_ZL2i9>:
     39e:	d0 9f d0 a0 d0 95 d0 a1 d0 95 d0 a2 d0 ab 00        ...............

000003ad <_ZL2i7>:
     3ad:	d0 92 d0 9b d0 90 d0 96 d0 9d d0 9e d0 a1 d0 a2     ................
     3bd:	d0 ac 00                                            ...

000003c0 <_ZL2i5>:
     3c0:	d0 a5 d0 a0 d0 90 d0 9d d0 95 d0 9d d0 98 d0 95     ................
	...

000003d1 <_ZL2i4>:
     3d1:	d0 a1 d0 a2 d0 90 d0 a0 d0 a2 00                    ...........

000003dc <_ZL2i3>:
     3dc:	d0 92 d0 a0 d0 95 d0 9c d0 af 00                    ...........

000003e7 <_ZL2i2>:
     3e7:	d0 a2 d0 95 d0 9c d0 9f d0 95 d0 a0 d0 90 d0 a2     ................
     3f7:	d0 a3 d0 a0 d0 90 00                                .......

000003fe <_ZL2i1>:
     3fe:	d0 a1 d0 a3 d0 a8 d0 9a d0 90 00                    ...........

00000409 <_ZL2i0>:
     409:	d0 9c d0 95 d0 9d d0 ae 00                          .........

00000412 <_ZL10serviceTxt>:
     412:	73 01 66 01 59 01 53 01 3e 01 2b 01 1e 01 07 01     s.f.Y.S.>.+.....
     422:	f4 00 e7 00 d8 00 c5 00 b2 00 a7 00 98 00 85 00     ................
     432:	74 00 6d 00 68 00                                   t.m.h.

00000438 <port_to_mode_PGM>:
     438:	00 00 00 00 24 00 27 00 2a 00                       ....$.'.*.

00000442 <port_to_output_PGM>:
     442:	00 00 00 00 25 00 28 00 2b 00                       ....%.(.+.

0000044c <port_to_input_PGM>:
     44c:	00 00 00 00 23 00 26 00 29 00                       ....#.&.).

00000456 <digital_pin_to_port_PGM>:
     456:	04 04 04 04 04 04 04 04 02 02 02 02 02 02 03 03     ................
     466:	03 03 03 03 02 02 03                                .......

0000046d <digital_pin_to_bit_mask_PGM>:
     46d:	01 02 04 08 10 20 40 80 01 02 04 08 10 20 01 02     ..... @...... ..
     47d:	04 08 10 20 40 80 40                                ... @.@

00000484 <digital_pin_to_timer_PGM>:
     484:	00 00 00 09 00 03 02 00 00 04 05 08 00 00 00 00     ................
     494:	00 00 00 00 00 00 00                                .......

0000049b <_ZL7menuTxt>:
     49b:	09 04 fe 03 e7 03 dc 03 d1 03 c0 03 e7 03 ad 03     ................
     4ab:	d1 03 9e 03 97 03 e7 03 dc 03 d1 03 8e 03 e7 03     ................
     4bb:	dc 03 d1 03 87 03 e7 03 dc 03 d1 03 74 03 6d 03     ............t.m.
     4cb:	68 03 63 03 5e 03 4f 03 3f 03 e7 03 d1 03 34 03     h.c.^.O.?.....4.
     4db:	27 03 1c 03 0d 03 fe 02 f5 02 ec 02 d9 02 d0 02     '...............
     4eb:	bf 02 b6 02 a3 02 92 02 89 02 76 02 65 02 5c 02     ..........v.e.\.
     4fb:	49 02 38 02 2f 02 1c 02                             I.8./...

00000503 <_ZL9u8g2_font>:
     503:	3a 00 03 02 04 04 04 05 05 08 10 00 fe 0e fe 0b     :...............
     513:	ff 00 00 00 00 01 43 20 05 00 e8 31 21 08 a1 0c     ......C ...1!...
     523:	31 0e 89 00 22 08 45 8a 31 32 b7 00 23 0f a6 09     1...".E.12..#...
     533:	b1 7a 1a 86 24 6a 19 86 a8 27 00 24 11 a7 09 f1     .z..$j...'.$....
     543:	c2 41 89 22 29 9c c7 48 aa 0c 62 06 25 14 a7 09     .A.")..H..b.%...
     553:	71 34 29 29 25 91 92 c6 69 22 25 51 52 d2 14 00     q4))%...i"%QR...
     563:	26 11 a7 09 b1 b6 52 56 09 c5 24 d2 12 31 c9 a4     &.....RV..$..1..
     573:	29 27 07 41 8c 31 86 00 28 0c c3 fb b0 92 28 89     )'.A.1..(.....(.
     583:	7a 8b b2 00 29 0c c3 fa 30 b2 28 8b 7a 89 92 08     z...)...0.(.z...
     593:	2a 0d 77 19 f1 4a 95 b6 2d 69 aa 65 00 2b 0b 77     *.w..J..-i.e.+.w
     5a3:	19 f1 e2 da 30 64 71 0d 2c 08 42 eb 30 94 44 01     ....0dq.,.B.0.D.
     5b3:	2d 07 14 4a 31 86 00 2e 07 22 0b 31 86 00 2f 0c     -..J1....".1../.
     5c3:	a6 09 71 8b d5 30 0d ab 29 00 30 11 a6 09 b1 b4     ..q..0..).0.....
     5d3:	28 09 b5 29 51 a2 4d 4c a2 4c 02 31 0b a5 0a b1     (..)Q.ML.L.1....
     5e3:	32 29 09 fb 34 08 32 0e a6 09 71 86 24 14 d3 4c     2)..4.2...q.$..L
     5f3:	0b ab e9 30 33 10 a6 09 71 86 24 14 d3 68 4e 45     ...03...q.$..hNE
     603:	31 19 12 00 34 10 a6 09 31 43 2d 89 2a 59 92 25     1...4...1C-.*Y.%
     613:	c3 98 56 00 35 0e a6 09 31 0e 69 75 90 d3 54 4c     ..V.5...1.iu..TL
     623:	86 04 36 0e a6 09 b1 a6 30 4d 07 25 74 4c 86 04     ..6.....0M.%tL..
     633:	37 0b a6 09 31 ae c5 b4 98 36 01 38 0f a6 09 71     7...1....6.8...q
     643:	86 24 34 26 43 12 3a 26 43 02 39 0e a6 09 71 86     .$4&C.:&C.9...q.
     653:	24 34 26 83 da 18 4d 00 00 00 00 04 ff ff 04 10     $4&...M.........
     663:	0e a6 09 b1 b4 a8 25 14 87 41 74 0c 04 11 0f a6     ......%..At.....
     673:	09 31 06 25 ad 0e 4a e8 38 2c 00 04 12 0f a6 09     .1.%..J.8,......
     683:	31 06 25 34 0e 4b e8 38 2c 00 04 13 0a a6 09 31     1.%4.K.8,......1
     693:	0e 69 7f 05 04 14 13 c8 e8 30 c7 28 8c c2 28 eb     .i.......0.(..(.
     6a3:	53 18 85 c9 70 96 03 04 15 0d a6 09 31 0e 69 75     S...p.......1.iu
     6b3:	50 d2 d6 61 04 16 13 a7 09 31 a2 48 aa 34 25 b5     P..a.....1.H.4%.
     6c3:	71 4b 4a 49 53 24 15 04 17 11 a6 09 71 86 24 4c     qKJIS$......q.$L
     6d3:	2b 43 1a a7 62 32 24 00 04 18 11 a6 09 31 42 ed     +C..b2$......1B.
     6e3:	94 48 89 12 29 d1 b6 89 01 04 19 14 d6 09 71 a2     .H..).........q.
     6f3:	4c 47 42 ed 94 48 89 12 29 d1 b6 89 01 04 1a 11     LGB..H..).......
     703:	a6 09 31 b2 a9 4b 96 64 62 92 45 b5 24 0c 04 1b     ..1..K.db.E.$...
     713:	0e a6 09 b1 86 a8 ff 4b 96 64 62 00 04 1c 0e a6     .......K.db.....
     723:	09 31 42 71 1a a2 c5 a3 63 00 04 1d 0c a6 09 31     .1Bq....c......1
     733:	42 c7 61 10 3d 06 04 1e 0d a6 09 71 86 24 f4 c7     B.a.=......q.$..
     743:	64 48 00 04 1f 0a a6 09 31 0e a1 7f 0c 04 20 0d     dH......1..... .
     753:	a6 09 31 06 25 34 0e 4b da 15 04 21 0e a6 09 71     ..1.%4.K...!...q
     763:	86 24 b4 76 14 93 21 01 04 22 0b a7 09 31 0e 59     .$.v..!.."...1.Y
     773:	dc df 00 04 23 12 a7 09 31 52 35 c9 a2 ac 12 26     ....#...1R5....&
     783:	69 9c a6 22 00 04 24 14 b7 09 f1 c2 41 89 22 29     i.."..$.....A.")
     793:	92 22 29 92 2a 83 18 d7 00 04 25 10 a6 09 31 42     .").*.....%...1B
     7a3:	31 89 da 44 2d 6a 09 c5 00 04 26 17 c7 e9 30 c2     1..D-j....&...0.
     7b3:	24 4c c2 24 4c c2 24 4c c2 24 4c c2 64 18 e2 02     $L.$L.$L.$L.d...
     7c3:	04 27 0b a6 09 31 42 df 94 25 6d 04 28 16 a7 09     .'...1B..%m.(...
     7d3:	31 a2 48 8a a4 48 8a a4 48 8a a4 48 8a a4 68 18     1.H..H..H..H..h.
     7e3:	04 04 29 1a c8 e8 30 a2 4a 54 89 2a 51 25 aa 44     ..)...0.JT.*Q%.D
     7f3:	95 a8 12 55 a2 ca 30 e8 40 0e 04 04 2a 11 a7 09     ...U..0.@...*...
     803:	31 e6 e6 21 2b 65 51 16 65 d1 90 00 04 2b 12 a6     1..!+eQ.e....+..
     813:	09 31 42 c7 21 92 12 29 91 12 29 19 a2 00 04 2c     .1B.!..)..)....,
     823:	0d a6 09 31 d2 d6 41 09 1d 87 05 04 2d 0f a6 09     ...1..A.....-...
     833:	71 a6 2c 4e 93 41 ad 6a d1 04 04 2e 15 a6 09 31     q.,N.A.j.......1
     843:	22 a5 a4 44 4a 34 44 4a a4 44 4a a4 44 16 00 04     "..DJ4DJ.DJ.D...
     853:	2f 10 a6 09 71 86 d1 98 0c 52 25 4b 32 51 0c 00     /...q....R%K2Q..
	...

00000864 <__ctors_start>:
     864:	ca 2b       	or	r28, r26

00000866 <__ctors_end>:
     866:	71 38       	cpi	r23, 0x81	; 129

00000868 <__dtors_end>:
     868:	11 24       	eor	r1, r1
     86a:	1f be       	out	0x3f, r1	; 63
     86c:	cf ef       	ldi	r28, 0xFF	; 255
     86e:	d8 e0       	ldi	r29, 0x08	; 8
     870:	de bf       	out	0x3e, r29	; 62
     872:	cd bf       	out	0x3d, r28	; 61

00000874 <__do_copy_data>:
     874:	12 e0       	ldi	r17, 0x02	; 2
     876:	a0 e0       	ldi	r26, 0x00	; 0
     878:	b1 e0       	ldi	r27, 0x01	; 1
     87a:	ea e3       	ldi	r30, 0x3A	; 58
     87c:	ff e7       	ldi	r31, 0x7F	; 127
     87e:	02 c0       	rjmp	.+4      	; 0x884 <__do_copy_data+0x10>
     880:	05 90       	lpm	r0, Z+
     882:	0d 92       	st	X+, r0
     884:	aa 35       	cpi	r26, 0x5A	; 90
     886:	b1 07       	cpc	r27, r17
     888:	d9 f7       	brne	.-10     	; 0x880 <__do_copy_data+0xc>

0000088a <__do_clear_bss>:
     88a:	26 e0       	ldi	r18, 0x06	; 6
     88c:	aa e5       	ldi	r26, 0x5A	; 90
     88e:	b2 e0       	ldi	r27, 0x02	; 2
     890:	01 c0       	rjmp	.+2      	; 0x894 <.do_clear_bss_start>

00000892 <.do_clear_bss_loop>:
     892:	1d 92       	st	X+, r1

00000894 <.do_clear_bss_start>:
     894:	a9 3c       	cpi	r26, 0xC9	; 201
     896:	b2 07       	cpc	r27, r18
     898:	e1 f7       	brne	.-8      	; 0x892 <.do_clear_bss_loop>

0000089a <__do_global_ctors>:
     89a:	14 e0       	ldi	r17, 0x04	; 4
     89c:	c3 e3       	ldi	r28, 0x33	; 51
     89e:	d4 e0       	ldi	r29, 0x04	; 4
     8a0:	04 c0       	rjmp	.+8      	; 0x8aa <__do_global_ctors+0x10>
     8a2:	21 97       	sbiw	r28, 0x01	; 1
     8a4:	fe 01       	movw	r30, r28
     8a6:	0e 94 f6 3b 	call	0x77ec	; 0x77ec <__tablejump2__>
     8aa:	c2 33       	cpi	r28, 0x32	; 50
     8ac:	d1 07       	cpc	r29, r17
     8ae:	c9 f7       	brne	.-14     	; 0x8a2 <__do_global_ctors+0x8>
     8b0:	0e 94 6d 2e 	call	0x5cda	; 0x5cda <main>
     8b4:	0c 94 90 3f 	jmp	0x7f20	; 0x7f20 <__do_global_dtors>

000008b8 <__bad_interrupt>:
     8b8:	0c 94 00 00 	jmp	0	; 0x0 <__vectors>

000008bc <u8x8_ascii_next>:
     8bc:	66 23       	and	r22, r22
     8be:	29 f0       	breq	.+10     	; 0x8ca <u8x8_ascii_next+0xe>
     8c0:	6a 30       	cpi	r22, 0x0A	; 10
     8c2:	19 f0       	breq	.+6      	; 0x8ca <u8x8_ascii_next+0xe>
     8c4:	86 2f       	mov	r24, r22
     8c6:	90 e0       	ldi	r25, 0x00	; 0
     8c8:	08 95       	ret
     8ca:	8f ef       	ldi	r24, 0xFF	; 255
     8cc:	9f ef       	ldi	r25, 0xFF	; 255
     8ce:	08 95       	ret

000008d0 <u8g2_ll_hvline_vertical_top_lsb>:
     8d0:	af 92       	push	r10
     8d2:	bf 92       	push	r11
     8d4:	cf 92       	push	r12
     8d6:	df 92       	push	r13
     8d8:	ef 92       	push	r14
     8da:	ff 92       	push	r15
     8dc:	0f 93       	push	r16
     8de:	cf 93       	push	r28
     8e0:	df 93       	push	r29
     8e2:	ec 01       	movw	r28, r24
     8e4:	da 01       	movw	r26, r20
     8e6:	79 01       	movw	r14, r18
     8e8:	94 2f       	mov	r25, r20
     8ea:	97 70       	andi	r25, 0x07	; 7
     8ec:	e1 e0       	ldi	r30, 0x01	; 1
     8ee:	f0 e0       	ldi	r31, 0x00	; 0
     8f0:	9f 01       	movw	r18, r30
     8f2:	09 2e       	mov	r0, r25
     8f4:	01 c0       	rjmp	.+2      	; 0x8f8 <u8g2_ll_hvline_vertical_top_lsb+0x28>
     8f6:	22 0f       	add	r18, r18
     8f8:	0a 94       	dec	r0
     8fa:	ea f7       	brpl	.-6      	; 0x8f6 <u8g2_ll_hvline_vertical_top_lsb+0x26>
     8fc:	52 2f       	mov	r21, r18
     8fe:	6e 01       	movw	r12, r28
     900:	8a e8       	ldi	r24, 0x8A	; 138
     902:	c8 0e       	add	r12, r24
     904:	d1 1c       	adc	r13, r1
     906:	f6 01       	movw	r30, r12
     908:	80 81       	ld	r24, Z
     90a:	40 e0       	ldi	r20, 0x00	; 0
     90c:	82 30       	cpi	r24, 0x02	; 2
     90e:	18 f4       	brcc	.+6      	; 0x916 <__stack+0x17>
     910:	42 2f       	mov	r20, r18
     912:	81 30       	cpi	r24, 0x01	; 1
     914:	49 f1       	breq	.+82     	; 0x968 <__stack+0x69>
     916:	5d 01       	movw	r10, r26
     918:	f8 ef       	ldi	r31, 0xF8	; 248
     91a:	af 22       	and	r10, r31
     91c:	e8 ad       	ldd	r30, Y+56	; 0x38
     91e:	f9 ad       	ldd	r31, Y+57	; 0x39
     920:	28 81       	ld	r18, Y
     922:	39 81       	ldd	r19, Y+1	; 0x01
     924:	d9 01       	movw	r26, r18
     926:	50 96       	adiw	r26, 0x10	; 16
     928:	8c 91       	ld	r24, X
     92a:	8a 9d       	mul	r24, r10
     92c:	90 01       	movw	r18, r0
     92e:	8b 9d       	mul	r24, r11
     930:	30 0d       	add	r19, r0
     932:	11 24       	eor	r1, r1
     934:	62 0f       	add	r22, r18
     936:	73 1f       	adc	r23, r19
     938:	df 01       	movw	r26, r30
     93a:	a6 0f       	add	r26, r22
     93c:	b7 1f       	adc	r27, r23
     93e:	01 11       	cpse	r16, r1
     940:	1a c0       	rjmp	.+52     	; 0x976 <__stack+0x77>
     942:	ea 0e       	add	r14, r26
     944:	fb 1e       	adc	r15, r27
     946:	8c 91       	ld	r24, X
     948:	84 2b       	or	r24, r20
     94a:	85 27       	eor	r24, r21
     94c:	8d 93       	st	X+, r24
     94e:	ae 15       	cp	r26, r14
     950:	bf 05       	cpc	r27, r15
     952:	c9 f7       	brne	.-14     	; 0x946 <__stack+0x47>
     954:	df 91       	pop	r29
     956:	cf 91       	pop	r28
     958:	0f 91       	pop	r16
     95a:	ff 90       	pop	r15
     95c:	ef 90       	pop	r14
     95e:	df 90       	pop	r13
     960:	cf 90       	pop	r12
     962:	bf 90       	pop	r11
     964:	af 90       	pop	r10
     966:	08 95       	ret
     968:	50 e0       	ldi	r21, 0x00	; 0
     96a:	d5 cf       	rjmp	.-86     	; 0x916 <__stack+0x17>
     96c:	44 0f       	add	r20, r20
     96e:	55 0f       	add	r21, r21
     970:	e1 14       	cp	r14, r1
     972:	f1 04       	cpc	r15, r1
     974:	79 f3       	breq	.-34     	; 0x954 <__stack+0x55>
     976:	3c 91       	ld	r19, X
     978:	34 2b       	or	r19, r20
     97a:	35 27       	eor	r19, r21
     97c:	3c 93       	st	X, r19
     97e:	9f 5f       	subi	r25, 0xFF	; 255
     980:	97 70       	andi	r25, 0x07	; 7
     982:	e1 e0       	ldi	r30, 0x01	; 1
     984:	ee 1a       	sub	r14, r30
     986:	f1 08       	sbc	r15, r1
     988:	91 11       	cpse	r25, r1
     98a:	f0 cf       	rjmp	.-32     	; 0x96c <__stack+0x6d>
     98c:	2c ad       	ldd	r18, Y+60	; 0x3c
     98e:	3d ad       	ldd	r19, Y+61	; 0x3d
     990:	a2 0f       	add	r26, r18
     992:	b3 1f       	adc	r27, r19
     994:	f6 01       	movw	r30, r12
     996:	80 81       	ld	r24, Z
     998:	82 30       	cpi	r24, 0x02	; 2
     99a:	28 f4       	brcc	.+10     	; 0x9a6 <__stack+0xa7>
     99c:	81 30       	cpi	r24, 0x01	; 1
     99e:	09 f0       	breq	.+2      	; 0x9a2 <__stack+0xa3>
     9a0:	51 e0       	ldi	r21, 0x01	; 1
     9a2:	41 e0       	ldi	r20, 0x01	; 1
     9a4:	e5 cf       	rjmp	.-54     	; 0x970 <__stack+0x71>
     9a6:	51 e0       	ldi	r21, 0x01	; 1
     9a8:	e3 cf       	rjmp	.-58     	; 0x970 <__stack+0x71>

000009aa <u8x8_dummy_cb>:
     9aa:	80 e0       	ldi	r24, 0x00	; 0
     9ac:	08 95       	ret

000009ae <u8g2_font_calc_vref_font>:
     9ae:	90 e0       	ldi	r25, 0x00	; 0
     9b0:	80 e0       	ldi	r24, 0x00	; 0
     9b2:	08 95       	ret

000009b4 <_ZN3PID10SetTuningsEdddi.constprop.72>:
     9b4:	4f 92       	push	r4
     9b6:	5f 92       	push	r5
     9b8:	6f 92       	push	r6
     9ba:	7f 92       	push	r7
     9bc:	8f 92       	push	r8
     9be:	9f 92       	push	r9
     9c0:	af 92       	push	r10
     9c2:	bf 92       	push	r11
     9c4:	cf 92       	push	r12
     9c6:	df 92       	push	r13
     9c8:	ef 92       	push	r14
     9ca:	ff 92       	push	r15
     9cc:	0f 93       	push	r16
     9ce:	1f 93       	push	r17
     9d0:	cf 93       	push	r28
     9d2:	df 93       	push	r29
     9d4:	00 d0       	rcall	.+0      	; 0x9d6 <_ZN3PID10SetTuningsEdddi.constprop.72+0x22>
     9d6:	00 d0       	rcall	.+0      	; 0x9d8 <_ZN3PID10SetTuningsEdddi.constprop.72+0x24>
     9d8:	cd b7       	in	r28, 0x3d	; 61
     9da:	de b7       	in	r29, 0x3e	; 62
     9dc:	4b 01       	movw	r8, r22
     9de:	5c 01       	movw	r10, r24
     9e0:	29 01       	movw	r4, r18
     9e2:	3a 01       	movw	r6, r20
     9e4:	67 01       	movw	r12, r14
     9e6:	78 01       	movw	r14, r16
     9e8:	20 e0       	ldi	r18, 0x00	; 0
     9ea:	30 e0       	ldi	r19, 0x00	; 0
     9ec:	a9 01       	movw	r20, r18
     9ee:	0e 94 69 3c 	call	0x78d2	; 0x78d2 <__cmpsf2>
     9f2:	87 fd       	sbrc	r24, 7
     9f4:	a3 c0       	rjmp	.+326    	; 0xb3c <_ZN3PID10SetTuningsEdddi.constprop.72+0x188>
     9f6:	20 e0       	ldi	r18, 0x00	; 0
     9f8:	30 e0       	ldi	r19, 0x00	; 0
     9fa:	a9 01       	movw	r20, r18
     9fc:	c3 01       	movw	r24, r6
     9fe:	b2 01       	movw	r22, r4
     a00:	0e 94 69 3c 	call	0x78d2	; 0x78d2 <__cmpsf2>
     a04:	87 fd       	sbrc	r24, 7
     a06:	9a c0       	rjmp	.+308    	; 0xb3c <_ZN3PID10SetTuningsEdddi.constprop.72+0x188>
     a08:	20 e0       	ldi	r18, 0x00	; 0
     a0a:	30 e0       	ldi	r19, 0x00	; 0
     a0c:	a9 01       	movw	r20, r18
     a0e:	c8 01       	movw	r24, r16
     a10:	b6 01       	movw	r22, r12
     a12:	0e 94 69 3c 	call	0x78d2	; 0x78d2 <__cmpsf2>
     a16:	87 fd       	sbrc	r24, 7
     a18:	91 c0       	rjmp	.+290    	; 0xb3c <_ZN3PID10SetTuningsEdddi.constprop.72+0x188>
     a1a:	81 e0       	ldi	r24, 0x01	; 1
     a1c:	90 e0       	ldi	r25, 0x00	; 0
     a1e:	90 93 4c 05 	sts	0x054C, r25	; 0x80054c <pid+0x1b>
     a22:	80 93 4b 05 	sts	0x054B, r24	; 0x80054b <pid+0x1a>
     a26:	80 93 6c 05 	sts	0x056C, r24	; 0x80056c <pid+0x3b>
     a2a:	80 92 31 05 	sts	0x0531, r8	; 0x800531 <pid>
     a2e:	90 92 32 05 	sts	0x0532, r9	; 0x800532 <pid+0x1>
     a32:	a0 92 33 05 	sts	0x0533, r10	; 0x800533 <pid+0x2>
     a36:	b0 92 34 05 	sts	0x0534, r11	; 0x800534 <pid+0x3>
     a3a:	40 92 35 05 	sts	0x0535, r4	; 0x800535 <pid+0x4>
     a3e:	50 92 36 05 	sts	0x0536, r5	; 0x800536 <pid+0x5>
     a42:	60 92 37 05 	sts	0x0537, r6	; 0x800537 <pid+0x6>
     a46:	70 92 38 05 	sts	0x0538, r7	; 0x800538 <pid+0x7>
     a4a:	c0 92 39 05 	sts	0x0539, r12	; 0x800539 <pid+0x8>
     a4e:	d0 92 3a 05 	sts	0x053A, r13	; 0x80053a <pid+0x9>
     a52:	e0 92 3b 05 	sts	0x053B, r14	; 0x80053b <pid+0xa>
     a56:	f0 92 3c 05 	sts	0x053C, r15	; 0x80053c <pid+0xb>
     a5a:	60 91 5f 05 	lds	r22, 0x055F	; 0x80055f <pid+0x2e>
     a5e:	70 91 60 05 	lds	r23, 0x0560	; 0x800560 <pid+0x2f>
     a62:	80 91 61 05 	lds	r24, 0x0561	; 0x800561 <pid+0x30>
     a66:	90 91 62 05 	lds	r25, 0x0562	; 0x800562 <pid+0x31>
     a6a:	0e 94 16 3d 	call	0x7a2c	; 0x7a2c <__floatunsisf>
     a6e:	20 e0       	ldi	r18, 0x00	; 0
     a70:	30 e0       	ldi	r19, 0x00	; 0
     a72:	4a e7       	ldi	r20, 0x7A	; 122
     a74:	54 e4       	ldi	r21, 0x44	; 68
     a76:	0e 94 6e 3c 	call	0x78dc	; 0x78dc <__divsf3>
     a7a:	69 83       	std	Y+1, r22	; 0x01
     a7c:	7a 83       	std	Y+2, r23	; 0x02
     a7e:	8b 83       	std	Y+3, r24	; 0x03
     a80:	9c 83       	std	Y+4, r25	; 0x04
     a82:	80 92 3d 05 	sts	0x053D, r8	; 0x80053d <pid+0xc>
     a86:	90 92 3e 05 	sts	0x053E, r9	; 0x80053e <pid+0xd>
     a8a:	a0 92 3f 05 	sts	0x053F, r10	; 0x80053f <pid+0xe>
     a8e:	b0 92 40 05 	sts	0x0540, r11	; 0x800540 <pid+0xf>
     a92:	9b 01       	movw	r18, r22
     a94:	ac 01       	movw	r20, r24
     a96:	c3 01       	movw	r24, r6
     a98:	b2 01       	movw	r22, r4
     a9a:	0e 94 cd 3d 	call	0x7b9a	; 0x7b9a <__mulsf3>
     a9e:	2b 01       	movw	r4, r22
     aa0:	3c 01       	movw	r6, r24
     aa2:	40 92 41 05 	sts	0x0541, r4	; 0x800541 <pid+0x10>
     aa6:	50 92 42 05 	sts	0x0542, r5	; 0x800542 <pid+0x11>
     aaa:	60 92 43 05 	sts	0x0543, r6	; 0x800543 <pid+0x12>
     aae:	70 92 44 05 	sts	0x0544, r7	; 0x800544 <pid+0x13>
     ab2:	29 81       	ldd	r18, Y+1	; 0x01
     ab4:	3a 81       	ldd	r19, Y+2	; 0x02
     ab6:	4b 81       	ldd	r20, Y+3	; 0x03
     ab8:	5c 81       	ldd	r21, Y+4	; 0x04
     aba:	c8 01       	movw	r24, r16
     abc:	b6 01       	movw	r22, r12
     abe:	0e 94 6e 3c 	call	0x78dc	; 0x78dc <__divsf3>
     ac2:	6b 01       	movw	r12, r22
     ac4:	7c 01       	movw	r14, r24
     ac6:	c0 92 45 05 	sts	0x0545, r12	; 0x800545 <pid+0x14>
     aca:	d0 92 46 05 	sts	0x0546, r13	; 0x800546 <pid+0x15>
     ace:	e0 92 47 05 	sts	0x0547, r14	; 0x800547 <pid+0x16>
     ad2:	f0 92 48 05 	sts	0x0548, r15	; 0x800548 <pid+0x17>
     ad6:	80 91 49 05 	lds	r24, 0x0549	; 0x800549 <pid+0x18>
     ada:	90 91 4a 05 	lds	r25, 0x054A	; 0x80054a <pid+0x19>
     ade:	01 97       	sbiw	r24, 0x01	; 1
     ae0:	69 f5       	brne	.+90     	; 0xb3c <_ZN3PID10SetTuningsEdddi.constprop.72+0x188>
     ae2:	a5 01       	movw	r20, r10
     ae4:	94 01       	movw	r18, r8
     ae6:	60 e0       	ldi	r22, 0x00	; 0
     ae8:	70 e0       	ldi	r23, 0x00	; 0
     aea:	cb 01       	movw	r24, r22
     aec:	0e 94 fc 3b 	call	0x77f8	; 0x77f8 <__subsf3>
     af0:	60 93 3d 05 	sts	0x053D, r22	; 0x80053d <pid+0xc>
     af4:	70 93 3e 05 	sts	0x053E, r23	; 0x80053e <pid+0xd>
     af8:	80 93 3f 05 	sts	0x053F, r24	; 0x80053f <pid+0xe>
     afc:	90 93 40 05 	sts	0x0540, r25	; 0x800540 <pid+0xf>
     b00:	a3 01       	movw	r20, r6
     b02:	92 01       	movw	r18, r4
     b04:	60 e0       	ldi	r22, 0x00	; 0
     b06:	70 e0       	ldi	r23, 0x00	; 0
     b08:	cb 01       	movw	r24, r22
     b0a:	0e 94 fc 3b 	call	0x77f8	; 0x77f8 <__subsf3>
     b0e:	60 93 41 05 	sts	0x0541, r22	; 0x800541 <pid+0x10>
     b12:	70 93 42 05 	sts	0x0542, r23	; 0x800542 <pid+0x11>
     b16:	80 93 43 05 	sts	0x0543, r24	; 0x800543 <pid+0x12>
     b1a:	90 93 44 05 	sts	0x0544, r25	; 0x800544 <pid+0x13>
     b1e:	a7 01       	movw	r20, r14
     b20:	96 01       	movw	r18, r12
     b22:	60 e0       	ldi	r22, 0x00	; 0
     b24:	70 e0       	ldi	r23, 0x00	; 0
     b26:	cb 01       	movw	r24, r22
     b28:	0e 94 fc 3b 	call	0x77f8	; 0x77f8 <__subsf3>
     b2c:	60 93 45 05 	sts	0x0545, r22	; 0x800545 <pid+0x14>
     b30:	70 93 46 05 	sts	0x0546, r23	; 0x800546 <pid+0x15>
     b34:	80 93 47 05 	sts	0x0547, r24	; 0x800547 <pid+0x16>
     b38:	90 93 48 05 	sts	0x0548, r25	; 0x800548 <pid+0x17>
     b3c:	0f 90       	pop	r0
     b3e:	0f 90       	pop	r0
     b40:	0f 90       	pop	r0
     b42:	0f 90       	pop	r0
     b44:	df 91       	pop	r29
     b46:	cf 91       	pop	r28
     b48:	1f 91       	pop	r17
     b4a:	0f 91       	pop	r16
     b4c:	ff 90       	pop	r15
     b4e:	ef 90       	pop	r14
     b50:	df 90       	pop	r13
     b52:	cf 90       	pop	r12
     b54:	bf 90       	pop	r11
     b56:	af 90       	pop	r10
     b58:	9f 90       	pop	r9
     b5a:	8f 90       	pop	r8
     b5c:	7f 90       	pop	r7
     b5e:	6f 90       	pop	r6
     b60:	5f 90       	pop	r5
     b62:	4f 90       	pop	r4
     b64:	08 95       	ret

00000b66 <_ZN7Timer_19setPeriodEm.constprop.155>:
     b66:	ef 92       	push	r14
     b68:	ff 92       	push	r15
     b6a:	1f 93       	push	r17
     b6c:	cf 93       	push	r28
     b6e:	df 93       	push	r29
     b70:	61 15       	cp	r22, r1
     b72:	71 05       	cpc	r23, r1
     b74:	81 05       	cpc	r24, r1
     b76:	91 05       	cpc	r25, r1
     b78:	09 f4       	brne	.+2      	; 0xb7c <_ZN7Timer_19setPeriodEm.constprop.155+0x16>
     b7a:	77 c0       	rjmp	.+238    	; 0xc6a <_ZN7Timer_19setPeriodEm.constprop.155+0x104>
     b7c:	dc 01       	movw	r26, r24
     b7e:	cb 01       	movw	r24, r22
     b80:	81 30       	cpi	r24, 0x01	; 1
     b82:	91 05       	cpc	r25, r1
     b84:	20 e4       	ldi	r18, 0x40	; 64
     b86:	a2 07       	cpc	r26, r18
     b88:	b1 05       	cpc	r27, r1
     b8a:	20 f0       	brcs	.+8      	; 0xb94 <_ZN7Timer_19setPeriodEm.constprop.155+0x2e>
     b8c:	80 e0       	ldi	r24, 0x00	; 0
     b8e:	90 e0       	ldi	r25, 0x00	; 0
     b90:	a0 e4       	ldi	r26, 0x40	; 64
     b92:	b0 e0       	ldi	r27, 0x00	; 0
     b94:	bc 01       	movw	r22, r24
     b96:	cd 01       	movw	r24, r26
     b98:	24 e0       	ldi	r18, 0x04	; 4
     b9a:	66 0f       	add	r22, r22
     b9c:	77 1f       	adc	r23, r23
     b9e:	88 1f       	adc	r24, r24
     ba0:	99 1f       	adc	r25, r25
     ba2:	2a 95       	dec	r18
     ba4:	d1 f7       	brne	.-12     	; 0xb9a <_ZN7Timer_19setPeriodEm.constprop.155+0x34>
     ba6:	61 15       	cp	r22, r1
     ba8:	71 05       	cpc	r23, r1
     baa:	21 e0       	ldi	r18, 0x01	; 1
     bac:	82 07       	cpc	r24, r18
     bae:	91 05       	cpc	r25, r1
     bb0:	08 f4       	brcc	.+2      	; 0xbb4 <_ZN7Timer_19setPeriodEm.constprop.155+0x4e>
     bb2:	60 c0       	rjmp	.+192    	; 0xc74 <_ZN7Timer_19setPeriodEm.constprop.155+0x10e>
     bb4:	61 15       	cp	r22, r1
     bb6:	71 05       	cpc	r23, r1
     bb8:	28 e0       	ldi	r18, 0x08	; 8
     bba:	82 07       	cpc	r24, r18
     bbc:	91 05       	cpc	r25, r1
     bbe:	08 f4       	brcc	.+2      	; 0xbc2 <_ZN7Timer_19setPeriodEm.constprop.155+0x5c>
     bc0:	5d c0       	rjmp	.+186    	; 0xc7c <_ZN7Timer_19setPeriodEm.constprop.155+0x116>
     bc2:	c0 e4       	ldi	r28, 0x40	; 64
     bc4:	d0 e0       	ldi	r29, 0x00	; 0
     bc6:	13 e0       	ldi	r17, 0x03	; 3
     bc8:	61 15       	cp	r22, r1
     bca:	71 05       	cpc	r23, r1
     bcc:	20 e4       	ldi	r18, 0x40	; 64
     bce:	82 07       	cpc	r24, r18
     bd0:	91 05       	cpc	r25, r1
     bd2:	60 f0       	brcs	.+24     	; 0xbec <_ZN7Timer_19setPeriodEm.constprop.155+0x86>
     bd4:	c0 e0       	ldi	r28, 0x00	; 0
     bd6:	d4 e0       	ldi	r29, 0x04	; 4
     bd8:	15 e0       	ldi	r17, 0x05	; 5
     bda:	61 15       	cp	r22, r1
     bdc:	71 05       	cpc	r23, r1
     bde:	81 05       	cpc	r24, r1
     be0:	21 e0       	ldi	r18, 0x01	; 1
     be2:	92 07       	cpc	r25, r18
     be4:	18 f4       	brcc	.+6      	; 0xbec <_ZN7Timer_19setPeriodEm.constprop.155+0x86>
     be6:	c0 e0       	ldi	r28, 0x00	; 0
     be8:	d1 e0       	ldi	r29, 0x01	; 1
     bea:	14 e0       	ldi	r17, 0x04	; 4
     bec:	f1 2c       	mov	r15, r1
     bee:	e1 2c       	mov	r14, r1
     bf0:	61 15       	cp	r22, r1
     bf2:	71 05       	cpc	r23, r1
     bf4:	81 05       	cpc	r24, r1
     bf6:	24 e0       	ldi	r18, 0x04	; 4
     bf8:	92 07       	cpc	r25, r18
     bfa:	31 f0       	breq	.+12     	; 0xc08 <_ZN7Timer_19setPeriodEm.constprop.155+0xa2>
     bfc:	9e 01       	movw	r18, r28
     bfe:	50 e0       	ldi	r21, 0x00	; 0
     c00:	40 e0       	ldi	r20, 0x00	; 0
     c02:	0e 94 a2 3b 	call	0x7744	; 0x7744 <__udivmodsi4>
     c06:	79 01       	movw	r14, r18
     c08:	80 91 80 00 	lds	r24, 0x0080	; 0x800080 <__TEXT_REGION_LENGTH__+0x7e0080>
     c0c:	80 7f       	andi	r24, 0xF0	; 240
     c0e:	80 93 80 00 	sts	0x0080, r24	; 0x800080 <__TEXT_REGION_LENGTH__+0x7e0080>
     c12:	18 61       	ori	r17, 0x18	; 24
     c14:	10 93 81 00 	sts	0x0081, r17	; 0x800081 <__TEXT_REGION_LENGTH__+0x7e0081>
     c18:	c7 01       	movw	r24, r14
     c1a:	01 97       	sbiw	r24, 0x01	; 1
     c1c:	90 93 87 00 	sts	0x0087, r25	; 0x800087 <__TEXT_REGION_LENGTH__+0x7e0087>
     c20:	80 93 86 00 	sts	0x0086, r24	; 0x800086 <__TEXT_REGION_LENGTH__+0x7e0086>
     c24:	80 91 81 00 	lds	r24, 0x0081	; 0x800081 <__TEXT_REGION_LENGTH__+0x7e0081>
     c28:	87 70       	andi	r24, 0x07	; 7
     c2a:	80 93 f0 03 	sts	0x03F0, r24	; 0x8003f0 <Timer1>
     c2e:	9e 01       	movw	r18, r28
     c30:	50 e0       	ldi	r21, 0x00	; 0
     c32:	40 e0       	ldi	r20, 0x00	; 0
     c34:	60 e0       	ldi	r22, 0x00	; 0
     c36:	74 e2       	ldi	r23, 0x24	; 36
     c38:	84 ef       	ldi	r24, 0xF4	; 244
     c3a:	90 e0       	ldi	r25, 0x00	; 0
     c3c:	0e 94 39 3b 	call	0x7672	; 0x7672 <__divmodsi4>
     c40:	ca 01       	movw	r24, r20
     c42:	b9 01       	movw	r22, r18
     c44:	97 01       	movw	r18, r14
     c46:	50 e0       	ldi	r21, 0x00	; 0
     c48:	40 e0       	ldi	r20, 0x00	; 0
     c4a:	0e 94 39 3b 	call	0x7672	; 0x7672 <__divmodsi4>
     c4e:	60 e4       	ldi	r22, 0x40	; 64
     c50:	72 e4       	ldi	r23, 0x42	; 66
     c52:	8f e0       	ldi	r24, 0x0F	; 15
     c54:	90 e0       	ldi	r25, 0x00	; 0
     c56:	0e 94 a2 3b 	call	0x7744	; 0x7744 <__udivmodsi4>
     c5a:	ca 01       	movw	r24, r20
     c5c:	b9 01       	movw	r22, r18
     c5e:	df 91       	pop	r29
     c60:	cf 91       	pop	r28
     c62:	1f 91       	pop	r17
     c64:	ff 90       	pop	r15
     c66:	ef 90       	pop	r14
     c68:	08 95       	ret
     c6a:	81 e0       	ldi	r24, 0x01	; 1
     c6c:	90 e0       	ldi	r25, 0x00	; 0
     c6e:	a0 e0       	ldi	r26, 0x00	; 0
     c70:	b0 e0       	ldi	r27, 0x00	; 0
     c72:	90 cf       	rjmp	.-224    	; 0xb94 <_ZN7Timer_19setPeriodEm.constprop.155+0x2e>
     c74:	11 e0       	ldi	r17, 0x01	; 1
     c76:	c1 e0       	ldi	r28, 0x01	; 1
     c78:	d0 e0       	ldi	r29, 0x00	; 0
     c7a:	c0 cf       	rjmp	.-128    	; 0xbfc <_ZN7Timer_19setPeriodEm.constprop.155+0x96>
     c7c:	12 e0       	ldi	r17, 0x02	; 2
     c7e:	c8 e0       	ldi	r28, 0x08	; 8
     c80:	d0 e0       	ldi	r29, 0x00	; 0
     c82:	bc cf       	rjmp	.-136    	; 0xbfc <_ZN7Timer_19setPeriodEm.constprop.155+0x96>

00000c84 <_ZN11VirtEncoder7pollEncEa.constprop.131>:
     c84:	0f 93       	push	r16
     c86:	1f 93       	push	r17
     c88:	90 91 d3 05 	lds	r25, 0x05D3	; 0x8005d3 <enc+0x12>
     c8c:	29 2f       	mov	r18, r25
     c8e:	22 95       	swap	r18
     c90:	20 7f       	andi	r18, 0xF0	; 240
     c92:	25 95       	asr	r18
     c94:	25 95       	asr	r18
     c96:	25 95       	asr	r18
     c98:	25 95       	asr	r18
     c9a:	02 2e       	mov	r0, r18
     c9c:	00 0c       	add	r0, r0
     c9e:	33 0b       	sbc	r19, r19
     ca0:	48 2f       	mov	r20, r24
     ca2:	08 2e       	mov	r0, r24
     ca4:	00 0c       	add	r0, r0
     ca6:	55 0b       	sbc	r21, r21
     ca8:	24 17       	cp	r18, r20
     caa:	35 07       	cpc	r19, r21
     cac:	21 f4       	brne	.+8      	; 0xcb6 <_ZN11VirtEncoder7pollEncEa.constprop.131+0x32>
     cae:	80 e0       	ldi	r24, 0x00	; 0
     cb0:	1f 91       	pop	r17
     cb2:	0f 91       	pop	r16
     cb4:	08 95       	ret
     cb6:	22 0f       	add	r18, r18
     cb8:	33 1f       	adc	r19, r19
     cba:	22 0f       	add	r18, r18
     cbc:	33 1f       	adc	r19, r19
     cbe:	24 2b       	or	r18, r20
     cc0:	35 2b       	or	r19, r21
     cc2:	22 0f       	add	r18, r18
     cc4:	33 1f       	adc	r19, r19
     cc6:	41 e6       	ldi	r20, 0x61	; 97
     cc8:	56 e1       	ldi	r21, 0x16	; 22
     cca:	64 e9       	ldi	r22, 0x94	; 148
     ccc:	79 e4       	ldi	r23, 0x49	; 73
     cce:	04 c0       	rjmp	.+8      	; 0xcd8 <_ZN11VirtEncoder7pollEncEa.constprop.131+0x54>
     cd0:	75 95       	asr	r23
     cd2:	67 95       	ror	r22
     cd4:	57 95       	ror	r21
     cd6:	47 95       	ror	r20
     cd8:	2a 95       	dec	r18
     cda:	d2 f7       	brpl	.-12     	; 0xcd0 <_ZN11VirtEncoder7pollEncEa.constprop.131+0x4c>
     cdc:	43 70       	andi	r20, 0x03	; 3
     cde:	95 95       	asr	r25
     ce0:	95 95       	asr	r25
     ce2:	95 95       	asr	r25
     ce4:	95 95       	asr	r25
     ce6:	91 50       	subi	r25, 0x01	; 1
     ce8:	49 0f       	add	r20, r25
     cea:	42 95       	swap	r20
     cec:	40 7f       	andi	r20, 0xF0	; 240
     cee:	45 95       	asr	r20
     cf0:	45 95       	asr	r20
     cf2:	45 95       	asr	r20
     cf4:	45 95       	asr	r20
     cf6:	94 2f       	mov	r25, r20
     cf8:	92 95       	swap	r25
     cfa:	90 7f       	andi	r25, 0xF0	; 240
     cfc:	28 2f       	mov	r18, r24
     cfe:	2f 70       	andi	r18, 0x0F	; 15
     d00:	92 2b       	or	r25, r18
     d02:	90 93 d3 05 	sts	0x05D3, r25	; 0x8005d3 <enc+0x12>
     d06:	90 7f       	andi	r25, 0xF0	; 240
     d08:	91 f2       	breq	.-92     	; 0xcae <_ZN11VirtEncoder7pollEncEa.constprop.131+0x2a>
     d0a:	90 91 d2 05 	lds	r25, 0x05D2	; 0x8005d2 <enc+0x11>
     d0e:	29 2f       	mov	r18, r25
     d10:	23 70       	andi	r18, 0x03	; 3
     d12:	21 30       	cpi	r18, 0x01	; 1
     d14:	89 f1       	breq	.+98     	; 0xd78 <_ZN11VirtEncoder7pollEncEa.constprop.131+0xf4>
     d16:	60 f1       	brcs	.+88     	; 0xd70 <_ZN11VirtEncoder7pollEncEa.constprop.131+0xec>
     d18:	22 30       	cpi	r18, 0x02	; 2
     d1a:	89 f1       	breq	.+98     	; 0xd7e <_ZN11VirtEncoder7pollEncEa.constprop.131+0xfa>
     d1c:	81 e0       	ldi	r24, 0x01	; 1
     d1e:	14 16       	cp	r1, r20
     d20:	0c f0       	brlt	.+2      	; 0xd24 <_ZN11VirtEncoder7pollEncEa.constprop.131+0xa0>
     d22:	80 e0       	ldi	r24, 0x00	; 0
     d24:	92 fb       	bst	r25, 2
     d26:	99 27       	eor	r25, r25
     d28:	90 f9       	bld	r25, 0
     d2a:	89 13       	cpse	r24, r25
     d2c:	2c c0       	rjmp	.+88     	; 0xd86 <_ZN11VirtEncoder7pollEncEa.constprop.131+0x102>
     d2e:	8f ef       	ldi	r24, 0xFF	; 255
     d30:	90 91 d3 05 	lds	r25, 0x05D3	; 0x8005d3 <enc+0x12>
     d34:	9f 70       	andi	r25, 0x0F	; 15
     d36:	90 93 d3 05 	sts	0x05D3, r25	; 0x8005d3 <enc+0x12>
     d3a:	40 91 ce 05 	lds	r20, 0x05CE	; 0x8005ce <enc+0xd>
     d3e:	50 91 cf 05 	lds	r21, 0x05CF	; 0x8005cf <enc+0xe>
     d42:	60 91 d0 05 	lds	r22, 0x05D0	; 0x8005d0 <enc+0xf>
     d46:	70 91 d1 05 	lds	r23, 0x05D1	; 0x8005d1 <enc+0x10>
     d4a:	08 2f       	mov	r16, r24
     d4c:	08 2e       	mov	r0, r24
     d4e:	00 0c       	add	r0, r0
     d50:	11 0b       	sbc	r17, r17
     d52:	22 0b       	sbc	r18, r18
     d54:	33 0b       	sbc	r19, r19
     d56:	40 0f       	add	r20, r16
     d58:	51 1f       	adc	r21, r17
     d5a:	62 1f       	adc	r22, r18
     d5c:	73 1f       	adc	r23, r19
     d5e:	40 93 ce 05 	sts	0x05CE, r20	; 0x8005ce <enc+0xd>
     d62:	50 93 cf 05 	sts	0x05CF, r21	; 0x8005cf <enc+0xe>
     d66:	60 93 d0 05 	sts	0x05D0, r22	; 0x8005d0 <enc+0xf>
     d6a:	70 93 d1 05 	sts	0x05D1, r23	; 0x8005d1 <enc+0x10>
     d6e:	a0 cf       	rjmp	.-192    	; 0xcb0 <_ZN11VirtEncoder7pollEncEa.constprop.131+0x2c>
     d70:	83 30       	cpi	r24, 0x03	; 3
     d72:	09 f0       	breq	.+2      	; 0xd76 <_ZN11VirtEncoder7pollEncEa.constprop.131+0xf2>
     d74:	9c cf       	rjmp	.-200    	; 0xcae <_ZN11VirtEncoder7pollEncEa.constprop.131+0x2a>
     d76:	d2 cf       	rjmp	.-92     	; 0xd1c <_ZN11VirtEncoder7pollEncEa.constprop.131+0x98>
     d78:	88 23       	and	r24, r24
     d7a:	81 f2       	breq	.-96     	; 0xd1c <_ZN11VirtEncoder7pollEncEa.constprop.131+0x98>
     d7c:	98 cf       	rjmp	.-208    	; 0xcae <_ZN11VirtEncoder7pollEncEa.constprop.131+0x2a>
     d7e:	81 50       	subi	r24, 0x01	; 1
     d80:	82 30       	cpi	r24, 0x02	; 2
     d82:	60 f6       	brcc	.-104    	; 0xd1c <_ZN11VirtEncoder7pollEncEa.constprop.131+0x98>
     d84:	94 cf       	rjmp	.-216    	; 0xcae <_ZN11VirtEncoder7pollEncEa.constprop.131+0x2a>
     d86:	81 e0       	ldi	r24, 0x01	; 1
     d88:	d3 cf       	rjmp	.-90     	; 0xd30 <_ZN11VirtEncoder7pollEncEa.constprop.131+0xac>

00000d8a <u8g2_SetDrawColor.constprop.105>:
     d8a:	83 30       	cpi	r24, 0x03	; 3
     d8c:	18 f4       	brcc	.+6      	; 0xd94 <u8g2_SetDrawColor.constprop.105+0xa>
     d8e:	80 93 68 06 	sts	0x0668, r24	; 0x800668 <oled+0x8e>
     d92:	08 95       	ret
     d94:	81 e0       	ldi	r24, 0x01	; 1
     d96:	fb cf       	rjmp	.-10     	; 0xd8e <u8g2_SetDrawColor.constprop.105+0x4>

00000d98 <_ZN3PID13SetSampleTimeEi.constprop.74>:
     d98:	8f 92       	push	r8
     d9a:	9f 92       	push	r9
     d9c:	af 92       	push	r10
     d9e:	bf 92       	push	r11
     da0:	cf 92       	push	r12
     da2:	df 92       	push	r13
     da4:	ef 92       	push	r14
     da6:	ff 92       	push	r15
     da8:	18 16       	cp	r1, r24
     daa:	19 06       	cpc	r1, r25
     dac:	0c f0       	brlt	.+2      	; 0xdb0 <_ZN3PID13SetSampleTimeEi.constprop.74+0x18>
     dae:	4c c0       	rjmp	.+152    	; 0xe48 <_ZN3PID13SetSampleTimeEi.constprop.74+0xb0>
     db0:	6c 01       	movw	r12, r24
     db2:	99 0f       	add	r25, r25
     db4:	ee 08       	sbc	r14, r14
     db6:	ff 08       	sbc	r15, r15
     db8:	c7 01       	movw	r24, r14
     dba:	b6 01       	movw	r22, r12
     dbc:	0e 94 18 3d 	call	0x7a30	; 0x7a30 <__floatsisf>
     dc0:	4b 01       	movw	r8, r22
     dc2:	5c 01       	movw	r10, r24
     dc4:	60 91 5f 05 	lds	r22, 0x055F	; 0x80055f <pid+0x2e>
     dc8:	70 91 60 05 	lds	r23, 0x0560	; 0x800560 <pid+0x2f>
     dcc:	80 91 61 05 	lds	r24, 0x0561	; 0x800561 <pid+0x30>
     dd0:	90 91 62 05 	lds	r25, 0x0562	; 0x800562 <pid+0x31>
     dd4:	0e 94 16 3d 	call	0x7a2c	; 0x7a2c <__floatunsisf>
     dd8:	9b 01       	movw	r18, r22
     dda:	ac 01       	movw	r20, r24
     ddc:	c5 01       	movw	r24, r10
     dde:	b4 01       	movw	r22, r8
     de0:	0e 94 6e 3c 	call	0x78dc	; 0x78dc <__divsf3>
     de4:	4b 01       	movw	r8, r22
     de6:	5c 01       	movw	r10, r24
     de8:	ac 01       	movw	r20, r24
     dea:	9b 01       	movw	r18, r22
     dec:	60 91 41 05 	lds	r22, 0x0541	; 0x800541 <pid+0x10>
     df0:	70 91 42 05 	lds	r23, 0x0542	; 0x800542 <pid+0x11>
     df4:	80 91 43 05 	lds	r24, 0x0543	; 0x800543 <pid+0x12>
     df8:	90 91 44 05 	lds	r25, 0x0544	; 0x800544 <pid+0x13>
     dfc:	0e 94 cd 3d 	call	0x7b9a	; 0x7b9a <__mulsf3>
     e00:	60 93 41 05 	sts	0x0541, r22	; 0x800541 <pid+0x10>
     e04:	70 93 42 05 	sts	0x0542, r23	; 0x800542 <pid+0x11>
     e08:	80 93 43 05 	sts	0x0543, r24	; 0x800543 <pid+0x12>
     e0c:	90 93 44 05 	sts	0x0544, r25	; 0x800544 <pid+0x13>
     e10:	a5 01       	movw	r20, r10
     e12:	94 01       	movw	r18, r8
     e14:	60 91 45 05 	lds	r22, 0x0545	; 0x800545 <pid+0x14>
     e18:	70 91 46 05 	lds	r23, 0x0546	; 0x800546 <pid+0x15>
     e1c:	80 91 47 05 	lds	r24, 0x0547	; 0x800547 <pid+0x16>
     e20:	90 91 48 05 	lds	r25, 0x0548	; 0x800548 <pid+0x17>
     e24:	0e 94 6e 3c 	call	0x78dc	; 0x78dc <__divsf3>
     e28:	60 93 45 05 	sts	0x0545, r22	; 0x800545 <pid+0x14>
     e2c:	70 93 46 05 	sts	0x0546, r23	; 0x800546 <pid+0x15>
     e30:	80 93 47 05 	sts	0x0547, r24	; 0x800547 <pid+0x16>
     e34:	90 93 48 05 	sts	0x0548, r25	; 0x800548 <pid+0x17>
     e38:	c0 92 5f 05 	sts	0x055F, r12	; 0x80055f <pid+0x2e>
     e3c:	d0 92 60 05 	sts	0x0560, r13	; 0x800560 <pid+0x2f>
     e40:	e0 92 61 05 	sts	0x0561, r14	; 0x800561 <pid+0x30>
     e44:	f0 92 62 05 	sts	0x0562, r15	; 0x800562 <pid+0x31>
     e48:	ff 90       	pop	r15
     e4a:	ef 90       	pop	r14
     e4c:	df 90       	pop	r13
     e4e:	cf 90       	pop	r12
     e50:	bf 90       	pop	r11
     e52:	af 90       	pop	r10
     e54:	9f 90       	pop	r9
     e56:	8f 90       	pop	r8
     e58:	08 95       	ret

00000e5a <_ZN7TwoWire4readEv>:
     e5a:	90 91 73 03 	lds	r25, 0x0373	; 0x800373 <_ZN7TwoWire13rxBufferIndexE>
     e5e:	80 91 72 03 	lds	r24, 0x0372	; 0x800372 <_ZN7TwoWire14rxBufferLengthE>
     e62:	2f ef       	ldi	r18, 0xFF	; 255
     e64:	3f ef       	ldi	r19, 0xFF	; 255
     e66:	98 17       	cp	r25, r24
     e68:	48 f4       	brcc	.+18     	; 0xe7c <_ZN7TwoWire4readEv+0x22>
     e6a:	e9 2f       	mov	r30, r25
     e6c:	f0 e0       	ldi	r31, 0x00	; 0
     e6e:	ec 58       	subi	r30, 0x8C	; 140
     e70:	fc 4f       	sbci	r31, 0xFC	; 252
     e72:	20 81       	ld	r18, Z
     e74:	30 e0       	ldi	r19, 0x00	; 0
     e76:	9f 5f       	subi	r25, 0xFF	; 255
     e78:	90 93 73 03 	sts	0x0373, r25	; 0x800373 <_ZN7TwoWire13rxBufferIndexE>
     e7c:	c9 01       	movw	r24, r18
     e7e:	08 95       	ret

00000e80 <_ZN7TwoWire4readEv.constprop.62>:
     e80:	90 91 73 03 	lds	r25, 0x0373	; 0x800373 <_ZN7TwoWire13rxBufferIndexE>
     e84:	80 91 72 03 	lds	r24, 0x0372	; 0x800372 <_ZN7TwoWire14rxBufferLengthE>
     e88:	2f ef       	ldi	r18, 0xFF	; 255
     e8a:	3f ef       	ldi	r19, 0xFF	; 255
     e8c:	98 17       	cp	r25, r24
     e8e:	48 f4       	brcc	.+18     	; 0xea2 <_ZN7TwoWire4readEv.constprop.62+0x22>
     e90:	e9 2f       	mov	r30, r25
     e92:	f0 e0       	ldi	r31, 0x00	; 0
     e94:	ec 58       	subi	r30, 0x8C	; 140
     e96:	fc 4f       	sbci	r31, 0xFC	; 252
     e98:	20 81       	ld	r18, Z
     e9a:	30 e0       	ldi	r19, 0x00	; 0
     e9c:	9f 5f       	subi	r25, 0xFF	; 255
     e9e:	90 93 73 03 	sts	0x0373, r25	; 0x800373 <_ZN7TwoWire13rxBufferIndexE>
     ea2:	c9 01       	movw	r24, r18
     ea4:	08 95       	ret

00000ea6 <_ZN7TwoWire15endTransmissionEv.constprop.60>:
     ea6:	90 91 68 03 	lds	r25, 0x0368	; 0x800368 <_ZN7TwoWire14txBufferLengthE>
     eaa:	81 e0       	ldi	r24, 0x01	; 1
     eac:	91 32       	cpi	r25, 0x21	; 33
     eae:	08 f0       	brcs	.+2      	; 0xeb2 <_ZN7TwoWire15endTransmissionEv.constprop.60+0xc>
     eb0:	43 c0       	rjmp	.+134    	; 0xf38 <_ZN7TwoWire15endTransmissionEv.constprop.60+0x92>
     eb2:	80 91 71 03 	lds	r24, 0x0371	; 0x800371 <twi_state>
     eb6:	81 11       	cpse	r24, r1
     eb8:	fc cf       	rjmp	.-8      	; 0xeb2 <_ZN7TwoWire15endTransmissionEv.constprop.60+0xc>
     eba:	80 91 67 03 	lds	r24, 0x0367	; 0x800367 <_ZN7TwoWire9txAddressE>
     ebe:	22 e0       	ldi	r18, 0x02	; 2
     ec0:	20 93 71 03 	sts	0x0371, r18	; 0x800371 <twi_state>
     ec4:	21 e0       	ldi	r18, 0x01	; 1
     ec6:	20 93 70 03 	sts	0x0370, r18	; 0x800370 <twi_sendStop>
     eca:	2f ef       	ldi	r18, 0xFF	; 255
     ecc:	20 93 6f 03 	sts	0x036F, r18	; 0x80036f <twi_error>
     ed0:	27 e4       	ldi	r18, 0x47	; 71
     ed2:	33 e0       	ldi	r19, 0x03	; 3
     ed4:	30 93 6e 03 	sts	0x036E, r19	; 0x80036e <twi_masterBuffer+0x1>
     ed8:	20 93 6d 03 	sts	0x036D, r18	; 0x80036d <twi_masterBuffer>
     edc:	10 92 6c 03 	sts	0x036C, r1	; 0x80036c <twi_masterBufferIndex>
     ee0:	90 93 6b 03 	sts	0x036B, r25	; 0x80036b <twi_masterBufferLength>
     ee4:	10 92 6a 03 	sts	0x036A, r1	; 0x80036a <twi_slarw>
     ee8:	90 91 6a 03 	lds	r25, 0x036A	; 0x80036a <twi_slarw>
     eec:	88 0f       	add	r24, r24
     eee:	89 2b       	or	r24, r25
     ef0:	80 93 6a 03 	sts	0x036A, r24	; 0x80036a <twi_slarw>
     ef4:	80 91 69 03 	lds	r24, 0x0369	; 0x800369 <twi_inRepStart>
     ef8:	81 30       	cpi	r24, 0x01	; 1
     efa:	29 f5       	brne	.+74     	; 0xf46 <_ZN7TwoWire15endTransmissionEv.constprop.60+0xa0>
     efc:	10 92 69 03 	sts	0x0369, r1	; 0x800369 <twi_inRepStart>
     f00:	80 91 6a 03 	lds	r24, 0x036A	; 0x80036a <twi_slarw>
     f04:	80 93 bb 00 	sts	0x00BB, r24	; 0x8000bb <__TEXT_REGION_LENGTH__+0x7e00bb>
     f08:	80 91 bc 00 	lds	r24, 0x00BC	; 0x8000bc <__TEXT_REGION_LENGTH__+0x7e00bc>
     f0c:	83 fd       	sbrc	r24, 3
     f0e:	f8 cf       	rjmp	.-16     	; 0xf00 <_ZN7TwoWire15endTransmissionEv.constprop.60+0x5a>
     f10:	85 ec       	ldi	r24, 0xC5	; 197
     f12:	80 93 bc 00 	sts	0x00BC, r24	; 0x8000bc <__TEXT_REGION_LENGTH__+0x7e00bc>
     f16:	80 91 71 03 	lds	r24, 0x0371	; 0x800371 <twi_state>
     f1a:	82 30       	cpi	r24, 0x02	; 2
     f1c:	e1 f3       	breq	.-8      	; 0xf16 <_ZN7TwoWire15endTransmissionEv.constprop.60+0x70>
     f1e:	80 91 6f 03 	lds	r24, 0x036F	; 0x80036f <twi_error>
     f22:	8f 3f       	cpi	r24, 0xFF	; 255
     f24:	91 f0       	breq	.+36     	; 0xf4a <_ZN7TwoWire15endTransmissionEv.constprop.60+0xa4>
     f26:	80 91 6f 03 	lds	r24, 0x036F	; 0x80036f <twi_error>
     f2a:	80 32       	cpi	r24, 0x20	; 32
     f2c:	81 f0       	breq	.+32     	; 0xf4e <_ZN7TwoWire15endTransmissionEv.constprop.60+0xa8>
     f2e:	80 91 6f 03 	lds	r24, 0x036F	; 0x80036f <twi_error>
     f32:	80 33       	cpi	r24, 0x30	; 48
     f34:	71 f0       	breq	.+28     	; 0xf52 <_ZN7TwoWire15endTransmissionEv.constprop.60+0xac>
     f36:	84 e0       	ldi	r24, 0x04	; 4
     f38:	10 92 46 03 	sts	0x0346, r1	; 0x800346 <_ZN7TwoWire13txBufferIndexE>
     f3c:	10 92 68 03 	sts	0x0368, r1	; 0x800368 <_ZN7TwoWire14txBufferLengthE>
     f40:	10 92 45 03 	sts	0x0345, r1	; 0x800345 <_ZN7TwoWire12transmittingE>
     f44:	08 95       	ret
     f46:	85 ee       	ldi	r24, 0xE5	; 229
     f48:	e4 cf       	rjmp	.-56     	; 0xf12 <_ZN7TwoWire15endTransmissionEv.constprop.60+0x6c>
     f4a:	80 e0       	ldi	r24, 0x00	; 0
     f4c:	f5 cf       	rjmp	.-22     	; 0xf38 <_ZN7TwoWire15endTransmissionEv.constprop.60+0x92>
     f4e:	82 e0       	ldi	r24, 0x02	; 2
     f50:	f3 cf       	rjmp	.-26     	; 0xf38 <_ZN7TwoWire15endTransmissionEv.constprop.60+0x92>
     f52:	83 e0       	ldi	r24, 0x03	; 3
     f54:	f1 cf       	rjmp	.-30     	; 0xf38 <_ZN7TwoWire15endTransmissionEv.constprop.60+0x92>

00000f56 <_ZN7TwoWire16onRequestServiceEv>:
     f56:	08 95       	ret

00000f58 <_ZN7TwoWire16onReceiveServiceEPhi>:
     f58:	08 95       	ret

00000f5a <u8x8_byte_SendBytes.constprop.5>:
     f5a:	9b 01       	movw	r18, r22
     f5c:	dc 01       	movw	r26, r24
     f5e:	18 96       	adiw	r26, 0x08	; 8
     f60:	ed 91       	ld	r30, X+
     f62:	fc 91       	ld	r31, X
     f64:	41 e0       	ldi	r20, 0x01	; 1
     f66:	67 e1       	ldi	r22, 0x17	; 23
     f68:	09 94       	ijmp

00000f6a <twi_stop>:
     f6a:	85 ed       	ldi	r24, 0xD5	; 213
     f6c:	80 93 bc 00 	sts	0x00BC, r24	; 0x8000bc <__TEXT_REGION_LENGTH__+0x7e00bc>
     f70:	80 91 bc 00 	lds	r24, 0x00BC	; 0x8000bc <__TEXT_REGION_LENGTH__+0x7e00bc>
     f74:	84 fd       	sbrc	r24, 4
     f76:	fc cf       	rjmp	.-8      	; 0xf70 <twi_stop+0x6>
     f78:	10 92 71 03 	sts	0x0371, r1	; 0x800371 <twi_state>
     f7c:	08 95       	ret

00000f7e <twi_transmit>:
     f7e:	20 91 1a 03 	lds	r18, 0x031A	; 0x80031a <twi_txBufferLength>
     f82:	26 0f       	add	r18, r22
     f84:	33 27       	eor	r19, r19
     f86:	33 1f       	adc	r19, r19
     f88:	21 32       	cpi	r18, 0x21	; 33
     f8a:	31 05       	cpc	r19, r1
     f8c:	ec f4       	brge	.+58     	; 0xfc8 <twi_transmit+0x4a>
     f8e:	20 91 71 03 	lds	r18, 0x0371	; 0x800371 <twi_state>
     f92:	fc 01       	movw	r30, r24
     f94:	90 e0       	ldi	r25, 0x00	; 0
     f96:	80 e0       	ldi	r24, 0x00	; 0
     f98:	24 30       	cpi	r18, 0x04	; 4
     f9a:	69 f0       	breq	.+26     	; 0xfb6 <twi_transmit+0x38>
     f9c:	82 e0       	ldi	r24, 0x02	; 2
     f9e:	08 95       	ret
     fa0:	a0 91 1a 03 	lds	r26, 0x031A	; 0x80031a <twi_txBufferLength>
     fa4:	21 91       	ld	r18, Z+
     fa6:	ac 01       	movw	r20, r24
     fa8:	46 50       	subi	r20, 0x06	; 6
     faa:	5d 4f       	sbci	r21, 0xFD	; 253
     fac:	a4 0f       	add	r26, r20
     fae:	b5 2f       	mov	r27, r21
     fb0:	b1 1d       	adc	r27, r1
     fb2:	2c 93       	st	X, r18
     fb4:	01 96       	adiw	r24, 0x01	; 1
     fb6:	86 17       	cp	r24, r22
     fb8:	98 f3       	brcs	.-26     	; 0xfa0 <twi_transmit+0x22>
     fba:	80 91 1a 03 	lds	r24, 0x031A	; 0x80031a <twi_txBufferLength>
     fbe:	68 0f       	add	r22, r24
     fc0:	60 93 1a 03 	sts	0x031A, r22	; 0x80031a <twi_txBufferLength>
     fc4:	80 e0       	ldi	r24, 0x00	; 0
     fc6:	08 95       	ret
     fc8:	81 e0       	ldi	r24, 0x01	; 1
     fca:	08 95       	ret

00000fcc <_ZN7TwoWire5flushEv>:
     fcc:	08 95       	ret

00000fce <_ZN7TwoWire4peekEv>:
     fce:	e0 91 73 03 	lds	r30, 0x0373	; 0x800373 <_ZN7TwoWire13rxBufferIndexE>
     fd2:	80 91 72 03 	lds	r24, 0x0372	; 0x800372 <_ZN7TwoWire14rxBufferLengthE>
     fd6:	e8 17       	cp	r30, r24
     fd8:	30 f4       	brcc	.+12     	; 0xfe6 <_ZN7TwoWire4peekEv+0x18>
     fda:	f0 e0       	ldi	r31, 0x00	; 0
     fdc:	ec 58       	subi	r30, 0x8C	; 140
     fde:	fc 4f       	sbci	r31, 0xFC	; 252
     fe0:	80 81       	ld	r24, Z
     fe2:	90 e0       	ldi	r25, 0x00	; 0
     fe4:	08 95       	ret
     fe6:	8f ef       	ldi	r24, 0xFF	; 255
     fe8:	9f ef       	ldi	r25, 0xFF	; 255
     fea:	08 95       	ret

00000fec <_ZN7TwoWire9availableEv>:
     fec:	80 91 72 03 	lds	r24, 0x0372	; 0x800372 <_ZN7TwoWire14rxBufferLengthE>
     ff0:	90 91 73 03 	lds	r25, 0x0373	; 0x800373 <_ZN7TwoWire13rxBufferIndexE>
     ff4:	89 1b       	sub	r24, r25
     ff6:	99 0b       	sbc	r25, r25
     ff8:	08 95       	ret

00000ffa <_ZN7TwoWire5writeEPKhj>:
     ffa:	cf 92       	push	r12
     ffc:	df 92       	push	r13
     ffe:	ef 92       	push	r14
    1000:	ff 92       	push	r15
    1002:	0f 93       	push	r16
    1004:	1f 93       	push	r17
    1006:	cf 93       	push	r28
    1008:	df 93       	push	r29
    100a:	7c 01       	movw	r14, r24
    100c:	cb 01       	movw	r24, r22
    100e:	8a 01       	movw	r16, r20
    1010:	20 91 45 03 	lds	r18, 0x0345	; 0x800345 <_ZN7TwoWire12transmittingE>
    1014:	22 23       	and	r18, r18
    1016:	89 f0       	breq	.+34     	; 0x103a <_ZN7TwoWire5writeEPKhj+0x40>
    1018:	eb 01       	movw	r28, r22
    101a:	6b 01       	movw	r12, r22
    101c:	c4 0e       	add	r12, r20
    101e:	d5 1e       	adc	r13, r21
    1020:	cc 15       	cp	r28, r12
    1022:	dd 05       	cpc	r29, r13
    1024:	69 f0       	breq	.+26     	; 0x1040 <_ZN7TwoWire5writeEPKhj+0x46>
    1026:	69 91       	ld	r22, Y+
    1028:	d7 01       	movw	r26, r14
    102a:	ed 91       	ld	r30, X+
    102c:	fc 91       	ld	r31, X
    102e:	01 90       	ld	r0, Z+
    1030:	f0 81       	ld	r31, Z
    1032:	e0 2d       	mov	r30, r0
    1034:	c7 01       	movw	r24, r14
    1036:	09 95       	icall
    1038:	f3 cf       	rjmp	.-26     	; 0x1020 <_ZN7TwoWire5writeEPKhj+0x26>
    103a:	64 2f       	mov	r22, r20
    103c:	0e 94 bf 07 	call	0xf7e	; 0xf7e <twi_transmit>
    1040:	c8 01       	movw	r24, r16
    1042:	df 91       	pop	r29
    1044:	cf 91       	pop	r28
    1046:	1f 91       	pop	r17
    1048:	0f 91       	pop	r16
    104a:	ff 90       	pop	r15
    104c:	ef 90       	pop	r14
    104e:	df 90       	pop	r13
    1050:	cf 90       	pop	r12
    1052:	08 95       	ret

00001054 <_ZN7TwoWire5writeEh>:
    1054:	cf 93       	push	r28
    1056:	df 93       	push	r29
    1058:	1f 92       	push	r1
    105a:	cd b7       	in	r28, 0x3d	; 61
    105c:	de b7       	in	r29, 0x3e	; 62
    105e:	69 83       	std	Y+1, r22	; 0x01
    1060:	20 91 45 03 	lds	r18, 0x0345	; 0x800345 <_ZN7TwoWire12transmittingE>
    1064:	22 23       	and	r18, r18
    1066:	f9 f0       	breq	.+62     	; 0x10a6 <_ZN7TwoWire5writeEh+0x52>
    1068:	20 91 68 03 	lds	r18, 0x0368	; 0x800368 <_ZN7TwoWire14txBufferLengthE>
    106c:	20 32       	cpi	r18, 0x20	; 32
    106e:	58 f0       	brcs	.+22     	; 0x1086 <_ZN7TwoWire5writeEh+0x32>
    1070:	21 e0       	ldi	r18, 0x01	; 1
    1072:	30 e0       	ldi	r19, 0x00	; 0
    1074:	fc 01       	movw	r30, r24
    1076:	33 83       	std	Z+3, r19	; 0x03
    1078:	22 83       	std	Z+2, r18	; 0x02
    107a:	90 e0       	ldi	r25, 0x00	; 0
    107c:	80 e0       	ldi	r24, 0x00	; 0
    107e:	0f 90       	pop	r0
    1080:	df 91       	pop	r29
    1082:	cf 91       	pop	r28
    1084:	08 95       	ret
    1086:	80 91 46 03 	lds	r24, 0x0346	; 0x800346 <_ZN7TwoWire13txBufferIndexE>
    108a:	e8 2f       	mov	r30, r24
    108c:	f0 e0       	ldi	r31, 0x00	; 0
    108e:	e9 5b       	subi	r30, 0xB9	; 185
    1090:	fc 4f       	sbci	r31, 0xFC	; 252
    1092:	99 81       	ldd	r25, Y+1	; 0x01
    1094:	90 83       	st	Z, r25
    1096:	8f 5f       	subi	r24, 0xFF	; 255
    1098:	80 93 46 03 	sts	0x0346, r24	; 0x800346 <_ZN7TwoWire13txBufferIndexE>
    109c:	80 93 68 03 	sts	0x0368, r24	; 0x800368 <_ZN7TwoWire14txBufferLengthE>
    10a0:	81 e0       	ldi	r24, 0x01	; 1
    10a2:	90 e0       	ldi	r25, 0x00	; 0
    10a4:	ec cf       	rjmp	.-40     	; 0x107e <_ZN7TwoWire5writeEh+0x2a>
    10a6:	61 e0       	ldi	r22, 0x01	; 1
    10a8:	ce 01       	movw	r24, r28
    10aa:	01 96       	adiw	r24, 0x01	; 1
    10ac:	0e 94 bf 07 	call	0xf7e	; 0xf7e <twi_transmit>
    10b0:	f7 cf       	rjmp	.-18     	; 0x10a0 <_ZN7TwoWire5writeEh+0x4c>

000010b2 <_ZN11GyverBME28013writeRegisterEhh.constprop.48>:
    10b2:	cf 93       	push	r28
    10b4:	c6 2f       	mov	r28, r22
    10b6:	90 91 70 06 	lds	r25, 0x0670	; 0x800670 <bme>
    10ba:	21 e0       	ldi	r18, 0x01	; 1
    10bc:	20 93 45 03 	sts	0x0345, r18	; 0x800345 <_ZN7TwoWire12transmittingE>
    10c0:	90 93 67 03 	sts	0x0367, r25	; 0x800367 <_ZN7TwoWire9txAddressE>
    10c4:	10 92 46 03 	sts	0x0346, r1	; 0x800346 <_ZN7TwoWire13txBufferIndexE>
    10c8:	10 92 68 03 	sts	0x0368, r1	; 0x800368 <_ZN7TwoWire14txBufferLengthE>
    10cc:	68 2f       	mov	r22, r24
    10ce:	81 ef       	ldi	r24, 0xF1	; 241
    10d0:	93 e0       	ldi	r25, 0x03	; 3
    10d2:	0e 94 2a 08 	call	0x1054	; 0x1054 <_ZN7TwoWire5writeEh>
    10d6:	6c 2f       	mov	r22, r28
    10d8:	81 ef       	ldi	r24, 0xF1	; 241
    10da:	93 e0       	ldi	r25, 0x03	; 3
    10dc:	0e 94 2a 08 	call	0x1054	; 0x1054 <_ZN7TwoWire5writeEh>
    10e0:	0e 94 53 07 	call	0xea6	; 0xea6 <_ZN7TwoWire15endTransmissionEv.constprop.60>
    10e4:	91 e0       	ldi	r25, 0x01	; 1
    10e6:	81 11       	cpse	r24, r1
    10e8:	90 e0       	ldi	r25, 0x00	; 0
    10ea:	89 2f       	mov	r24, r25
    10ec:	cf 91       	pop	r28
    10ee:	08 95       	ret

000010f0 <_ZN14HardwareSerial17availableForWriteEv>:
    10f0:	fc 01       	movw	r30, r24
    10f2:	53 8d       	ldd	r21, Z+27	; 0x1b
    10f4:	44 8d       	ldd	r20, Z+28	; 0x1c
    10f6:	25 2f       	mov	r18, r21
    10f8:	30 e0       	ldi	r19, 0x00	; 0
    10fa:	84 2f       	mov	r24, r20
    10fc:	90 e0       	ldi	r25, 0x00	; 0
    10fe:	82 1b       	sub	r24, r18
    1100:	93 0b       	sbc	r25, r19
    1102:	54 17       	cp	r21, r20
    1104:	10 f0       	brcs	.+4      	; 0x110a <_ZN14HardwareSerial17availableForWriteEv+0x1a>
    1106:	cf 96       	adiw	r24, 0x3f	; 63
    1108:	08 95       	ret
    110a:	01 97       	sbiw	r24, 0x01	; 1
    110c:	08 95       	ret

0000110e <_ZN14HardwareSerial4readEv>:
    110e:	fc 01       	movw	r30, r24
    1110:	91 8d       	ldd	r25, Z+25	; 0x19
    1112:	82 8d       	ldd	r24, Z+26	; 0x1a
    1114:	98 17       	cp	r25, r24
    1116:	61 f0       	breq	.+24     	; 0x1130 <_ZN14HardwareSerial4readEv+0x22>
    1118:	a2 8d       	ldd	r26, Z+26	; 0x1a
    111a:	ae 0f       	add	r26, r30
    111c:	bf 2f       	mov	r27, r31
    111e:	b1 1d       	adc	r27, r1
    1120:	5d 96       	adiw	r26, 0x1d	; 29
    1122:	8c 91       	ld	r24, X
    1124:	92 8d       	ldd	r25, Z+26	; 0x1a
    1126:	9f 5f       	subi	r25, 0xFF	; 255
    1128:	9f 73       	andi	r25, 0x3F	; 63
    112a:	92 8f       	std	Z+26, r25	; 0x1a
    112c:	90 e0       	ldi	r25, 0x00	; 0
    112e:	08 95       	ret
    1130:	8f ef       	ldi	r24, 0xFF	; 255
    1132:	9f ef       	ldi	r25, 0xFF	; 255
    1134:	08 95       	ret

00001136 <_ZN14HardwareSerial4peekEv>:
    1136:	fc 01       	movw	r30, r24
    1138:	91 8d       	ldd	r25, Z+25	; 0x19
    113a:	82 8d       	ldd	r24, Z+26	; 0x1a
    113c:	98 17       	cp	r25, r24
    113e:	31 f0       	breq	.+12     	; 0x114c <_ZN14HardwareSerial4peekEv+0x16>
    1140:	82 8d       	ldd	r24, Z+26	; 0x1a
    1142:	e8 0f       	add	r30, r24
    1144:	f1 1d       	adc	r31, r1
    1146:	85 8d       	ldd	r24, Z+29	; 0x1d
    1148:	90 e0       	ldi	r25, 0x00	; 0
    114a:	08 95       	ret
    114c:	8f ef       	ldi	r24, 0xFF	; 255
    114e:	9f ef       	ldi	r25, 0xFF	; 255
    1150:	08 95       	ret

00001152 <_ZN14HardwareSerial9availableEv>:
    1152:	fc 01       	movw	r30, r24
    1154:	91 8d       	ldd	r25, Z+25	; 0x19
    1156:	22 8d       	ldd	r18, Z+26	; 0x1a
    1158:	89 2f       	mov	r24, r25
    115a:	90 e0       	ldi	r25, 0x00	; 0
    115c:	80 5c       	subi	r24, 0xC0	; 192
    115e:	9f 4f       	sbci	r25, 0xFF	; 255
    1160:	82 1b       	sub	r24, r18
    1162:	91 09       	sbc	r25, r1
    1164:	8f 73       	andi	r24, 0x3F	; 63
    1166:	99 27       	eor	r25, r25
    1168:	08 95       	ret

0000116a <_ZN14HardwareSerial17_tx_udr_empty_irqEv>:
    116a:	fc 01       	movw	r30, r24
    116c:	a4 8d       	ldd	r26, Z+28	; 0x1c
    116e:	a8 0f       	add	r26, r24
    1170:	b9 2f       	mov	r27, r25
    1172:	b1 1d       	adc	r27, r1
    1174:	a3 5a       	subi	r26, 0xA3	; 163
    1176:	bf 4f       	sbci	r27, 0xFF	; 255
    1178:	2c 91       	ld	r18, X
    117a:	84 8d       	ldd	r24, Z+28	; 0x1c
    117c:	90 e0       	ldi	r25, 0x00	; 0
    117e:	01 96       	adiw	r24, 0x01	; 1
    1180:	8f 73       	andi	r24, 0x3F	; 63
    1182:	99 27       	eor	r25, r25
    1184:	84 8f       	std	Z+28, r24	; 0x1c
    1186:	a6 89       	ldd	r26, Z+22	; 0x16
    1188:	b7 89       	ldd	r27, Z+23	; 0x17
    118a:	2c 93       	st	X, r18
    118c:	a0 89       	ldd	r26, Z+16	; 0x10
    118e:	b1 89       	ldd	r27, Z+17	; 0x11
    1190:	8c 91       	ld	r24, X
    1192:	83 70       	andi	r24, 0x03	; 3
    1194:	80 64       	ori	r24, 0x40	; 64
    1196:	8c 93       	st	X, r24
    1198:	93 8d       	ldd	r25, Z+27	; 0x1b
    119a:	84 8d       	ldd	r24, Z+28	; 0x1c
    119c:	98 13       	cpse	r25, r24
    119e:	06 c0       	rjmp	.+12     	; 0x11ac <_ZN14HardwareSerial17_tx_udr_empty_irqEv+0x42>
    11a0:	02 88       	ldd	r0, Z+18	; 0x12
    11a2:	f3 89       	ldd	r31, Z+19	; 0x13
    11a4:	e0 2d       	mov	r30, r0
    11a6:	80 81       	ld	r24, Z
    11a8:	8f 7d       	andi	r24, 0xDF	; 223
    11aa:	80 83       	st	Z, r24
    11ac:	08 95       	ret

000011ae <_ZN14HardwareSerial5writeEh>:
    11ae:	ef 92       	push	r14
    11b0:	ff 92       	push	r15
    11b2:	0f 93       	push	r16
    11b4:	1f 93       	push	r17
    11b6:	cf 93       	push	r28
    11b8:	df 93       	push	r29
    11ba:	ec 01       	movw	r28, r24
    11bc:	81 e0       	ldi	r24, 0x01	; 1
    11be:	88 8f       	std	Y+24, r24	; 0x18
    11c0:	9b 8d       	ldd	r25, Y+27	; 0x1b
    11c2:	8c 8d       	ldd	r24, Y+28	; 0x1c
    11c4:	98 13       	cpse	r25, r24
    11c6:	1a c0       	rjmp	.+52     	; 0x11fc <_ZN14HardwareSerial5writeEh+0x4e>
    11c8:	e8 89       	ldd	r30, Y+16	; 0x10
    11ca:	f9 89       	ldd	r31, Y+17	; 0x11
    11cc:	80 81       	ld	r24, Z
    11ce:	85 ff       	sbrs	r24, 5
    11d0:	15 c0       	rjmp	.+42     	; 0x11fc <_ZN14HardwareSerial5writeEh+0x4e>
    11d2:	9f b7       	in	r25, 0x3f	; 63
    11d4:	f8 94       	cli
    11d6:	ee 89       	ldd	r30, Y+22	; 0x16
    11d8:	ff 89       	ldd	r31, Y+23	; 0x17
    11da:	60 83       	st	Z, r22
    11dc:	e8 89       	ldd	r30, Y+16	; 0x10
    11de:	f9 89       	ldd	r31, Y+17	; 0x11
    11e0:	80 81       	ld	r24, Z
    11e2:	83 70       	andi	r24, 0x03	; 3
    11e4:	80 64       	ori	r24, 0x40	; 64
    11e6:	80 83       	st	Z, r24
    11e8:	9f bf       	out	0x3f, r25	; 63
    11ea:	81 e0       	ldi	r24, 0x01	; 1
    11ec:	90 e0       	ldi	r25, 0x00	; 0
    11ee:	df 91       	pop	r29
    11f0:	cf 91       	pop	r28
    11f2:	1f 91       	pop	r17
    11f4:	0f 91       	pop	r16
    11f6:	ff 90       	pop	r15
    11f8:	ef 90       	pop	r14
    11fa:	08 95       	ret
    11fc:	f6 2e       	mov	r15, r22
    11fe:	0b 8d       	ldd	r16, Y+27	; 0x1b
    1200:	10 e0       	ldi	r17, 0x00	; 0
    1202:	0f 5f       	subi	r16, 0xFF	; 255
    1204:	1f 4f       	sbci	r17, 0xFF	; 255
    1206:	0f 73       	andi	r16, 0x3F	; 63
    1208:	11 27       	eor	r17, r17
    120a:	e0 2e       	mov	r14, r16
    120c:	8c 8d       	ldd	r24, Y+28	; 0x1c
    120e:	8e 11       	cpse	r24, r14
    1210:	0c c0       	rjmp	.+24     	; 0x122a <_ZN14HardwareSerial5writeEh+0x7c>
    1212:	0f b6       	in	r0, 0x3f	; 63
    1214:	07 fc       	sbrc	r0, 7
    1216:	fa cf       	rjmp	.-12     	; 0x120c <_ZN14HardwareSerial5writeEh+0x5e>
    1218:	e8 89       	ldd	r30, Y+16	; 0x10
    121a:	f9 89       	ldd	r31, Y+17	; 0x11
    121c:	80 81       	ld	r24, Z
    121e:	85 ff       	sbrs	r24, 5
    1220:	f5 cf       	rjmp	.-22     	; 0x120c <_ZN14HardwareSerial5writeEh+0x5e>
    1222:	ce 01       	movw	r24, r28
    1224:	0e 94 b5 08 	call	0x116a	; 0x116a <_ZN14HardwareSerial17_tx_udr_empty_irqEv>
    1228:	f1 cf       	rjmp	.-30     	; 0x120c <_ZN14HardwareSerial5writeEh+0x5e>
    122a:	eb 8d       	ldd	r30, Y+27	; 0x1b
    122c:	ec 0f       	add	r30, r28
    122e:	fd 2f       	mov	r31, r29
    1230:	f1 1d       	adc	r31, r1
    1232:	e3 5a       	subi	r30, 0xA3	; 163
    1234:	ff 4f       	sbci	r31, 0xFF	; 255
    1236:	f0 82       	st	Z, r15
    1238:	9f b7       	in	r25, 0x3f	; 63
    123a:	f8 94       	cli
    123c:	0b 8f       	std	Y+27, r16	; 0x1b
    123e:	ea 89       	ldd	r30, Y+18	; 0x12
    1240:	fb 89       	ldd	r31, Y+19	; 0x13
    1242:	80 81       	ld	r24, Z
    1244:	80 62       	ori	r24, 0x20	; 32
    1246:	cf cf       	rjmp	.-98     	; 0x11e6 <_ZN14HardwareSerial5writeEh+0x38>

00001248 <_ZN14HardwareSerial5flushEv>:
    1248:	cf 93       	push	r28
    124a:	df 93       	push	r29
    124c:	ec 01       	movw	r28, r24
    124e:	88 8d       	ldd	r24, Y+24	; 0x18
    1250:	88 23       	and	r24, r24
    1252:	b9 f0       	breq	.+46     	; 0x1282 <_ZN14HardwareSerial5flushEv+0x3a>
    1254:	aa 89       	ldd	r26, Y+18	; 0x12
    1256:	bb 89       	ldd	r27, Y+19	; 0x13
    1258:	e8 89       	ldd	r30, Y+16	; 0x10
    125a:	f9 89       	ldd	r31, Y+17	; 0x11
    125c:	8c 91       	ld	r24, X
    125e:	85 fd       	sbrc	r24, 5
    1260:	03 c0       	rjmp	.+6      	; 0x1268 <_ZN14HardwareSerial5flushEv+0x20>
    1262:	80 81       	ld	r24, Z
    1264:	86 fd       	sbrc	r24, 6
    1266:	0d c0       	rjmp	.+26     	; 0x1282 <_ZN14HardwareSerial5flushEv+0x3a>
    1268:	0f b6       	in	r0, 0x3f	; 63
    126a:	07 fc       	sbrc	r0, 7
    126c:	f7 cf       	rjmp	.-18     	; 0x125c <_ZN14HardwareSerial5flushEv+0x14>
    126e:	8c 91       	ld	r24, X
    1270:	85 ff       	sbrs	r24, 5
    1272:	f2 cf       	rjmp	.-28     	; 0x1258 <_ZN14HardwareSerial5flushEv+0x10>
    1274:	80 81       	ld	r24, Z
    1276:	85 ff       	sbrs	r24, 5
    1278:	ed cf       	rjmp	.-38     	; 0x1254 <_ZN14HardwareSerial5flushEv+0xc>
    127a:	ce 01       	movw	r24, r28
    127c:	0e 94 b5 08 	call	0x116a	; 0x116a <_ZN14HardwareSerial17_tx_udr_empty_irqEv>
    1280:	e9 cf       	rjmp	.-46     	; 0x1254 <_ZN14HardwareSerial5flushEv+0xc>
    1282:	df 91       	pop	r29
    1284:	cf 91       	pop	r28
    1286:	08 95       	ret

00001288 <_Z17Serial0_availablev>:
    1288:	8d ef       	ldi	r24, 0xFD	; 253
    128a:	93 e0       	ldi	r25, 0x03	; 3
    128c:	0e 94 a9 08 	call	0x1152	; 0x1152 <_ZN14HardwareSerial9availableEv>
    1290:	21 e0       	ldi	r18, 0x01	; 1
    1292:	89 2b       	or	r24, r25
    1294:	09 f4       	brne	.+2      	; 0x1298 <_Z17Serial0_availablev+0x10>
    1296:	20 e0       	ldi	r18, 0x00	; 0
    1298:	82 2f       	mov	r24, r18
    129a:	08 95       	ret

0000129c <_Z14serialEventRunv>:
    129c:	80 e0       	ldi	r24, 0x00	; 0
    129e:	90 e0       	ldi	r25, 0x00	; 0
    12a0:	89 2b       	or	r24, r25
    12a2:	29 f0       	breq	.+10     	; 0x12ae <_Z14serialEventRunv+0x12>
    12a4:	0e 94 44 09 	call	0x1288	; 0x1288 <_Z17Serial0_availablev>
    12a8:	81 11       	cpse	r24, r1
    12aa:	0c 94 00 00 	jmp	0	; 0x0 <__vectors>
    12ae:	08 95       	ret

000012b0 <turnOffPWM>:
    12b0:	84 30       	cpi	r24, 0x04	; 4
    12b2:	81 f0       	breq	.+32     	; 0x12d4 <turnOffPWM+0x24>
    12b4:	28 f4       	brcc	.+10     	; 0x12c0 <turnOffPWM+0x10>
    12b6:	82 30       	cpi	r24, 0x02	; 2
    12b8:	e9 f0       	breq	.+58     	; 0x12f4 <turnOffPWM+0x44>
    12ba:	83 30       	cpi	r24, 0x03	; 3
    12bc:	f9 f0       	breq	.+62     	; 0x12fc <turnOffPWM+0x4c>
    12be:	08 95       	ret
    12c0:	88 30       	cpi	r24, 0x08	; 8
    12c2:	71 f0       	breq	.+28     	; 0x12e0 <turnOffPWM+0x30>
    12c4:	89 30       	cpi	r24, 0x09	; 9
    12c6:	91 f0       	breq	.+36     	; 0x12ec <turnOffPWM+0x3c>
    12c8:	85 30       	cpi	r24, 0x05	; 5
    12ca:	b9 f4       	brne	.+46     	; 0x12fa <turnOffPWM+0x4a>
    12cc:	80 91 80 00 	lds	r24, 0x0080	; 0x800080 <__TEXT_REGION_LENGTH__+0x7e0080>
    12d0:	8f 7d       	andi	r24, 0xDF	; 223
    12d2:	03 c0       	rjmp	.+6      	; 0x12da <turnOffPWM+0x2a>
    12d4:	80 91 80 00 	lds	r24, 0x0080	; 0x800080 <__TEXT_REGION_LENGTH__+0x7e0080>
    12d8:	8f 77       	andi	r24, 0x7F	; 127
    12da:	80 93 80 00 	sts	0x0080, r24	; 0x800080 <__TEXT_REGION_LENGTH__+0x7e0080>
    12de:	08 95       	ret
    12e0:	80 91 b0 00 	lds	r24, 0x00B0	; 0x8000b0 <__TEXT_REGION_LENGTH__+0x7e00b0>
    12e4:	8f 77       	andi	r24, 0x7F	; 127
    12e6:	80 93 b0 00 	sts	0x00B0, r24	; 0x8000b0 <__TEXT_REGION_LENGTH__+0x7e00b0>
    12ea:	08 95       	ret
    12ec:	80 91 b0 00 	lds	r24, 0x00B0	; 0x8000b0 <__TEXT_REGION_LENGTH__+0x7e00b0>
    12f0:	8f 7d       	andi	r24, 0xDF	; 223
    12f2:	f9 cf       	rjmp	.-14     	; 0x12e6 <turnOffPWM+0x36>
    12f4:	84 b5       	in	r24, 0x24	; 36
    12f6:	8f 77       	andi	r24, 0x7F	; 127
    12f8:	84 bd       	out	0x24, r24	; 36
    12fa:	08 95       	ret
    12fc:	84 b5       	in	r24, 0x24	; 36
    12fe:	8f 7d       	andi	r24, 0xDF	; 223
    1300:	fb cf       	rjmp	.-10     	; 0x12f8 <turnOffPWM+0x48>

00001302 <digitalRead>:
    1302:	cf 93       	push	r28
    1304:	df 93       	push	r29
    1306:	28 2f       	mov	r18, r24
    1308:	30 e0       	ldi	r19, 0x00	; 0
    130a:	f9 01       	movw	r30, r18
    130c:	ec 57       	subi	r30, 0x7C	; 124
    130e:	fb 4f       	sbci	r31, 0xFB	; 251
    1310:	84 91       	lpm	r24, Z
    1312:	f9 01       	movw	r30, r18
    1314:	e3 59       	subi	r30, 0x93	; 147
    1316:	fb 4f       	sbci	r31, 0xFB	; 251
    1318:	d4 91       	lpm	r29, Z
    131a:	f9 01       	movw	r30, r18
    131c:	ea 5a       	subi	r30, 0xAA	; 170
    131e:	fb 4f       	sbci	r31, 0xFB	; 251
    1320:	c4 91       	lpm	r28, Z
    1322:	cc 23       	and	r28, r28
    1324:	a1 f0       	breq	.+40     	; 0x134e <digitalRead+0x4c>
    1326:	81 11       	cpse	r24, r1
    1328:	0e 94 58 09 	call	0x12b0	; 0x12b0 <turnOffPWM>
    132c:	ec 2f       	mov	r30, r28
    132e:	f0 e0       	ldi	r31, 0x00	; 0
    1330:	ee 0f       	add	r30, r30
    1332:	ff 1f       	adc	r31, r31
    1334:	e4 5b       	subi	r30, 0xB4	; 180
    1336:	fb 4f       	sbci	r31, 0xFB	; 251
    1338:	a5 91       	lpm	r26, Z+
    133a:	b4 91       	lpm	r27, Z
    133c:	ec 91       	ld	r30, X
    133e:	ed 23       	and	r30, r29
    1340:	81 e0       	ldi	r24, 0x01	; 1
    1342:	90 e0       	ldi	r25, 0x00	; 0
    1344:	09 f4       	brne	.+2      	; 0x1348 <digitalRead+0x46>
    1346:	80 e0       	ldi	r24, 0x00	; 0
    1348:	df 91       	pop	r29
    134a:	cf 91       	pop	r28
    134c:	08 95       	ret
    134e:	80 e0       	ldi	r24, 0x00	; 0
    1350:	90 e0       	ldi	r25, 0x00	; 0
    1352:	fa cf       	rjmp	.-12     	; 0x1348 <digitalRead+0x46>

00001354 <digitalWrite>:
    1354:	1f 93       	push	r17
    1356:	cf 93       	push	r28
    1358:	df 93       	push	r29
    135a:	28 2f       	mov	r18, r24
    135c:	30 e0       	ldi	r19, 0x00	; 0
    135e:	f9 01       	movw	r30, r18
    1360:	ec 57       	subi	r30, 0x7C	; 124
    1362:	fb 4f       	sbci	r31, 0xFB	; 251
    1364:	84 91       	lpm	r24, Z
    1366:	f9 01       	movw	r30, r18
    1368:	e3 59       	subi	r30, 0x93	; 147
    136a:	fb 4f       	sbci	r31, 0xFB	; 251
    136c:	d4 91       	lpm	r29, Z
    136e:	f9 01       	movw	r30, r18
    1370:	ea 5a       	subi	r30, 0xAA	; 170
    1372:	fb 4f       	sbci	r31, 0xFB	; 251
    1374:	c4 91       	lpm	r28, Z
    1376:	cc 23       	and	r28, r28
    1378:	a9 f0       	breq	.+42     	; 0x13a4 <digitalWrite+0x50>
    137a:	16 2f       	mov	r17, r22
    137c:	81 11       	cpse	r24, r1
    137e:	0e 94 58 09 	call	0x12b0	; 0x12b0 <turnOffPWM>
    1382:	ec 2f       	mov	r30, r28
    1384:	f0 e0       	ldi	r31, 0x00	; 0
    1386:	ee 0f       	add	r30, r30
    1388:	ff 1f       	adc	r31, r31
    138a:	ee 5b       	subi	r30, 0xBE	; 190
    138c:	fb 4f       	sbci	r31, 0xFB	; 251
    138e:	a5 91       	lpm	r26, Z+
    1390:	b4 91       	lpm	r27, Z
    1392:	8f b7       	in	r24, 0x3f	; 63
    1394:	f8 94       	cli
    1396:	ec 91       	ld	r30, X
    1398:	11 11       	cpse	r17, r1
    139a:	08 c0       	rjmp	.+16     	; 0x13ac <digitalWrite+0x58>
    139c:	d0 95       	com	r29
    139e:	de 23       	and	r29, r30
    13a0:	dc 93       	st	X, r29
    13a2:	8f bf       	out	0x3f, r24	; 63
    13a4:	df 91       	pop	r29
    13a6:	cf 91       	pop	r28
    13a8:	1f 91       	pop	r17
    13aa:	08 95       	ret
    13ac:	de 2b       	or	r29, r30
    13ae:	f8 cf       	rjmp	.-16     	; 0x13a0 <digitalWrite+0x4c>

000013b0 <_ZN7TwoWire5beginEv.constprop.41>:
    13b0:	10 92 73 03 	sts	0x0373, r1	; 0x800373 <_ZN7TwoWire13rxBufferIndexE>
    13b4:	10 92 72 03 	sts	0x0372, r1	; 0x800372 <_ZN7TwoWire14rxBufferLengthE>
    13b8:	10 92 46 03 	sts	0x0346, r1	; 0x800346 <_ZN7TwoWire13txBufferIndexE>
    13bc:	10 92 68 03 	sts	0x0368, r1	; 0x800368 <_ZN7TwoWire14txBufferLengthE>
    13c0:	10 92 71 03 	sts	0x0371, r1	; 0x800371 <twi_state>
    13c4:	81 e0       	ldi	r24, 0x01	; 1
    13c6:	80 93 70 03 	sts	0x0370, r24	; 0x800370 <twi_sendStop>
    13ca:	10 92 69 03 	sts	0x0369, r1	; 0x800369 <twi_inRepStart>
    13ce:	61 e0       	ldi	r22, 0x01	; 1
    13d0:	82 e1       	ldi	r24, 0x12	; 18
    13d2:	0e 94 aa 09 	call	0x1354	; 0x1354 <digitalWrite>
    13d6:	61 e0       	ldi	r22, 0x01	; 1
    13d8:	83 e1       	ldi	r24, 0x13	; 19
    13da:	0e 94 aa 09 	call	0x1354	; 0x1354 <digitalWrite>
    13de:	e9 eb       	ldi	r30, 0xB9	; 185
    13e0:	f0 e0       	ldi	r31, 0x00	; 0
    13e2:	80 81       	ld	r24, Z
    13e4:	8e 7f       	andi	r24, 0xFE	; 254
    13e6:	80 83       	st	Z, r24
    13e8:	80 81       	ld	r24, Z
    13ea:	8d 7f       	andi	r24, 0xFD	; 253
    13ec:	80 83       	st	Z, r24
    13ee:	88 e4       	ldi	r24, 0x48	; 72
    13f0:	80 93 b8 00 	sts	0x00B8, r24	; 0x8000b8 <__TEXT_REGION_LENGTH__+0x7e00b8>
    13f4:	85 e4       	ldi	r24, 0x45	; 69
    13f6:	80 93 bc 00 	sts	0x00BC, r24	; 0x8000bc <__TEXT_REGION_LENGTH__+0x7e00bc>
    13fa:	8b ea       	ldi	r24, 0xAB	; 171
    13fc:	97 e0       	ldi	r25, 0x07	; 7
    13fe:	90 93 40 03 	sts	0x0340, r25	; 0x800340 <twi_onSlaveTransmit+0x1>
    1402:	80 93 3f 03 	sts	0x033F, r24	; 0x80033f <twi_onSlaveTransmit>
    1406:	8c ea       	ldi	r24, 0xAC	; 172
    1408:	97 e0       	ldi	r25, 0x07	; 7
    140a:	90 93 3e 03 	sts	0x033E, r25	; 0x80033e <twi_onSlaveReceive+0x1>
    140e:	80 93 3d 03 	sts	0x033D, r24	; 0x80033d <twi_onSlaveReceive>
    1412:	08 95       	ret

00001414 <pinMode>:
    1414:	cf 93       	push	r28
    1416:	df 93       	push	r29
    1418:	90 e0       	ldi	r25, 0x00	; 0
    141a:	fc 01       	movw	r30, r24
    141c:	e3 59       	subi	r30, 0x93	; 147
    141e:	fb 4f       	sbci	r31, 0xFB	; 251
    1420:	24 91       	lpm	r18, Z
    1422:	8a 5a       	subi	r24, 0xAA	; 170
    1424:	9b 4f       	sbci	r25, 0xFB	; 251
    1426:	fc 01       	movw	r30, r24
    1428:	84 91       	lpm	r24, Z
    142a:	88 23       	and	r24, r24
    142c:	c9 f0       	breq	.+50     	; 0x1460 <pinMode+0x4c>
    142e:	90 e0       	ldi	r25, 0x00	; 0
    1430:	88 0f       	add	r24, r24
    1432:	99 1f       	adc	r25, r25
    1434:	fc 01       	movw	r30, r24
    1436:	e8 5c       	subi	r30, 0xC8	; 200
    1438:	fb 4f       	sbci	r31, 0xFB	; 251
    143a:	a5 91       	lpm	r26, Z+
    143c:	b4 91       	lpm	r27, Z
    143e:	fc 01       	movw	r30, r24
    1440:	ee 5b       	subi	r30, 0xBE	; 190
    1442:	fb 4f       	sbci	r31, 0xFB	; 251
    1444:	c5 91       	lpm	r28, Z+
    1446:	d4 91       	lpm	r29, Z
    1448:	61 11       	cpse	r22, r1
    144a:	0d c0       	rjmp	.+26     	; 0x1466 <pinMode+0x52>
    144c:	9f b7       	in	r25, 0x3f	; 63
    144e:	f8 94       	cli
    1450:	8c 91       	ld	r24, X
    1452:	20 95       	com	r18
    1454:	82 23       	and	r24, r18
    1456:	8c 93       	st	X, r24
    1458:	88 81       	ld	r24, Y
    145a:	28 23       	and	r18, r24
    145c:	28 83       	st	Y, r18
    145e:	9f bf       	out	0x3f, r25	; 63
    1460:	df 91       	pop	r29
    1462:	cf 91       	pop	r28
    1464:	08 95       	ret
    1466:	62 30       	cpi	r22, 0x02	; 2
    1468:	51 f4       	brne	.+20     	; 0x147e <pinMode+0x6a>
    146a:	9f b7       	in	r25, 0x3f	; 63
    146c:	f8 94       	cli
    146e:	3c 91       	ld	r19, X
    1470:	82 2f       	mov	r24, r18
    1472:	80 95       	com	r24
    1474:	83 23       	and	r24, r19
    1476:	8c 93       	st	X, r24
    1478:	e8 81       	ld	r30, Y
    147a:	2e 2b       	or	r18, r30
    147c:	ef cf       	rjmp	.-34     	; 0x145c <pinMode+0x48>
    147e:	8f b7       	in	r24, 0x3f	; 63
    1480:	f8 94       	cli
    1482:	ec 91       	ld	r30, X
    1484:	2e 2b       	or	r18, r30
    1486:	2c 93       	st	X, r18
    1488:	8f bf       	out	0x3f, r24	; 63
    148a:	ea cf       	rjmp	.-44     	; 0x1460 <pinMode+0x4c>

0000148c <analogWrite.constprop.33>:
    148c:	cf 93       	push	r28
    148e:	df 93       	push	r29
    1490:	ec 01       	movw	r28, r24
    1492:	61 e0       	ldi	r22, 0x01	; 1
    1494:	8b e0       	ldi	r24, 0x0B	; 11
    1496:	0e 94 0a 0a 	call	0x1414	; 0x1414 <pinMode>
    149a:	20 97       	sbiw	r28, 0x00	; 0
    149c:	31 f4       	brne	.+12     	; 0x14aa <analogWrite.constprop.33+0x1e>
    149e:	60 e0       	ldi	r22, 0x00	; 0
    14a0:	8b e0       	ldi	r24, 0x0B	; 11
    14a2:	df 91       	pop	r29
    14a4:	cf 91       	pop	r28
    14a6:	0c 94 aa 09 	jmp	0x1354	; 0x1354 <digitalWrite>
    14aa:	cf 3f       	cpi	r28, 0xFF	; 255
    14ac:	d1 05       	cpc	r29, r1
    14ae:	11 f4       	brne	.+4      	; 0x14b4 <analogWrite.constprop.33+0x28>
    14b0:	61 e0       	ldi	r22, 0x01	; 1
    14b2:	f6 cf       	rjmp	.-20     	; 0x14a0 <analogWrite.constprop.33+0x14>
    14b4:	ef e8       	ldi	r30, 0x8F	; 143
    14b6:	f4 e0       	ldi	r31, 0x04	; 4
    14b8:	e4 91       	lpm	r30, Z
    14ba:	e4 30       	cpi	r30, 0x04	; 4
    14bc:	29 f1       	breq	.+74     	; 0x1508 <analogWrite.constprop.33+0x7c>
    14be:	40 f4       	brcc	.+16     	; 0x14d0 <analogWrite.constprop.33+0x44>
    14c0:	e2 30       	cpi	r30, 0x02	; 2
    14c2:	b1 f0       	breq	.+44     	; 0x14f0 <analogWrite.constprop.33+0x64>
    14c4:	e3 30       	cpi	r30, 0x03	; 3
    14c6:	d9 f0       	breq	.+54     	; 0x14fe <analogWrite.constprop.33+0x72>
    14c8:	c0 38       	cpi	r28, 0x80	; 128
    14ca:	d1 05       	cpc	r29, r1
    14cc:	8c f7       	brge	.-30     	; 0x14b0 <analogWrite.constprop.33+0x24>
    14ce:	e7 cf       	rjmp	.-50     	; 0x149e <analogWrite.constprop.33+0x12>
    14d0:	e8 30       	cpi	r30, 0x08	; 8
    14d2:	21 f1       	breq	.+72     	; 0x151c <analogWrite.constprop.33+0x90>
    14d4:	e9 30       	cpi	r30, 0x09	; 9
    14d6:	51 f1       	breq	.+84     	; 0x152c <analogWrite.constprop.33+0xa0>
    14d8:	e5 30       	cpi	r30, 0x05	; 5
    14da:	b1 f7       	brne	.-20     	; 0x14c8 <analogWrite.constprop.33+0x3c>
    14dc:	80 91 80 00 	lds	r24, 0x0080	; 0x800080 <__TEXT_REGION_LENGTH__+0x7e0080>
    14e0:	80 62       	ori	r24, 0x20	; 32
    14e2:	80 93 80 00 	sts	0x0080, r24	; 0x800080 <__TEXT_REGION_LENGTH__+0x7e0080>
    14e6:	d0 93 8b 00 	sts	0x008B, r29	; 0x80008b <__TEXT_REGION_LENGTH__+0x7e008b>
    14ea:	c0 93 8a 00 	sts	0x008A, r28	; 0x80008a <__TEXT_REGION_LENGTH__+0x7e008a>
    14ee:	04 c0       	rjmp	.+8      	; 0x14f8 <analogWrite.constprop.33+0x6c>
    14f0:	84 b5       	in	r24, 0x24	; 36
    14f2:	80 68       	ori	r24, 0x80	; 128
    14f4:	84 bd       	out	0x24, r24	; 36
    14f6:	c7 bd       	out	0x27, r28	; 39
    14f8:	df 91       	pop	r29
    14fa:	cf 91       	pop	r28
    14fc:	08 95       	ret
    14fe:	84 b5       	in	r24, 0x24	; 36
    1500:	80 62       	ori	r24, 0x20	; 32
    1502:	84 bd       	out	0x24, r24	; 36
    1504:	c8 bd       	out	0x28, r28	; 40
    1506:	f8 cf       	rjmp	.-16     	; 0x14f8 <analogWrite.constprop.33+0x6c>
    1508:	80 91 80 00 	lds	r24, 0x0080	; 0x800080 <__TEXT_REGION_LENGTH__+0x7e0080>
    150c:	80 68       	ori	r24, 0x80	; 128
    150e:	80 93 80 00 	sts	0x0080, r24	; 0x800080 <__TEXT_REGION_LENGTH__+0x7e0080>
    1512:	d0 93 89 00 	sts	0x0089, r29	; 0x800089 <__TEXT_REGION_LENGTH__+0x7e0089>
    1516:	c0 93 88 00 	sts	0x0088, r28	; 0x800088 <__TEXT_REGION_LENGTH__+0x7e0088>
    151a:	ee cf       	rjmp	.-36     	; 0x14f8 <analogWrite.constprop.33+0x6c>
    151c:	80 91 b0 00 	lds	r24, 0x00B0	; 0x8000b0 <__TEXT_REGION_LENGTH__+0x7e00b0>
    1520:	80 68       	ori	r24, 0x80	; 128
    1522:	80 93 b0 00 	sts	0x00B0, r24	; 0x8000b0 <__TEXT_REGION_LENGTH__+0x7e00b0>
    1526:	c0 93 b3 00 	sts	0x00B3, r28	; 0x8000b3 <__TEXT_REGION_LENGTH__+0x7e00b3>
    152a:	e6 cf       	rjmp	.-52     	; 0x14f8 <analogWrite.constprop.33+0x6c>
    152c:	80 91 b0 00 	lds	r24, 0x00B0	; 0x8000b0 <__TEXT_REGION_LENGTH__+0x7e00b0>
    1530:	80 62       	ori	r24, 0x20	; 32
    1532:	80 93 b0 00 	sts	0x00B0, r24	; 0x8000b0 <__TEXT_REGION_LENGTH__+0x7e00b0>
    1536:	c0 93 b4 00 	sts	0x00B4, r28	; 0x8000b4 <__TEXT_REGION_LENGTH__+0x7e00b4>
    153a:	de cf       	rjmp	.-68     	; 0x14f8 <analogWrite.constprop.33+0x6c>

0000153c <analogRead>:
    153c:	88 30       	cpi	r24, 0x08	; 8
    153e:	20 f0       	brcs	.+8      	; 0x1548 <analogRead+0xc>
    1540:	8d 30       	cpi	r24, 0x0D	; 13
    1542:	08 f4       	brcc	.+2      	; 0x1546 <analogRead+0xa>
    1544:	8d e0       	ldi	r24, 0x0D	; 13
    1546:	8e 50       	subi	r24, 0x0E	; 14
    1548:	87 70       	andi	r24, 0x07	; 7
    154a:	80 64       	ori	r24, 0x40	; 64
    154c:	80 93 7c 00 	sts	0x007C, r24	; 0x80007c <__TEXT_REGION_LENGTH__+0x7e007c>
    1550:	80 91 7a 00 	lds	r24, 0x007A	; 0x80007a <__TEXT_REGION_LENGTH__+0x7e007a>
    1554:	80 64       	ori	r24, 0x40	; 64
    1556:	80 93 7a 00 	sts	0x007A, r24	; 0x80007a <__TEXT_REGION_LENGTH__+0x7e007a>
    155a:	80 91 7a 00 	lds	r24, 0x007A	; 0x80007a <__TEXT_REGION_LENGTH__+0x7e007a>
    155e:	86 fd       	sbrc	r24, 6
    1560:	fc cf       	rjmp	.-8      	; 0x155a <analogRead+0x1e>
    1562:	80 91 78 00 	lds	r24, 0x0078	; 0x800078 <__TEXT_REGION_LENGTH__+0x7e0078>
    1566:	90 91 79 00 	lds	r25, 0x0079	; 0x800079 <__TEXT_REGION_LENGTH__+0x7e0079>
    156a:	08 95       	ret

0000156c <delayMicroseconds>:
    156c:	88 0f       	add	r24, r24
    156e:	99 1f       	adc	r25, r25
    1570:	88 0f       	add	r24, r24
    1572:	99 1f       	adc	r25, r25
    1574:	05 97       	sbiw	r24, 0x05	; 5
    1576:	01 97       	sbiw	r24, 0x01	; 1
    1578:	f1 f7       	brne	.-4      	; 0x1576 <delayMicroseconds+0xa>
    157a:	08 95       	ret

0000157c <micros>:
    157c:	3f b7       	in	r19, 0x3f	; 63
    157e:	f8 94       	cli
    1580:	80 91 f6 02 	lds	r24, 0x02F6	; 0x8002f6 <timer0_overflow_count>
    1584:	90 91 f7 02 	lds	r25, 0x02F7	; 0x8002f7 <timer0_overflow_count+0x1>
    1588:	a0 91 f8 02 	lds	r26, 0x02F8	; 0x8002f8 <timer0_overflow_count+0x2>
    158c:	b0 91 f9 02 	lds	r27, 0x02F9	; 0x8002f9 <timer0_overflow_count+0x3>
    1590:	26 b5       	in	r18, 0x26	; 38
    1592:	a8 9b       	sbis	0x15, 0	; 21
    1594:	05 c0       	rjmp	.+10     	; 0x15a0 <micros+0x24>
    1596:	2f 3f       	cpi	r18, 0xFF	; 255
    1598:	19 f0       	breq	.+6      	; 0x15a0 <micros+0x24>
    159a:	01 96       	adiw	r24, 0x01	; 1
    159c:	a1 1d       	adc	r26, r1
    159e:	b1 1d       	adc	r27, r1
    15a0:	3f bf       	out	0x3f, r19	; 63
    15a2:	ba 2f       	mov	r27, r26
    15a4:	a9 2f       	mov	r26, r25
    15a6:	98 2f       	mov	r25, r24
    15a8:	88 27       	eor	r24, r24
    15aa:	bc 01       	movw	r22, r24
    15ac:	cd 01       	movw	r24, r26
    15ae:	62 0f       	add	r22, r18
    15b0:	71 1d       	adc	r23, r1
    15b2:	81 1d       	adc	r24, r1
    15b4:	91 1d       	adc	r25, r1
    15b6:	42 e0       	ldi	r20, 0x02	; 2
    15b8:	66 0f       	add	r22, r22
    15ba:	77 1f       	adc	r23, r23
    15bc:	88 1f       	adc	r24, r24
    15be:	99 1f       	adc	r25, r25
    15c0:	4a 95       	dec	r20
    15c2:	d1 f7       	brne	.-12     	; 0x15b8 <micros+0x3c>
    15c4:	08 95       	ret

000015c6 <delay>:
    15c6:	8f 92       	push	r8
    15c8:	9f 92       	push	r9
    15ca:	af 92       	push	r10
    15cc:	bf 92       	push	r11
    15ce:	cf 92       	push	r12
    15d0:	df 92       	push	r13
    15d2:	ef 92       	push	r14
    15d4:	ff 92       	push	r15
    15d6:	6b 01       	movw	r12, r22
    15d8:	7c 01       	movw	r14, r24
    15da:	0e 94 be 0a 	call	0x157c	; 0x157c <micros>
    15de:	4b 01       	movw	r8, r22
    15e0:	5c 01       	movw	r10, r24
    15e2:	c1 14       	cp	r12, r1
    15e4:	d1 04       	cpc	r13, r1
    15e6:	e1 04       	cpc	r14, r1
    15e8:	f1 04       	cpc	r15, r1
    15ea:	b9 f0       	breq	.+46     	; 0x161a <delay+0x54>
    15ec:	0e 94 be 0a 	call	0x157c	; 0x157c <micros>
    15f0:	68 19       	sub	r22, r8
    15f2:	79 09       	sbc	r23, r9
    15f4:	8a 09       	sbc	r24, r10
    15f6:	9b 09       	sbc	r25, r11
    15f8:	68 3e       	cpi	r22, 0xE8	; 232
    15fa:	73 40       	sbci	r23, 0x03	; 3
    15fc:	81 05       	cpc	r24, r1
    15fe:	91 05       	cpc	r25, r1
    1600:	80 f3       	brcs	.-32     	; 0x15e2 <delay+0x1c>
    1602:	21 e0       	ldi	r18, 0x01	; 1
    1604:	c2 1a       	sub	r12, r18
    1606:	d1 08       	sbc	r13, r1
    1608:	e1 08       	sbc	r14, r1
    160a:	f1 08       	sbc	r15, r1
    160c:	88 ee       	ldi	r24, 0xE8	; 232
    160e:	88 0e       	add	r8, r24
    1610:	83 e0       	ldi	r24, 0x03	; 3
    1612:	98 1e       	adc	r9, r24
    1614:	a1 1c       	adc	r10, r1
    1616:	b1 1c       	adc	r11, r1
    1618:	e4 cf       	rjmp	.-56     	; 0x15e2 <delay+0x1c>
    161a:	ff 90       	pop	r15
    161c:	ef 90       	pop	r14
    161e:	df 90       	pop	r13
    1620:	cf 90       	pop	r12
    1622:	bf 90       	pop	r11
    1624:	af 90       	pop	r10
    1626:	9f 90       	pop	r9
    1628:	8f 90       	pop	r8
    162a:	08 95       	ret

0000162c <millis>:
    162c:	2f b7       	in	r18, 0x3f	; 63
    162e:	f8 94       	cli
    1630:	60 91 f2 02 	lds	r22, 0x02F2	; 0x8002f2 <timer0_millis>
    1634:	70 91 f3 02 	lds	r23, 0x02F3	; 0x8002f3 <timer0_millis+0x1>
    1638:	80 91 f4 02 	lds	r24, 0x02F4	; 0x8002f4 <timer0_millis+0x2>
    163c:	90 91 f5 02 	lds	r25, 0x02F5	; 0x8002f5 <timer0_millis+0x3>
    1640:	2f bf       	out	0x3f, r18	; 63
    1642:	08 95       	ret

00001644 <_ZN13VirtEncButton7tickISREa.constprop.126>:
    1644:	1f 93       	push	r17
    1646:	cf 93       	push	r28
    1648:	df 93       	push	r29
    164a:	0e 94 42 06 	call	0xc84	; 0xc84 <_ZN11VirtEncoder7pollEncEa.constprop.131>
    164e:	18 2f       	mov	r17, r24
    1650:	88 23       	and	r24, r24
    1652:	89 f1       	breq	.+98     	; 0x16b6 <_ZN13VirtEncButton7tickISREa.constprop.126+0x72>
    1654:	20 91 d5 05 	lds	r18, 0x05D5	; 0x8005d5 <enc+0x14>
    1658:	30 91 d6 05 	lds	r19, 0x05D6	; 0x8005d6 <enc+0x15>
    165c:	d0 e0       	ldi	r29, 0x00	; 0
    165e:	c0 e0       	ldi	r28, 0x00	; 0
    1660:	81 e0       	ldi	r24, 0x01	; 1
    1662:	90 e0       	ldi	r25, 0x00	; 0
    1664:	ac 01       	movw	r20, r24
    1666:	0c 2e       	mov	r0, r28
    1668:	02 c0       	rjmp	.+4      	; 0x166e <_ZN13VirtEncButton7tickISREa.constprop.126+0x2a>
    166a:	44 0f       	add	r20, r20
    166c:	55 1f       	adc	r21, r21
    166e:	0a 94       	dec	r0
    1670:	e2 f7       	brpl	.-8      	; 0x166a <_ZN13VirtEncButton7tickISREa.constprop.126+0x26>
    1672:	b9 01       	movw	r22, r18
    1674:	64 23       	and	r22, r20
    1676:	75 23       	and	r23, r21
    1678:	67 2b       	or	r22, r23
    167a:	09 f0       	breq	.+2      	; 0x167e <_ZN13VirtEncButton7tickISREa.constprop.126+0x3a>
    167c:	43 c0       	rjmp	.+134    	; 0x1704 <_ZN13VirtEncButton7tickISREa.constprop.126+0xc0>
    167e:	24 2b       	or	r18, r20
    1680:	35 2b       	or	r19, r21
    1682:	11 16       	cp	r1, r17
    1684:	ec f0       	brlt	.+58     	; 0x16c0 <_ZN13VirtEncButton7tickISREa.constprop.126+0x7c>
    1686:	30 93 d6 05 	sts	0x05D6, r19	; 0x8005d6 <enc+0x15>
    168a:	20 93 d5 05 	sts	0x05D5, r18	; 0x8005d5 <enc+0x14>
    168e:	0e 94 16 0b 	call	0x162c	; 0x162c <millis>
    1692:	20 91 c2 05 	lds	r18, 0x05C2	; 0x8005c2 <enc+0x1>
    1696:	30 91 c3 05 	lds	r19, 0x05C3	; 0x8005c3 <enc+0x2>
    169a:	ab 01       	movw	r20, r22
    169c:	42 1b       	sub	r20, r18
    169e:	53 0b       	sbc	r21, r19
    16a0:	9a 01       	movw	r18, r20
    16a2:	40 91 d4 05 	lds	r20, 0x05D4	; 0x8005d4 <enc+0x13>
    16a6:	70 93 c3 05 	sts	0x05C3, r23	; 0x8005c3 <enc+0x2>
    16aa:	60 93 c2 05 	sts	0x05C2, r22	; 0x8005c2 <enc+0x1>
    16ae:	42 17       	cp	r20, r18
    16b0:	13 06       	cpc	r1, r19
    16b2:	09 f0       	breq	.+2      	; 0x16b6 <_ZN13VirtEncButton7tickISREa.constprop.126+0x72>
    16b4:	a0 f4       	brcc	.+40     	; 0x16de <_ZN13VirtEncButton7tickISREa.constprop.126+0x9a>
    16b6:	81 2f       	mov	r24, r17
    16b8:	df 91       	pop	r29
    16ba:	cf 91       	pop	r28
    16bc:	1f 91       	pop	r17
    16be:	08 95       	ret
    16c0:	ae 01       	movw	r20, r28
    16c2:	4f 5f       	subi	r20, 0xFF	; 255
    16c4:	5f 4f       	sbci	r21, 0xFF	; 255
    16c6:	02 c0       	rjmp	.+4      	; 0x16cc <_ZN13VirtEncButton7tickISREa.constprop.126+0x88>
    16c8:	88 0f       	add	r24, r24
    16ca:	99 1f       	adc	r25, r25
    16cc:	4a 95       	dec	r20
    16ce:	e2 f7       	brpl	.-8      	; 0x16c8 <_ZN13VirtEncButton7tickISREa.constprop.126+0x84>
    16d0:	82 2b       	or	r24, r18
    16d2:	93 2b       	or	r25, r19
    16d4:	90 93 d6 05 	sts	0x05D6, r25	; 0x8005d6 <enc+0x15>
    16d8:	80 93 d5 05 	sts	0x05D5, r24	; 0x8005d5 <enc+0x14>
    16dc:	d8 cf       	rjmp	.-80     	; 0x168e <_ZN13VirtEncButton7tickISREa.constprop.126+0x4a>
    16de:	22 96       	adiw	r28, 0x02	; 2
    16e0:	81 e0       	ldi	r24, 0x01	; 1
    16e2:	90 e0       	ldi	r25, 0x00	; 0
    16e4:	02 c0       	rjmp	.+4      	; 0x16ea <_ZN13VirtEncButton7tickISREa.constprop.126+0xa6>
    16e6:	88 0f       	add	r24, r24
    16e8:	99 1f       	adc	r25, r25
    16ea:	ca 95       	dec	r28
    16ec:	e2 f7       	brpl	.-8      	; 0x16e6 <_ZN13VirtEncButton7tickISREa.constprop.126+0xa2>
    16ee:	20 91 d5 05 	lds	r18, 0x05D5	; 0x8005d5 <enc+0x14>
    16f2:	30 91 d6 05 	lds	r19, 0x05D6	; 0x8005d6 <enc+0x15>
    16f6:	82 2b       	or	r24, r18
    16f8:	93 2b       	or	r25, r19
    16fa:	90 93 d6 05 	sts	0x05D6, r25	; 0x8005d6 <enc+0x15>
    16fe:	80 93 d5 05 	sts	0x05D5, r24	; 0x8005d5 <enc+0x14>
    1702:	d9 cf       	rjmp	.-78     	; 0x16b6 <_ZN13VirtEncButton7tickISREa.constprop.126+0x72>
    1704:	23 96       	adiw	r28, 0x03	; 3
    1706:	cf 30       	cpi	r28, 0x0F	; 15
    1708:	d1 05       	cpc	r29, r1
    170a:	09 f0       	breq	.+2      	; 0x170e <_ZN13VirtEncButton7tickISREa.constprop.126+0xca>
    170c:	ab cf       	rjmp	.-170    	; 0x1664 <_ZN13VirtEncButton7tickISREa.constprop.126+0x20>
    170e:	d3 cf       	rjmp	.-90     	; 0x16b6 <_ZN13VirtEncButton7tickISREa.constprop.126+0x72>

00001710 <_ZN13VirtEncButton4tickEab.constprop.124>:
    1710:	cf 93       	push	r28
    1712:	df 93       	push	r29
    1714:	d8 2f       	mov	r29, r24
    1716:	80 91 cc 05 	lds	r24, 0x05CC	; 0x8005cc <enc+0xb>
    171a:	90 91 cd 05 	lds	r25, 0x05CD	; 0x8005cd <enc+0xc>
    171e:	80 fd       	sbrc	r24, 0
    1720:	10 92 c1 05 	sts	0x05C1, r1	; 0x8005c1 <enc>
    1724:	9c 01       	movw	r18, r24
    1726:	2f 71       	andi	r18, 0x1F	; 31
    1728:	33 27       	eor	r19, r19
    172a:	23 2b       	or	r18, r19
    172c:	29 f0       	breq	.+10     	; 0x1738 <_ZN13VirtEncButton4tickEab.constprop.124+0x28>
    172e:	80 7e       	andi	r24, 0xE0	; 224
    1730:	90 93 cd 05 	sts	0x05CD, r25	; 0x8005cd <enc+0xc>
    1734:	80 93 cc 05 	sts	0x05CC, r24	; 0x8005cc <enc+0xb>
    1738:	80 91 d2 05 	lds	r24, 0x05D2	; 0x8005d2 <enc+0x11>
    173c:	85 ff       	sbrs	r24, 5
    173e:	03 c0       	rjmp	.+6      	; 0x1746 <_ZN13VirtEncButton4tickEab.constprop.124+0x36>
    1740:	8f 7d       	andi	r24, 0xDF	; 223
    1742:	80 93 d2 05 	sts	0x05D2, r24	; 0x8005d2 <enc+0x11>
    1746:	80 91 cc 05 	lds	r24, 0x05CC	; 0x8005cc <enc+0xb>
    174a:	90 91 cd 05 	lds	r25, 0x05CD	; 0x8005cd <enc+0xc>
    174e:	94 fb       	bst	r25, 4
    1750:	cc 27       	eor	r28, r28
    1752:	c0 f9       	bld	r28, 0
    1754:	c6 27       	eor	r28, r22
    1756:	96 ff       	sbrs	r25, 6
    1758:	06 c0       	rjmp	.+12     	; 0x1766 <_ZN13VirtEncButton4tickEab.constprop.124+0x56>
    175a:	9f 7b       	andi	r25, 0xBF	; 191
    175c:	90 93 cd 05 	sts	0x05CD, r25	; 0x8005cd <enc+0xc>
    1760:	80 93 cc 05 	sts	0x05CC, r24	; 0x8005cc <enc+0xb>
    1764:	c1 e0       	ldi	r28, 0x01	; 1
    1766:	80 91 cc 05 	lds	r24, 0x05CC	; 0x8005cc <enc+0xb>
    176a:	90 91 cd 05 	lds	r25, 0x05CD	; 0x8005cd <enc+0xc>
    176e:	91 fd       	sbrc	r25, 1
    1770:	08 c0       	rjmp	.+16     	; 0x1782 <_ZN13VirtEncButton4tickEab.constprop.124+0x72>
    1772:	cc 23       	and	r28, r28
    1774:	09 f4       	brne	.+2      	; 0x1778 <_ZN13VirtEncButton4tickEab.constprop.124+0x68>
    1776:	40 c0       	rjmp	.+128    	; 0x17f8 <_ZN13VirtEncButton4tickEab.constprop.124+0xe8>
    1778:	92 60       	ori	r25, 0x02	; 2
    177a:	90 93 cd 05 	sts	0x05CD, r25	; 0x8005cd <enc+0xc>
    177e:	80 93 cc 05 	sts	0x05CC, r24	; 0x8005cc <enc+0xb>
    1782:	0e 94 16 0b 	call	0x162c	; 0x162c <millis>
    1786:	20 91 c2 05 	lds	r18, 0x05C2	; 0x8005c2 <enc+0x1>
    178a:	30 91 c3 05 	lds	r19, 0x05C3	; 0x8005c3 <enc+0x2>
    178e:	fb 01       	movw	r30, r22
    1790:	e2 1b       	sub	r30, r18
    1792:	f3 0b       	sbc	r31, r19
    1794:	20 91 cc 05 	lds	r18, 0x05CC	; 0x8005cc <enc+0xb>
    1798:	30 91 cd 05 	lds	r19, 0x05CD	; 0x8005cd <enc+0xc>
    179c:	cc 23       	and	r28, r28
    179e:	09 f4       	brne	.+2      	; 0x17a2 <_ZN13VirtEncButton4tickEab.constprop.124+0x92>
    17a0:	85 c0       	rjmp	.+266    	; 0x18ac <_ZN13VirtEncButton4tickEab.constprop.124+0x19c>
    17a2:	25 fd       	sbrc	r18, 5
    17a4:	64 c0       	rjmp	.+200    	; 0x186e <_ZN13VirtEncButton4tickEab.constprop.124+0x15e>
    17a6:	40 91 c8 05 	lds	r20, 0x05C8	; 0x8005c8 <enc+0x7>
    17aa:	32 fd       	sbrc	r19, 2
    17ac:	08 c0       	rjmp	.+16     	; 0x17be <_ZN13VirtEncButton4tickEab.constprop.124+0xae>
    17ae:	44 23       	and	r20, r20
    17b0:	31 f0       	breq	.+12     	; 0x17be <_ZN13VirtEncButton4tickEab.constprop.124+0xae>
    17b2:	34 60       	ori	r19, 0x04	; 4
    17b4:	30 93 cd 05 	sts	0x05CD, r19	; 0x8005cd <enc+0xc>
    17b8:	20 93 cc 05 	sts	0x05CC, r18	; 0x8005cc <enc+0xb>
    17bc:	0f c0       	rjmp	.+30     	; 0x17dc <_ZN13VirtEncButton4tickEab.constprop.124+0xcc>
    17be:	4e 17       	cp	r20, r30
    17c0:	1f 06       	cpc	r1, r31
    17c2:	19 f0       	breq	.+6      	; 0x17ca <_ZN13VirtEncButton4tickEab.constprop.124+0xba>
    17c4:	10 f0       	brcs	.+4      	; 0x17ca <_ZN13VirtEncButton4tickEab.constprop.124+0xba>
    17c6:	41 11       	cpse	r20, r1
    17c8:	0d c0       	rjmp	.+26     	; 0x17e4 <_ZN13VirtEncButton4tickEab.constprop.124+0xd4>
    17ca:	22 62       	ori	r18, 0x22	; 34
    17cc:	30 93 cd 05 	sts	0x05CD, r19	; 0x8005cd <enc+0xc>
    17d0:	20 93 cc 05 	sts	0x05CC, r18	; 0x8005cc <enc+0xb>
    17d4:	70 93 c5 05 	sts	0x05C5, r23	; 0x8005c5 <enc+0x4>
    17d8:	60 93 c4 05 	sts	0x05C4, r22	; 0x8005c4 <enc+0x3>
    17dc:	70 93 c3 05 	sts	0x05C3, r23	; 0x8005c3 <enc+0x2>
    17e0:	60 93 c2 05 	sts	0x05C2, r22	; 0x8005c2 <enc+0x1>
    17e4:	80 91 cc 05 	lds	r24, 0x05CC	; 0x8005cc <enc+0xb>
    17e8:	90 91 cd 05 	lds	r25, 0x05CD	; 0x8005cd <enc+0xc>
    17ec:	8f 71       	andi	r24, 0x1F	; 31
    17ee:	99 27       	eor	r25, r25
    17f0:	c1 e0       	ldi	r28, 0x01	; 1
    17f2:	89 2b       	or	r24, r25
    17f4:	09 f4       	brne	.+2      	; 0x17f8 <_ZN13VirtEncButton4tickEab.constprop.124+0xe8>
    17f6:	c0 e0       	ldi	r28, 0x00	; 0
    17f8:	80 91 d5 05 	lds	r24, 0x05D5	; 0x8005d5 <enc+0x14>
    17fc:	90 91 d6 05 	lds	r25, 0x05D6	; 0x8005d6 <enc+0x15>
    1800:	00 97       	sbiw	r24, 0x00	; 0
    1802:	09 f4       	brne	.+2      	; 0x1806 <_ZN13VirtEncButton4tickEab.constprop.124+0xf6>
    1804:	c2 c0       	rjmp	.+388    	; 0x198a <_ZN13VirtEncButton4tickEab.constprop.124+0x27a>
    1806:	20 91 d2 05 	lds	r18, 0x05D2	; 0x8005d2 <enc+0x11>
    180a:	81 ff       	sbrs	r24, 1
    180c:	ba c0       	rjmp	.+372    	; 0x1982 <_ZN13VirtEncButton4tickEab.constprop.124+0x272>
    180e:	20 61       	ori	r18, 0x10	; 16
    1810:	20 93 d2 05 	sts	0x05D2, r18	; 0x8005d2 <enc+0x11>
    1814:	20 91 d2 05 	lds	r18, 0x05D2	; 0x8005d2 <enc+0x11>
    1818:	82 ff       	sbrs	r24, 2
    181a:	b5 c0       	rjmp	.+362    	; 0x1986 <_ZN13VirtEncButton4tickEab.constprop.124+0x276>
    181c:	28 60       	ori	r18, 0x08	; 8
    181e:	20 93 d2 05 	sts	0x05D2, r18	; 0x8005d2 <enc+0x11>
    1822:	23 e0       	ldi	r18, 0x03	; 3
    1824:	96 95       	lsr	r25
    1826:	87 95       	ror	r24
    1828:	2a 95       	dec	r18
    182a:	e1 f7       	brne	.-8      	; 0x1824 <_ZN13VirtEncButton4tickEab.constprop.124+0x114>
    182c:	90 93 d6 05 	sts	0x05D6, r25	; 0x8005d6 <enc+0x15>
    1830:	80 93 d5 05 	sts	0x05D5, r24	; 0x8005d5 <enc+0x14>
    1834:	80 91 cc 05 	lds	r24, 0x05CC	; 0x8005cc <enc+0xb>
    1838:	90 91 cd 05 	lds	r25, 0x05CD	; 0x8005cd <enc+0xc>
    183c:	85 ff       	sbrs	r24, 5
    183e:	e0 c0       	rjmp	.+448    	; 0x1a00 <_ZN13VirtEncButton4tickEab.constprop.124+0x2f0>
    1840:	90 68       	ori	r25, 0x80	; 128
    1842:	90 93 cd 05 	sts	0x05CD, r25	; 0x8005cd <enc+0xc>
    1846:	80 93 cc 05 	sts	0x05CC, r24	; 0x8005cc <enc+0xb>
    184a:	80 91 cc 05 	lds	r24, 0x05CC	; 0x8005cc <enc+0xb>
    184e:	90 91 cd 05 	lds	r25, 0x05CD	; 0x8005cd <enc+0xc>
    1852:	93 fd       	sbrc	r25, 3
    1854:	05 c0       	rjmp	.+10     	; 0x1860 <_ZN13VirtEncButton4tickEab.constprop.124+0x150>
    1856:	98 60       	ori	r25, 0x08	; 8
    1858:	90 93 cd 05 	sts	0x05CD, r25	; 0x8005cd <enc+0xc>
    185c:	80 93 cc 05 	sts	0x05CC, r24	; 0x8005cc <enc+0xb>
    1860:	80 91 d2 05 	lds	r24, 0x05D2	; 0x8005d2 <enc+0x11>
    1864:	80 62       	ori	r24, 0x20	; 32
    1866:	80 93 d2 05 	sts	0x05D2, r24	; 0x8005d2 <enc+0x11>
    186a:	61 e0       	ldi	r22, 0x01	; 1
    186c:	91 c0       	rjmp	.+290    	; 0x1990 <_ZN13VirtEncButton4tickEab.constprop.124+0x280>
    186e:	37 fd       	sbrc	r19, 7
    1870:	b9 cf       	rjmp	.-142    	; 0x17e4 <_ZN13VirtEncButton4tickEab.constprop.124+0xd4>
    1872:	26 fd       	sbrc	r18, 6
    1874:	0c c0       	rjmp	.+24     	; 0x188e <_ZN13VirtEncButton4tickEab.constprop.124+0x17e>
    1876:	40 91 ca 05 	lds	r20, 0x05CA	; 0x8005ca <enc+0x9>
    187a:	a0 e1       	ldi	r26, 0x10	; 16
    187c:	4a 9f       	mul	r20, r26
    187e:	a0 01       	movw	r20, r0
    1880:	11 24       	eor	r1, r1
    1882:	e4 17       	cp	r30, r20
    1884:	f5 07       	cpc	r31, r21
    1886:	08 f4       	brcc	.+2      	; 0x188a <_ZN13VirtEncButton4tickEab.constprop.124+0x17a>
    1888:	ad cf       	rjmp	.-166    	; 0x17e4 <_ZN13VirtEncButton4tickEab.constprop.124+0xd4>
    188a:	24 64       	ori	r18, 0x44	; 68
    188c:	93 cf       	rjmp	.-218    	; 0x17b4 <_ZN13VirtEncButton4tickEab.constprop.124+0xa4>
    188e:	40 91 cb 05 	lds	r20, 0x05CB	; 0x8005cb <enc+0xa>
    1892:	27 ff       	sbrs	r18, 7
    1894:	40 91 ca 05 	lds	r20, 0x05CA	; 0x8005ca <enc+0x9>
    1898:	a0 e1       	ldi	r26, 0x10	; 16
    189a:	4a 9f       	mul	r20, r26
    189c:	a0 01       	movw	r20, r0
    189e:	11 24       	eor	r1, r1
    18a0:	28 68       	ori	r18, 0x88	; 136
    18a2:	e4 17       	cp	r30, r20
    18a4:	f5 07       	cpc	r31, r21
    18a6:	08 f0       	brcs	.+2      	; 0x18aa <_ZN13VirtEncButton4tickEab.constprop.124+0x19a>
    18a8:	85 cf       	rjmp	.-246    	; 0x17b4 <_ZN13VirtEncButton4tickEab.constprop.124+0xa4>
    18aa:	9c cf       	rjmp	.-200    	; 0x17e4 <_ZN13VirtEncButton4tickEab.constprop.124+0xd4>
    18ac:	25 ff       	sbrs	r18, 5
    18ae:	19 c0       	rjmp	.+50     	; 0x18e2 <_ZN13VirtEncButton4tickEab.constprop.124+0x1d2>
    18b0:	80 91 c8 05 	lds	r24, 0x05C8	; 0x8005c8 <enc+0x7>
    18b4:	8e 17       	cp	r24, r30
    18b6:	1f 06       	cpc	r1, r31
    18b8:	11 f0       	breq	.+4      	; 0x18be <_ZN13VirtEncButton4tickEab.constprop.124+0x1ae>
    18ba:	08 f0       	brcs	.+2      	; 0x18be <_ZN13VirtEncButton4tickEab.constprop.124+0x1ae>
    18bc:	41 c0       	rjmp	.+130    	; 0x1940 <_ZN13VirtEncButton4tickEab.constprop.124+0x230>
    18be:	26 fd       	sbrc	r18, 6
    18c0:	05 c0       	rjmp	.+10     	; 0x18cc <_ZN13VirtEncButton4tickEab.constprop.124+0x1bc>
    18c2:	80 91 c1 05 	lds	r24, 0x05C1	; 0x8005c1 <enc>
    18c6:	8f 5f       	subi	r24, 0xFF	; 255
    18c8:	80 93 c1 05 	sts	0x05C1, r24	; 0x8005c1 <enc>
    18cc:	37 fd       	sbrc	r19, 7
    18ce:	10 92 c1 05 	sts	0x05C1, r1	; 0x8005c1 <enc>
    18d2:	2f 7d       	andi	r18, 0xDF	; 223
    18d4:	20 61       	ori	r18, 0x10	; 16
    18d6:	31 60       	ori	r19, 0x01	; 1
    18d8:	30 93 cd 05 	sts	0x05CD, r19	; 0x8005cd <enc+0xc>
    18dc:	20 93 cc 05 	sts	0x05CC, r18	; 0x8005cc <enc+0xb>
    18e0:	2f c0       	rjmp	.+94     	; 0x1940 <_ZN13VirtEncButton4tickEab.constprop.124+0x230>
    18e2:	30 ff       	sbrs	r19, 0
    18e4:	15 c0       	rjmp	.+42     	; 0x1910 <_ZN13VirtEncButton4tickEab.constprop.124+0x200>
    18e6:	37 fd       	sbrc	r19, 7
    18e8:	05 c0       	rjmp	.+10     	; 0x18f4 <_ZN13VirtEncButton4tickEab.constprop.124+0x1e4>
    18ea:	20 61       	ori	r18, 0x10	; 16
    18ec:	30 93 cd 05 	sts	0x05CD, r19	; 0x8005cd <enc+0xc>
    18f0:	20 93 cc 05 	sts	0x05CC, r18	; 0x8005cc <enc+0xb>
    18f4:	20 91 cc 05 	lds	r18, 0x05CC	; 0x8005cc <enc+0xb>
    18f8:	30 91 cd 05 	lds	r19, 0x05CD	; 0x8005cd <enc+0xc>
    18fc:	3e 77       	andi	r19, 0x7E	; 126
    18fe:	30 93 cd 05 	sts	0x05CD, r19	; 0x8005cd <enc+0xc>
    1902:	20 93 cc 05 	sts	0x05CC, r18	; 0x8005cc <enc+0xb>
    1906:	70 93 c3 05 	sts	0x05C3, r23	; 0x8005c3 <enc+0x2>
    190a:	60 93 c2 05 	sts	0x05C2, r22	; 0x8005c2 <enc+0x1>
    190e:	18 c0       	rjmp	.+48     	; 0x1940 <_ZN13VirtEncButton4tickEab.constprop.124+0x230>
    1910:	40 91 c1 05 	lds	r20, 0x05C1	; 0x8005c1 <enc>
    1914:	44 23       	and	r20, r20
    1916:	39 f1       	breq	.+78     	; 0x1966 <_ZN13VirtEncButton4tickEab.constprop.124+0x256>
    1918:	c9 01       	movw	r24, r18
    191a:	80 7c       	andi	r24, 0xC0	; 192
    191c:	99 27       	eor	r25, r25
    191e:	89 2b       	or	r24, r25
    1920:	d9 f4       	brne	.+54     	; 0x1958 <_ZN13VirtEncButton4tickEab.constprop.124+0x248>
    1922:	80 91 c9 05 	lds	r24, 0x05C9	; 0x8005c9 <enc+0x8>
    1926:	40 e1       	ldi	r20, 0x10	; 16
    1928:	84 9f       	mul	r24, r20
    192a:	c0 01       	movw	r24, r0
    192c:	11 24       	eor	r1, r1
    192e:	e8 17       	cp	r30, r24
    1930:	f9 07       	cpc	r31, r25
    1932:	90 f4       	brcc	.+36     	; 0x1958 <_ZN13VirtEncButton4tickEab.constprop.124+0x248>
    1934:	80 91 c4 05 	lds	r24, 0x05C4	; 0x8005c4 <enc+0x3>
    1938:	90 91 c5 05 	lds	r25, 0x05C5	; 0x8005c5 <enc+0x4>
    193c:	89 2b       	or	r24, r25
    193e:	71 f4       	brne	.+28     	; 0x195c <_ZN13VirtEncButton4tickEab.constprop.124+0x24c>
    1940:	80 91 cc 05 	lds	r24, 0x05CC	; 0x8005cc <enc+0xb>
    1944:	90 91 cd 05 	lds	r25, 0x05CD	; 0x8005cd <enc+0xc>
    1948:	92 ff       	sbrs	r25, 2
    194a:	4c cf       	rjmp	.-360    	; 0x17e4 <_ZN13VirtEncButton4tickEab.constprop.124+0xd4>
    194c:	9b 7f       	andi	r25, 0xFB	; 251
    194e:	90 93 cd 05 	sts	0x05CD, r25	; 0x8005cd <enc+0xc>
    1952:	80 93 cc 05 	sts	0x05CC, r24	; 0x8005cc <enc+0xb>
    1956:	46 cf       	rjmp	.-372    	; 0x17e4 <_ZN13VirtEncButton4tickEab.constprop.124+0xd4>
    1958:	21 60       	ori	r18, 0x01	; 1
    195a:	be cf       	rjmp	.-132    	; 0x18d8 <_ZN13VirtEncButton4tickEab.constprop.124+0x1c8>
    195c:	10 92 c5 05 	sts	0x05C5, r1	; 0x8005c5 <enc+0x4>
    1960:	10 92 c4 05 	sts	0x05C4, r1	; 0x8005c4 <enc+0x3>
    1964:	ed cf       	rjmp	.-38     	; 0x1940 <_ZN13VirtEncButton4tickEab.constprop.124+0x230>
    1966:	31 ff       	sbrs	r19, 1
    1968:	eb cf       	rjmp	.-42     	; 0x1940 <_ZN13VirtEncButton4tickEab.constprop.124+0x230>
    196a:	2f 73       	andi	r18, 0x3F	; 63
    196c:	3d 7f       	andi	r19, 0xFD	; 253
    196e:	38 60       	ori	r19, 0x08	; 8
    1970:	30 93 cd 05 	sts	0x05CD, r19	; 0x8005cd <enc+0xc>
    1974:	20 93 cc 05 	sts	0x05CC, r18	; 0x8005cc <enc+0xb>
    1978:	10 92 c5 05 	sts	0x05C5, r1	; 0x8005c5 <enc+0x4>
    197c:	10 92 c4 05 	sts	0x05C4, r1	; 0x8005c4 <enc+0x3>
    1980:	c2 cf       	rjmp	.-124    	; 0x1906 <_ZN13VirtEncButton4tickEab.constprop.124+0x1f6>
    1982:	2f 7e       	andi	r18, 0xEF	; 239
    1984:	45 cf       	rjmp	.-374    	; 0x1810 <_ZN13VirtEncButton4tickEab.constprop.124+0x100>
    1986:	27 7f       	andi	r18, 0xF7	; 247
    1988:	4a cf       	rjmp	.-364    	; 0x181e <_ZN13VirtEncButton4tickEab.constprop.124+0x10e>
    198a:	d7 ff       	sbrs	r29, 7
    198c:	0e c0       	rjmp	.+28     	; 0x19aa <_ZN13VirtEncButton4tickEab.constprop.124+0x29a>
    198e:	60 e0       	ldi	r22, 0x00	; 0
    1990:	c6 2b       	or	r28, r22
    1992:	e0 91 c6 05 	lds	r30, 0x05C6	; 0x8005c6 <enc+0x5>
    1996:	f0 91 c7 05 	lds	r31, 0x05C7	; 0x8005c7 <enc+0x6>
    199a:	30 97       	sbiw	r30, 0x00	; 0
    199c:	11 f0       	breq	.+4      	; 0x19a2 <_ZN13VirtEncButton4tickEab.constprop.124+0x292>
    199e:	c1 11       	cpse	r28, r1
    19a0:	09 95       	icall
    19a2:	8c 2f       	mov	r24, r28
    19a4:	df 91       	pop	r29
    19a6:	cf 91       	pop	r28
    19a8:	08 95       	ret
    19aa:	8d 2f       	mov	r24, r29
    19ac:	0e 94 42 06 	call	0xc84	; 0xc84 <_ZN11VirtEncoder7pollEncEa.constprop.131>
    19b0:	88 23       	and	r24, r24
    19b2:	69 f3       	breq	.-38     	; 0x198e <_ZN13VirtEncButton4tickEab.constprop.124+0x27e>
    19b4:	90 91 d2 05 	lds	r25, 0x05D2	; 0x8005d2 <enc+0x11>
    19b8:	18 16       	cp	r1, r24
    19ba:	f4 f4       	brge	.+60     	; 0x19f8 <_ZN13VirtEncButton4tickEab.constprop.124+0x2e8>
    19bc:	90 61       	ori	r25, 0x10	; 16
    19be:	90 93 d2 05 	sts	0x05D2, r25	; 0x8005d2 <enc+0x11>
    19c2:	0e 94 16 0b 	call	0x162c	; 0x162c <millis>
    19c6:	20 91 c2 05 	lds	r18, 0x05C2	; 0x8005c2 <enc+0x1>
    19ca:	30 91 c3 05 	lds	r19, 0x05C3	; 0x8005c3 <enc+0x2>
    19ce:	ab 01       	movw	r20, r22
    19d0:	42 1b       	sub	r20, r18
    19d2:	53 0b       	sbc	r21, r19
    19d4:	9a 01       	movw	r18, r20
    19d6:	40 91 d4 05 	lds	r20, 0x05D4	; 0x8005d4 <enc+0x13>
    19da:	50 91 d2 05 	lds	r21, 0x05D2	; 0x8005d2 <enc+0x11>
    19de:	70 93 c3 05 	sts	0x05C3, r23	; 0x8005c3 <enc+0x2>
    19e2:	60 93 c2 05 	sts	0x05C2, r22	; 0x8005c2 <enc+0x1>
    19e6:	85 2f       	mov	r24, r21
    19e8:	42 17       	cp	r20, r18
    19ea:	13 06       	cpc	r1, r19
    19ec:	09 f0       	breq	.+2      	; 0x19f0 <_ZN13VirtEncButton4tickEab.constprop.124+0x2e0>
    19ee:	30 f4       	brcc	.+12     	; 0x19fc <_ZN13VirtEncButton4tickEab.constprop.124+0x2ec>
    19f0:	87 7f       	andi	r24, 0xF7	; 247
    19f2:	80 93 d2 05 	sts	0x05D2, r24	; 0x8005d2 <enc+0x11>
    19f6:	1e cf       	rjmp	.-452    	; 0x1834 <_ZN13VirtEncButton4tickEab.constprop.124+0x124>
    19f8:	9f 7e       	andi	r25, 0xEF	; 239
    19fa:	e1 cf       	rjmp	.-62     	; 0x19be <_ZN13VirtEncButton4tickEab.constprop.124+0x2ae>
    19fc:	88 60       	ori	r24, 0x08	; 8
    19fe:	f9 cf       	rjmp	.-14     	; 0x19f2 <_ZN13VirtEncButton4tickEab.constprop.124+0x2e2>
    1a00:	10 92 c1 05 	sts	0x05C1, r1	; 0x8005c1 <enc>
    1a04:	22 cf       	rjmp	.-444    	; 0x184a <_ZN13VirtEncButton4tickEab.constprop.124+0x13a>

00001a06 <_ZN3PID7ComputeEv.constprop.15>:
    1a06:	2f 92       	push	r2
    1a08:	3f 92       	push	r3
    1a0a:	4f 92       	push	r4
    1a0c:	5f 92       	push	r5
    1a0e:	6f 92       	push	r6
    1a10:	7f 92       	push	r7
    1a12:	8f 92       	push	r8
    1a14:	9f 92       	push	r9
    1a16:	af 92       	push	r10
    1a18:	bf 92       	push	r11
    1a1a:	cf 92       	push	r12
    1a1c:	df 92       	push	r13
    1a1e:	ef 92       	push	r14
    1a20:	ff 92       	push	r15
    1a22:	0f 93       	push	r16
    1a24:	1f 93       	push	r17
    1a26:	cf 93       	push	r28
    1a28:	df 93       	push	r29
    1a2a:	cd b7       	in	r28, 0x3d	; 61
    1a2c:	de b7       	in	r29, 0x3e	; 62
    1a2e:	2e 97       	sbiw	r28, 0x0e	; 14
    1a30:	0f b6       	in	r0, 0x3f	; 63
    1a32:	f8 94       	cli
    1a34:	de bf       	out	0x3e, r29	; 62
    1a36:	0f be       	out	0x3f, r0	; 63
    1a38:	cd bf       	out	0x3d, r28	; 61
    1a3a:	30 90 6b 05 	lds	r3, 0x056B	; 0x80056b <pid+0x3a>
    1a3e:	31 10       	cpse	r3, r1
    1a40:	1b c0       	rjmp	.+54     	; 0x1a78 <_ZN3PID7ComputeEv.constprop.15+0x72>
    1a42:	31 2c       	mov	r3, r1
    1a44:	83 2d       	mov	r24, r3
    1a46:	2e 96       	adiw	r28, 0x0e	; 14
    1a48:	0f b6       	in	r0, 0x3f	; 63
    1a4a:	f8 94       	cli
    1a4c:	de bf       	out	0x3e, r29	; 62
    1a4e:	0f be       	out	0x3f, r0	; 63
    1a50:	cd bf       	out	0x3d, r28	; 61
    1a52:	df 91       	pop	r29
    1a54:	cf 91       	pop	r28
    1a56:	1f 91       	pop	r17
    1a58:	0f 91       	pop	r16
    1a5a:	ff 90       	pop	r15
    1a5c:	ef 90       	pop	r14
    1a5e:	df 90       	pop	r13
    1a60:	cf 90       	pop	r12
    1a62:	bf 90       	pop	r11
    1a64:	af 90       	pop	r10
    1a66:	9f 90       	pop	r9
    1a68:	8f 90       	pop	r8
    1a6a:	7f 90       	pop	r7
    1a6c:	6f 90       	pop	r6
    1a6e:	5f 90       	pop	r5
    1a70:	4f 90       	pop	r4
    1a72:	3f 90       	pop	r3
    1a74:	2f 90       	pop	r2
    1a76:	08 95       	ret
    1a78:	0e 94 16 0b 	call	0x162c	; 0x162c <millis>
    1a7c:	6d 83       	std	Y+5, r22	; 0x05
    1a7e:	7e 83       	std	Y+6, r23	; 0x06
    1a80:	8f 83       	std	Y+7, r24	; 0x07
    1a82:	98 87       	std	Y+8, r25	; 0x08
    1a84:	80 91 53 05 	lds	r24, 0x0553	; 0x800553 <pid+0x22>
    1a88:	90 91 54 05 	lds	r25, 0x0554	; 0x800554 <pid+0x23>
    1a8c:	a0 91 55 05 	lds	r26, 0x0555	; 0x800555 <pid+0x24>
    1a90:	b0 91 56 05 	lds	r27, 0x0556	; 0x800556 <pid+0x25>
    1a94:	4d 81       	ldd	r20, Y+5	; 0x05
    1a96:	5e 81       	ldd	r21, Y+6	; 0x06
    1a98:	6f 81       	ldd	r22, Y+7	; 0x07
    1a9a:	78 85       	ldd	r23, Y+8	; 0x08
    1a9c:	48 1b       	sub	r20, r24
    1a9e:	59 0b       	sbc	r21, r25
    1aa0:	6a 0b       	sbc	r22, r26
    1aa2:	7b 0b       	sbc	r23, r27
    1aa4:	80 91 5f 05 	lds	r24, 0x055F	; 0x80055f <pid+0x2e>
    1aa8:	90 91 60 05 	lds	r25, 0x0560	; 0x800560 <pid+0x2f>
    1aac:	a0 91 61 05 	lds	r26, 0x0561	; 0x800561 <pid+0x30>
    1ab0:	b0 91 62 05 	lds	r27, 0x0562	; 0x800562 <pid+0x31>
    1ab4:	48 17       	cp	r20, r24
    1ab6:	59 07       	cpc	r21, r25
    1ab8:	6a 07       	cpc	r22, r26
    1aba:	7b 07       	cpc	r23, r27
    1abc:	10 f2       	brcs	.-124    	; 0x1a42 <_ZN3PID7ComputeEv.constprop.15+0x3c>
    1abe:	e0 91 4d 05 	lds	r30, 0x054D	; 0x80054d <pid+0x1c>
    1ac2:	f0 91 4e 05 	lds	r31, 0x054E	; 0x80054e <pid+0x1d>
    1ac6:	80 81       	ld	r24, Z
    1ac8:	91 81       	ldd	r25, Z+1	; 0x01
    1aca:	a2 81       	ldd	r26, Z+2	; 0x02
    1acc:	b3 81       	ldd	r27, Z+3	; 0x03
    1ace:	89 83       	std	Y+1, r24	; 0x01
    1ad0:	9a 83       	std	Y+2, r25	; 0x02
    1ad2:	ab 83       	std	Y+3, r26	; 0x03
    1ad4:	bc 83       	std	Y+4, r27	; 0x04
    1ad6:	e0 91 51 05 	lds	r30, 0x0551	; 0x800551 <pid+0x20>
    1ada:	f0 91 52 05 	lds	r31, 0x0552	; 0x800552 <pid+0x21>
    1ade:	9c 01       	movw	r18, r24
    1ae0:	ad 01       	movw	r20, r26
    1ae2:	60 81       	ld	r22, Z
    1ae4:	71 81       	ldd	r23, Z+1	; 0x01
    1ae6:	82 81       	ldd	r24, Z+2	; 0x02
    1ae8:	93 81       	ldd	r25, Z+3	; 0x03
    1aea:	0e 94 fc 3b 	call	0x77f8	; 0x77f8 <__subsf3>
    1aee:	4b 01       	movw	r8, r22
    1af0:	5c 01       	movw	r10, r24
    1af2:	20 91 5b 05 	lds	r18, 0x055B	; 0x80055b <pid+0x2a>
    1af6:	30 91 5c 05 	lds	r19, 0x055C	; 0x80055c <pid+0x2b>
    1afa:	40 91 5d 05 	lds	r20, 0x055D	; 0x80055d <pid+0x2c>
    1afe:	50 91 5e 05 	lds	r21, 0x055E	; 0x80055e <pid+0x2d>
    1b02:	69 81       	ldd	r22, Y+1	; 0x01
    1b04:	7a 81       	ldd	r23, Y+2	; 0x02
    1b06:	8b 81       	ldd	r24, Y+3	; 0x03
    1b08:	9c 81       	ldd	r25, Y+4	; 0x04
    1b0a:	0e 94 fc 3b 	call	0x77f8	; 0x77f8 <__subsf3>
    1b0e:	6b 01       	movw	r12, r22
    1b10:	7c 01       	movw	r14, r24
    1b12:	20 91 41 05 	lds	r18, 0x0541	; 0x800541 <pid+0x10>
    1b16:	30 91 42 05 	lds	r19, 0x0542	; 0x800542 <pid+0x11>
    1b1a:	40 91 43 05 	lds	r20, 0x0543	; 0x800543 <pid+0x12>
    1b1e:	50 91 44 05 	lds	r21, 0x0544	; 0x800544 <pid+0x13>
    1b22:	c5 01       	movw	r24, r10
    1b24:	b4 01       	movw	r22, r8
    1b26:	0e 94 cd 3d 	call	0x7b9a	; 0x7b9a <__mulsf3>
    1b2a:	20 91 57 05 	lds	r18, 0x0557	; 0x800557 <pid+0x26>
    1b2e:	30 91 58 05 	lds	r19, 0x0558	; 0x800558 <pid+0x27>
    1b32:	40 91 59 05 	lds	r20, 0x0559	; 0x800559 <pid+0x28>
    1b36:	50 91 5a 05 	lds	r21, 0x055A	; 0x80055a <pid+0x29>
    1b3a:	0e 94 fd 3b 	call	0x77fa	; 0x77fa <__addsf3>
    1b3e:	2b 01       	movw	r4, r22
    1b40:	3c 01       	movw	r6, r24
    1b42:	40 92 57 05 	sts	0x0557, r4	; 0x800557 <pid+0x26>
    1b46:	50 92 58 05 	sts	0x0558, r5	; 0x800558 <pid+0x27>
    1b4a:	60 92 59 05 	sts	0x0559, r6	; 0x800559 <pid+0x28>
    1b4e:	70 92 5a 05 	sts	0x055A, r7	; 0x80055a <pid+0x29>
    1b52:	20 90 6c 05 	lds	r2, 0x056C	; 0x80056c <pid+0x3b>
    1b56:	21 10       	cpse	r2, r1
    1b58:	1a c0       	rjmp	.+52     	; 0x1b8e <_ZN3PID7ComputeEv.constprop.15+0x188>
    1b5a:	20 91 3d 05 	lds	r18, 0x053D	; 0x80053d <pid+0xc>
    1b5e:	30 91 3e 05 	lds	r19, 0x053E	; 0x80053e <pid+0xd>
    1b62:	40 91 3f 05 	lds	r20, 0x053F	; 0x80053f <pid+0xe>
    1b66:	50 91 40 05 	lds	r21, 0x0540	; 0x800540 <pid+0xf>
    1b6a:	c7 01       	movw	r24, r14
    1b6c:	b6 01       	movw	r22, r12
    1b6e:	0e 94 cd 3d 	call	0x7b9a	; 0x7b9a <__mulsf3>
    1b72:	9b 01       	movw	r18, r22
    1b74:	ac 01       	movw	r20, r24
    1b76:	c3 01       	movw	r24, r6
    1b78:	b2 01       	movw	r22, r4
    1b7a:	0e 94 fc 3b 	call	0x77f8	; 0x77f8 <__subsf3>
    1b7e:	60 93 57 05 	sts	0x0557, r22	; 0x800557 <pid+0x26>
    1b82:	70 93 58 05 	sts	0x0558, r23	; 0x800558 <pid+0x27>
    1b86:	80 93 59 05 	sts	0x0559, r24	; 0x800559 <pid+0x28>
    1b8a:	90 93 5a 05 	sts	0x055A, r25	; 0x80055a <pid+0x29>
    1b8e:	40 90 57 05 	lds	r4, 0x0557	; 0x800557 <pid+0x26>
    1b92:	50 90 58 05 	lds	r5, 0x0558	; 0x800558 <pid+0x27>
    1b96:	60 90 59 05 	lds	r6, 0x0559	; 0x800559 <pid+0x28>
    1b9a:	70 90 5a 05 	lds	r7, 0x055A	; 0x80055a <pid+0x29>
    1b9e:	10 91 67 05 	lds	r17, 0x0567	; 0x800567 <pid+0x36>
    1ba2:	90 91 68 05 	lds	r25, 0x0568	; 0x800568 <pid+0x37>
    1ba6:	9e 87       	std	Y+14, r25	; 0x0e
    1ba8:	a0 91 69 05 	lds	r26, 0x0569	; 0x800569 <pid+0x38>
    1bac:	ad 87       	std	Y+13, r26	; 0x0d
    1bae:	00 91 6a 05 	lds	r16, 0x056A	; 0x80056a <pid+0x39>
    1bb2:	21 2f       	mov	r18, r17
    1bb4:	39 2f       	mov	r19, r25
    1bb6:	4a 2f       	mov	r20, r26
    1bb8:	50 2f       	mov	r21, r16
    1bba:	c3 01       	movw	r24, r6
    1bbc:	b2 01       	movw	r22, r4
    1bbe:	0e 94 c8 3d 	call	0x7b90	; 0x7b90 <__gesf2>
    1bc2:	18 16       	cp	r1, r24
    1bc4:	0c f0       	brlt	.+2      	; 0x1bc8 <_ZN3PID7ComputeEv.constprop.15+0x1c2>
    1bc6:	82 c0       	rjmp	.+260    	; 0x1ccc <_ZN3PID7ComputeEv.constprop.15+0x2c6>
    1bc8:	81 2f       	mov	r24, r17
    1bca:	9e 85       	ldd	r25, Y+14	; 0x0e
    1bcc:	ad 85       	ldd	r26, Y+13	; 0x0d
    1bce:	b0 2f       	mov	r27, r16
    1bd0:	80 93 57 05 	sts	0x0557, r24	; 0x800557 <pid+0x26>
    1bd4:	90 93 58 05 	sts	0x0558, r25	; 0x800558 <pid+0x27>
    1bd8:	a0 93 59 05 	sts	0x0559, r26	; 0x800559 <pid+0x28>
    1bdc:	b0 93 5a 05 	sts	0x055A, r27	; 0x80055a <pid+0x29>
    1be0:	22 20       	and	r2, r2
    1be2:	09 f4       	brne	.+2      	; 0x1be6 <_ZN3PID7ComputeEv.constprop.15+0x1e0>
    1be4:	8c c0       	rjmp	.+280    	; 0x1cfe <_ZN3PID7ComputeEv.constprop.15+0x2f8>
    1be6:	20 91 3d 05 	lds	r18, 0x053D	; 0x80053d <pid+0xc>
    1bea:	30 91 3e 05 	lds	r19, 0x053E	; 0x80053e <pid+0xd>
    1bee:	40 91 3f 05 	lds	r20, 0x053F	; 0x80053f <pid+0xe>
    1bf2:	50 91 40 05 	lds	r21, 0x0540	; 0x800540 <pid+0xf>
    1bf6:	c5 01       	movw	r24, r10
    1bf8:	b4 01       	movw	r22, r8
    1bfa:	0e 94 cd 3d 	call	0x7b9a	; 0x7b9a <__mulsf3>
    1bfe:	4b 01       	movw	r8, r22
    1c00:	5c 01       	movw	r10, r24
    1c02:	20 91 45 05 	lds	r18, 0x0545	; 0x800545 <pid+0x14>
    1c06:	30 91 46 05 	lds	r19, 0x0546	; 0x800546 <pid+0x15>
    1c0a:	40 91 47 05 	lds	r20, 0x0547	; 0x800547 <pid+0x16>
    1c0e:	50 91 48 05 	lds	r21, 0x0548	; 0x800548 <pid+0x17>
    1c12:	c7 01       	movw	r24, r14
    1c14:	b6 01       	movw	r22, r12
    1c16:	0e 94 cd 3d 	call	0x7b9a	; 0x7b9a <__mulsf3>
    1c1a:	9b 01       	movw	r18, r22
    1c1c:	ac 01       	movw	r20, r24
    1c1e:	60 91 57 05 	lds	r22, 0x0557	; 0x800557 <pid+0x26>
    1c22:	70 91 58 05 	lds	r23, 0x0558	; 0x800558 <pid+0x27>
    1c26:	80 91 59 05 	lds	r24, 0x0559	; 0x800559 <pid+0x28>
    1c2a:	90 91 5a 05 	lds	r25, 0x055A	; 0x80055a <pid+0x29>
    1c2e:	0e 94 fc 3b 	call	0x77f8	; 0x77f8 <__subsf3>
    1c32:	a5 01       	movw	r20, r10
    1c34:	94 01       	movw	r18, r8
    1c36:	0e 94 fd 3b 	call	0x77fa	; 0x77fa <__addsf3>
    1c3a:	6b 01       	movw	r12, r22
    1c3c:	7c 01       	movw	r14, r24
    1c3e:	9b 01       	movw	r18, r22
    1c40:	ac 01       	movw	r20, r24
    1c42:	61 2f       	mov	r22, r17
    1c44:	7e 85       	ldd	r23, Y+14	; 0x0e
    1c46:	8d 85       	ldd	r24, Y+13	; 0x0d
    1c48:	90 2f       	mov	r25, r16
    1c4a:	0e 94 69 3c 	call	0x78d2	; 0x78d2 <__cmpsf2>
    1c4e:	87 fd       	sbrc	r24, 7
    1c50:	18 c0       	rjmp	.+48     	; 0x1c82 <_ZN3PID7ComputeEv.constprop.15+0x27c>
    1c52:	10 91 63 05 	lds	r17, 0x0563	; 0x800563 <pid+0x32>
    1c56:	90 91 64 05 	lds	r25, 0x0564	; 0x800564 <pid+0x33>
    1c5a:	9e 87       	std	Y+14, r25	; 0x0e
    1c5c:	a0 91 65 05 	lds	r26, 0x0565	; 0x800565 <pid+0x34>
    1c60:	ad 87       	std	Y+13, r26	; 0x0d
    1c62:	00 91 66 05 	lds	r16, 0x0566	; 0x800566 <pid+0x35>
    1c66:	21 2f       	mov	r18, r17
    1c68:	39 2f       	mov	r19, r25
    1c6a:	4a 2f       	mov	r20, r26
    1c6c:	50 2f       	mov	r21, r16
    1c6e:	b6 01       	movw	r22, r12
    1c70:	c7 01       	movw	r24, r14
    1c72:	0e 94 69 3c 	call	0x78d2	; 0x78d2 <__cmpsf2>
    1c76:	87 fd       	sbrc	r24, 7
    1c78:	04 c0       	rjmp	.+8      	; 0x1c82 <_ZN3PID7ComputeEv.constprop.15+0x27c>
    1c7a:	1c 2d       	mov	r17, r12
    1c7c:	de 86       	std	Y+14, r13	; 0x0e
    1c7e:	ed 86       	std	Y+13, r14	; 0x0d
    1c80:	0f 2d       	mov	r16, r15
    1c82:	e0 91 4f 05 	lds	r30, 0x054F	; 0x80054f <pid+0x1e>
    1c86:	f0 91 50 05 	lds	r31, 0x0550	; 0x800550 <pid+0x1f>
    1c8a:	81 2f       	mov	r24, r17
    1c8c:	9e 85       	ldd	r25, Y+14	; 0x0e
    1c8e:	ad 85       	ldd	r26, Y+13	; 0x0d
    1c90:	b0 2f       	mov	r27, r16
    1c92:	80 83       	st	Z, r24
    1c94:	91 83       	std	Z+1, r25	; 0x01
    1c96:	a2 83       	std	Z+2, r26	; 0x02
    1c98:	b3 83       	std	Z+3, r27	; 0x03
    1c9a:	89 81       	ldd	r24, Y+1	; 0x01
    1c9c:	9a 81       	ldd	r25, Y+2	; 0x02
    1c9e:	ab 81       	ldd	r26, Y+3	; 0x03
    1ca0:	bc 81       	ldd	r27, Y+4	; 0x04
    1ca2:	80 93 5b 05 	sts	0x055B, r24	; 0x80055b <pid+0x2a>
    1ca6:	90 93 5c 05 	sts	0x055C, r25	; 0x80055c <pid+0x2b>
    1caa:	a0 93 5d 05 	sts	0x055D, r26	; 0x80055d <pid+0x2c>
    1cae:	b0 93 5e 05 	sts	0x055E, r27	; 0x80055e <pid+0x2d>
    1cb2:	8d 81       	ldd	r24, Y+5	; 0x05
    1cb4:	9e 81       	ldd	r25, Y+6	; 0x06
    1cb6:	af 81       	ldd	r26, Y+7	; 0x07
    1cb8:	b8 85       	ldd	r27, Y+8	; 0x08
    1cba:	80 93 53 05 	sts	0x0553, r24	; 0x800553 <pid+0x22>
    1cbe:	90 93 54 05 	sts	0x0554, r25	; 0x800554 <pid+0x23>
    1cc2:	a0 93 55 05 	sts	0x0555, r26	; 0x800555 <pid+0x24>
    1cc6:	b0 93 56 05 	sts	0x0556, r27	; 0x800556 <pid+0x25>
    1cca:	bc ce       	rjmp	.-648    	; 0x1a44 <_ZN3PID7ComputeEv.constprop.15+0x3e>
    1ccc:	80 91 63 05 	lds	r24, 0x0563	; 0x800563 <pid+0x32>
    1cd0:	90 91 64 05 	lds	r25, 0x0564	; 0x800564 <pid+0x33>
    1cd4:	a0 91 65 05 	lds	r26, 0x0565	; 0x800565 <pid+0x34>
    1cd8:	b0 91 66 05 	lds	r27, 0x0566	; 0x800566 <pid+0x35>
    1cdc:	89 87       	std	Y+9, r24	; 0x09
    1cde:	9a 87       	std	Y+10, r25	; 0x0a
    1ce0:	ab 87       	std	Y+11, r26	; 0x0b
    1ce2:	bc 87       	std	Y+12, r27	; 0x0c
    1ce4:	9c 01       	movw	r18, r24
    1ce6:	ad 01       	movw	r20, r26
    1ce8:	c3 01       	movw	r24, r6
    1cea:	b2 01       	movw	r22, r4
    1cec:	0e 94 69 3c 	call	0x78d2	; 0x78d2 <__cmpsf2>
    1cf0:	87 ff       	sbrs	r24, 7
    1cf2:	76 cf       	rjmp	.-276    	; 0x1be0 <_ZN3PID7ComputeEv.constprop.15+0x1da>
    1cf4:	89 85       	ldd	r24, Y+9	; 0x09
    1cf6:	9a 85       	ldd	r25, Y+10	; 0x0a
    1cf8:	ab 85       	ldd	r26, Y+11	; 0x0b
    1cfa:	bc 85       	ldd	r27, Y+12	; 0x0c
    1cfc:	69 cf       	rjmp	.-302    	; 0x1bd0 <_ZN3PID7ComputeEv.constprop.15+0x1ca>
    1cfe:	81 2c       	mov	r8, r1
    1d00:	91 2c       	mov	r9, r1
    1d02:	54 01       	movw	r10, r8
    1d04:	7e cf       	rjmp	.-260    	; 0x1c02 <_ZN3PID7ComputeEv.constprop.15+0x1fc>

00001d06 <nothing>:
    1d06:	08 95       	ret

00001d08 <_ZN5Print5writeEPKhj>:
    1d08:	af 92       	push	r10
    1d0a:	bf 92       	push	r11
    1d0c:	cf 92       	push	r12
    1d0e:	df 92       	push	r13
    1d10:	ef 92       	push	r14
    1d12:	ff 92       	push	r15
    1d14:	0f 93       	push	r16
    1d16:	1f 93       	push	r17
    1d18:	cf 93       	push	r28
    1d1a:	df 93       	push	r29
    1d1c:	6c 01       	movw	r12, r24
    1d1e:	7b 01       	movw	r14, r22
    1d20:	8b 01       	movw	r16, r22
    1d22:	04 0f       	add	r16, r20
    1d24:	15 1f       	adc	r17, r21
    1d26:	eb 01       	movw	r28, r22
    1d28:	5e 01       	movw	r10, r28
    1d2a:	ae 18       	sub	r10, r14
    1d2c:	bf 08       	sbc	r11, r15
    1d2e:	c0 17       	cp	r28, r16
    1d30:	d1 07       	cpc	r29, r17
    1d32:	59 f0       	breq	.+22     	; 0x1d4a <_ZN5Print5writeEPKhj+0x42>
    1d34:	69 91       	ld	r22, Y+
    1d36:	d6 01       	movw	r26, r12
    1d38:	ed 91       	ld	r30, X+
    1d3a:	fc 91       	ld	r31, X
    1d3c:	01 90       	ld	r0, Z+
    1d3e:	f0 81       	ld	r31, Z
    1d40:	e0 2d       	mov	r30, r0
    1d42:	c6 01       	movw	r24, r12
    1d44:	09 95       	icall
    1d46:	89 2b       	or	r24, r25
    1d48:	79 f7       	brne	.-34     	; 0x1d28 <_ZN5Print5writeEPKhj+0x20>
    1d4a:	c5 01       	movw	r24, r10
    1d4c:	df 91       	pop	r29
    1d4e:	cf 91       	pop	r28
    1d50:	1f 91       	pop	r17
    1d52:	0f 91       	pop	r16
    1d54:	ff 90       	pop	r15
    1d56:	ef 90       	pop	r14
    1d58:	df 90       	pop	r13
    1d5a:	cf 90       	pop	r12
    1d5c:	bf 90       	pop	r11
    1d5e:	af 90       	pop	r10
    1d60:	08 95       	ret

00001d62 <u8x8_gpio_call>:
    1d62:	dc 01       	movw	r26, r24
    1d64:	1a 96       	adiw	r26, 0x0a	; 10
    1d66:	ed 91       	ld	r30, X+
    1d68:	fc 91       	ld	r31, X
    1d6a:	30 e0       	ldi	r19, 0x00	; 0
    1d6c:	20 e0       	ldi	r18, 0x00	; 0
    1d6e:	09 94       	ijmp

00001d70 <u8x8_cad_EndTransfer>:
    1d70:	dc 01       	movw	r26, r24
    1d72:	16 96       	adiw	r26, 0x06	; 6
    1d74:	ed 91       	ld	r30, X+
    1d76:	fc 91       	ld	r31, X
    1d78:	30 e0       	ldi	r19, 0x00	; 0
    1d7a:	20 e0       	ldi	r18, 0x00	; 0
    1d7c:	40 e0       	ldi	r20, 0x00	; 0
    1d7e:	69 e1       	ldi	r22, 0x19	; 25
    1d80:	09 94       	ijmp

00001d82 <u8x8_cad_StartTransfer>:
    1d82:	dc 01       	movw	r26, r24
    1d84:	16 96       	adiw	r26, 0x06	; 6
    1d86:	ed 91       	ld	r30, X+
    1d88:	fc 91       	ld	r31, X
    1d8a:	30 e0       	ldi	r19, 0x00	; 0
    1d8c:	20 e0       	ldi	r18, 0x00	; 0
    1d8e:	40 e0       	ldi	r20, 0x00	; 0
    1d90:	68 e1       	ldi	r22, 0x18	; 24
    1d92:	09 94       	ijmp

00001d94 <u8x8_cad_SendData>:
    1d94:	9a 01       	movw	r18, r20
    1d96:	dc 01       	movw	r26, r24
    1d98:	16 96       	adiw	r26, 0x06	; 6
    1d9a:	ed 91       	ld	r30, X+
    1d9c:	fc 91       	ld	r31, X
    1d9e:	46 2f       	mov	r20, r22
    1da0:	67 e1       	ldi	r22, 0x17	; 23
    1da2:	09 94       	ijmp

00001da4 <u8x8_cad_SendSequence>:
    1da4:	ef 92       	push	r14
    1da6:	ff 92       	push	r15
    1da8:	0f 93       	push	r16
    1daa:	1f 93       	push	r17
    1dac:	cf 93       	push	r28
    1dae:	df 93       	push	r29
    1db0:	1f 92       	push	r1
    1db2:	cd b7       	in	r28, 0x3d	; 61
    1db4:	de b7       	in	r29, 0x3e	; 62
    1db6:	7c 01       	movw	r14, r24
    1db8:	8b 01       	movw	r16, r22
    1dba:	d8 01       	movw	r26, r16
    1dbc:	6c 91       	ld	r22, X
    1dbe:	67 31       	cpi	r22, 0x17	; 23
    1dc0:	29 f1       	breq	.+74     	; 0x1e0c <u8x8_cad_SendSequence+0x68>
    1dc2:	50 f4       	brcc	.+20     	; 0x1dd8 <u8x8_cad_SendSequence+0x34>
    1dc4:	65 31       	cpi	r22, 0x15	; 21
    1dc6:	a0 f4       	brcc	.+40     	; 0x1df0 <u8x8_cad_SendSequence+0x4c>
    1dc8:	0f 90       	pop	r0
    1dca:	df 91       	pop	r29
    1dcc:	cf 91       	pop	r28
    1dce:	1f 91       	pop	r17
    1dd0:	0f 91       	pop	r16
    1dd2:	ff 90       	pop	r15
    1dd4:	ef 90       	pop	r14
    1dd6:	08 95       	ret
    1dd8:	6a 31       	cpi	r22, 0x1A	; 26
    1dda:	18 f1       	brcs	.+70     	; 0x1e22 <u8x8_cad_SendSequence+0x7e>
    1ddc:	6e 3f       	cpi	r22, 0xFE	; 254
    1dde:	a1 f7       	brne	.-24     	; 0x1dc8 <u8x8_cad_SendSequence+0x24>
    1de0:	f8 01       	movw	r30, r16
    1de2:	41 81       	ldd	r20, Z+1	; 0x01
    1de4:	49 83       	std	Y+1, r20	; 0x01
    1de6:	69 e2       	ldi	r22, 0x29	; 41
    1de8:	c7 01       	movw	r24, r14
    1dea:	0e 94 b1 0e 	call	0x1d62	; 0x1d62 <u8x8_gpio_call>
    1dee:	0b c0       	rjmp	.+22     	; 0x1e06 <u8x8_cad_SendSequence+0x62>
    1df0:	f8 01       	movw	r30, r16
    1df2:	41 81       	ldd	r20, Z+1	; 0x01
    1df4:	49 83       	std	Y+1, r20	; 0x01
    1df6:	d7 01       	movw	r26, r14
    1df8:	16 96       	adiw	r26, 0x06	; 6
    1dfa:	ed 91       	ld	r30, X+
    1dfc:	fc 91       	ld	r31, X
    1dfe:	30 e0       	ldi	r19, 0x00	; 0
    1e00:	20 e0       	ldi	r18, 0x00	; 0
    1e02:	c7 01       	movw	r24, r14
    1e04:	09 95       	icall
    1e06:	0e 5f       	subi	r16, 0xFE	; 254
    1e08:	1f 4f       	sbci	r17, 0xFF	; 255
    1e0a:	d7 cf       	rjmp	.-82     	; 0x1dba <u8x8_cad_SendSequence+0x16>
    1e0c:	f8 01       	movw	r30, r16
    1e0e:	81 81       	ldd	r24, Z+1	; 0x01
    1e10:	89 83       	std	Y+1, r24	; 0x01
    1e12:	ae 01       	movw	r20, r28
    1e14:	4f 5f       	subi	r20, 0xFF	; 255
    1e16:	5f 4f       	sbci	r21, 0xFF	; 255
    1e18:	61 e0       	ldi	r22, 0x01	; 1
    1e1a:	c7 01       	movw	r24, r14
    1e1c:	0e 94 ca 0e 	call	0x1d94	; 0x1d94 <u8x8_cad_SendData>
    1e20:	f2 cf       	rjmp	.-28     	; 0x1e06 <u8x8_cad_SendSequence+0x62>
    1e22:	0f 5f       	subi	r16, 0xFF	; 255
    1e24:	1f 4f       	sbci	r17, 0xFF	; 255
    1e26:	d7 01       	movw	r26, r14
    1e28:	16 96       	adiw	r26, 0x06	; 6
    1e2a:	ed 91       	ld	r30, X+
    1e2c:	fc 91       	ld	r31, X
    1e2e:	30 e0       	ldi	r19, 0x00	; 0
    1e30:	20 e0       	ldi	r18, 0x00	; 0
    1e32:	40 e0       	ldi	r20, 0x00	; 0
    1e34:	c7 01       	movw	r24, r14
    1e36:	09 95       	icall
    1e38:	c0 cf       	rjmp	.-128    	; 0x1dba <u8x8_cad_SendSequence+0x16>

00001e3a <u8x8_cad_SendArg>:
    1e3a:	46 2f       	mov	r20, r22
    1e3c:	dc 01       	movw	r26, r24
    1e3e:	16 96       	adiw	r26, 0x06	; 6
    1e40:	ed 91       	ld	r30, X+
    1e42:	fc 91       	ld	r31, X
    1e44:	30 e0       	ldi	r19, 0x00	; 0
    1e46:	20 e0       	ldi	r18, 0x00	; 0
    1e48:	66 e1       	ldi	r22, 0x16	; 22
    1e4a:	09 94       	ijmp

00001e4c <u8x8_cad_SendCmd>:
    1e4c:	46 2f       	mov	r20, r22
    1e4e:	dc 01       	movw	r26, r24
    1e50:	16 96       	adiw	r26, 0x06	; 6
    1e52:	ed 91       	ld	r30, X+
    1e54:	fc 91       	ld	r31, X
    1e56:	30 e0       	ldi	r19, 0x00	; 0
    1e58:	20 e0       	ldi	r18, 0x00	; 0
    1e5a:	65 e1       	ldi	r22, 0x15	; 21
    1e5c:	09 94       	ijmp

00001e5e <u8x8_d_ssd1306_128x64_noname>:
    1e5e:	ef 92       	push	r14
    1e60:	ff 92       	push	r15
    1e62:	0f 93       	push	r16
    1e64:	1f 93       	push	r17
    1e66:	cf 93       	push	r28
    1e68:	df 93       	push	r29
    1e6a:	ec 01       	movw	r28, r24
    1e6c:	04 2f       	mov	r16, r20
    1e6e:	79 01       	movw	r14, r18
    1e70:	6d 30       	cpi	r22, 0x0D	; 13
    1e72:	09 f4       	brne	.+2      	; 0x1e76 <u8x8_d_ssd1306_128x64_noname+0x18>
    1e74:	46 c0       	rjmp	.+140    	; 0x1f02 <u8x8_d_ssd1306_128x64_noname+0xa4>
    1e76:	50 f4       	brcc	.+20     	; 0x1e8c <u8x8_d_ssd1306_128x64_noname+0x2e>
    1e78:	6b 30       	cpi	r22, 0x0B	; 11
    1e7a:	c9 f1       	breq	.+114    	; 0x1eee <u8x8_d_ssd1306_128x64_noname+0x90>
    1e7c:	69 30       	cpi	r22, 0x09	; 9
    1e7e:	09 f4       	brne	.+2      	; 0x1e82 <u8x8_d_ssd1306_128x64_noname+0x24>
    1e80:	9f c0       	rjmp	.+318    	; 0x1fc0 <u8x8_d_ssd1306_128x64_noname+0x162>
    1e82:	6a 30       	cpi	r22, 0x0A	; 10
    1e84:	09 f4       	brne	.+2      	; 0x1e88 <u8x8_d_ssd1306_128x64_noname+0x2a>
    1e86:	65 c0       	rjmp	.+202    	; 0x1f52 <u8x8_d_ssd1306_128x64_noname+0xf4>
    1e88:	80 e0       	ldi	r24, 0x00	; 0
    1e8a:	46 c0       	rjmp	.+140    	; 0x1f18 <u8x8_d_ssd1306_128x64_noname+0xba>
    1e8c:	6e 30       	cpi	r22, 0x0E	; 14
    1e8e:	09 f4       	brne	.+2      	; 0x1e92 <u8x8_d_ssd1306_128x64_noname+0x34>
    1e90:	52 c0       	rjmp	.+164    	; 0x1f36 <u8x8_d_ssd1306_128x64_noname+0xd8>
    1e92:	6f 30       	cpi	r22, 0x0F	; 15
    1e94:	99 f7       	brne	.-26     	; 0x1e7c <u8x8_d_ssd1306_128x64_noname+0x1e>
    1e96:	0e 94 c1 0e 	call	0x1d82	; 0x1d82 <u8x8_cad_StartTransfer>
    1e9a:	f7 01       	movw	r30, r14
    1e9c:	13 81       	ldd	r17, Z+3	; 0x03
    1e9e:	11 0f       	add	r17, r17
    1ea0:	11 0f       	add	r17, r17
    1ea2:	11 0f       	add	r17, r17
    1ea4:	6c 89       	ldd	r22, Y+20	; 0x14
    1ea6:	16 0f       	add	r17, r22
    1ea8:	60 e4       	ldi	r22, 0x40	; 64
    1eaa:	ce 01       	movw	r24, r28
    1eac:	0e 94 26 0f 	call	0x1e4c	; 0x1e4c <u8x8_cad_SendCmd>
    1eb0:	61 2f       	mov	r22, r17
    1eb2:	62 95       	swap	r22
    1eb4:	6f 70       	andi	r22, 0x0F	; 15
    1eb6:	60 61       	ori	r22, 0x10	; 16
    1eb8:	ce 01       	movw	r24, r28
    1eba:	0e 94 26 0f 	call	0x1e4c	; 0x1e4c <u8x8_cad_SendCmd>
    1ebe:	61 2f       	mov	r22, r17
    1ec0:	6f 70       	andi	r22, 0x0F	; 15
    1ec2:	ce 01       	movw	r24, r28
    1ec4:	0e 94 1d 0f 	call	0x1e3a	; 0x1e3a <u8x8_cad_SendArg>
    1ec8:	f7 01       	movw	r30, r14
    1eca:	64 81       	ldd	r22, Z+4	; 0x04
    1ecc:	60 6b       	ori	r22, 0xB0	; 176
    1ece:	ce 01       	movw	r24, r28
    1ed0:	0e 94 1d 0f 	call	0x1e3a	; 0x1e3a <u8x8_cad_SendArg>
    1ed4:	f7 01       	movw	r30, r14
    1ed6:	40 81       	ld	r20, Z
    1ed8:	51 81       	ldd	r21, Z+1	; 0x01
    1eda:	62 81       	ldd	r22, Z+2	; 0x02
    1edc:	66 0f       	add	r22, r22
    1ede:	66 0f       	add	r22, r22
    1ee0:	66 0f       	add	r22, r22
    1ee2:	ce 01       	movw	r24, r28
    1ee4:	0e 94 ca 0e 	call	0x1d94	; 0x1d94 <u8x8_cad_SendData>
    1ee8:	01 50       	subi	r16, 0x01	; 1
    1eea:	a1 f7       	brne	.-24     	; 0x1ed4 <u8x8_d_ssd1306_128x64_noname+0x76>
    1eec:	2e c0       	rjmp	.+92     	; 0x1f4a <u8x8_d_ssd1306_128x64_noname+0xec>
    1eee:	64 e2       	ldi	r22, 0x24	; 36
    1ef0:	71 e0       	ldi	r23, 0x01	; 1
    1ef2:	44 23       	and	r20, r20
    1ef4:	11 f0       	breq	.+4      	; 0x1efa <u8x8_d_ssd1306_128x64_noname+0x9c>
    1ef6:	6f e1       	ldi	r22, 0x1F	; 31
    1ef8:	71 e0       	ldi	r23, 0x01	; 1
    1efa:	ce 01       	movw	r24, r28
    1efc:	0e 94 d2 0e 	call	0x1da4	; 0x1da4 <u8x8_cad_SendSequence>
    1f00:	0a c0       	rjmp	.+20     	; 0x1f16 <u8x8_d_ssd1306_128x64_noname+0xb8>
    1f02:	41 11       	cpse	r20, r1
    1f04:	10 c0       	rjmp	.+32     	; 0x1f26 <u8x8_d_ssd1306_128x64_noname+0xc8>
    1f06:	68 e1       	ldi	r22, 0x18	; 24
    1f08:	71 e0       	ldi	r23, 0x01	; 1
    1f0a:	0e 94 d2 0e 	call	0x1da4	; 0x1da4 <u8x8_cad_SendSequence>
    1f0e:	e8 81       	ld	r30, Y
    1f10:	f9 81       	ldd	r31, Y+1	; 0x01
    1f12:	82 89       	ldd	r24, Z+18	; 0x12
    1f14:	8c 8b       	std	Y+20, r24	; 0x14
    1f16:	81 e0       	ldi	r24, 0x01	; 1
    1f18:	df 91       	pop	r29
    1f1a:	cf 91       	pop	r28
    1f1c:	1f 91       	pop	r17
    1f1e:	0f 91       	pop	r16
    1f20:	ff 90       	pop	r15
    1f22:	ef 90       	pop	r14
    1f24:	08 95       	ret
    1f26:	61 e1       	ldi	r22, 0x11	; 17
    1f28:	71 e0       	ldi	r23, 0x01	; 1
    1f2a:	0e 94 d2 0e 	call	0x1da4	; 0x1da4 <u8x8_cad_SendSequence>
    1f2e:	e8 81       	ld	r30, Y
    1f30:	f9 81       	ldd	r31, Y+1	; 0x01
    1f32:	83 89       	ldd	r24, Z+19	; 0x13
    1f34:	ef cf       	rjmp	.-34     	; 0x1f14 <u8x8_d_ssd1306_128x64_noname+0xb6>
    1f36:	0e 94 c1 0e 	call	0x1d82	; 0x1d82 <u8x8_cad_StartTransfer>
    1f3a:	61 e8       	ldi	r22, 0x81	; 129
    1f3c:	ce 01       	movw	r24, r28
    1f3e:	0e 94 26 0f 	call	0x1e4c	; 0x1e4c <u8x8_cad_SendCmd>
    1f42:	60 2f       	mov	r22, r16
    1f44:	ce 01       	movw	r24, r28
    1f46:	0e 94 1d 0f 	call	0x1e3a	; 0x1e3a <u8x8_cad_SendArg>
    1f4a:	ce 01       	movw	r24, r28
    1f4c:	0e 94 b8 0e 	call	0x1d70	; 0x1d70 <u8x8_cad_EndTransfer>
    1f50:	e2 cf       	rjmp	.-60     	; 0x1f16 <u8x8_d_ssd1306_128x64_noname+0xb8>
    1f52:	ea 85       	ldd	r30, Y+10	; 0x0a
    1f54:	fb 85       	ldd	r31, Y+11	; 0x0b
    1f56:	30 e0       	ldi	r19, 0x00	; 0
    1f58:	20 e0       	ldi	r18, 0x00	; 0
    1f5a:	40 e0       	ldi	r20, 0x00	; 0
    1f5c:	68 e2       	ldi	r22, 0x28	; 40
    1f5e:	ce 01       	movw	r24, r28
    1f60:	09 95       	icall
    1f62:	ee 81       	ldd	r30, Y+6	; 0x06
    1f64:	ff 81       	ldd	r31, Y+7	; 0x07
    1f66:	30 e0       	ldi	r19, 0x00	; 0
    1f68:	20 e0       	ldi	r18, 0x00	; 0
    1f6a:	40 e0       	ldi	r20, 0x00	; 0
    1f6c:	64 e1       	ldi	r22, 0x14	; 20
    1f6e:	ce 01       	movw	r24, r28
    1f70:	09 95       	icall
    1f72:	41 e0       	ldi	r20, 0x01	; 1
    1f74:	6b e4       	ldi	r22, 0x4B	; 75
    1f76:	ce 01       	movw	r24, r28
    1f78:	0e 94 b1 0e 	call	0x1d62	; 0x1d62 <u8x8_gpio_call>
    1f7c:	e8 81       	ld	r30, Y
    1f7e:	f9 81       	ldd	r31, Y+1	; 0x01
    1f80:	44 81       	ldd	r20, Z+4	; 0x04
    1f82:	69 e2       	ldi	r22, 0x29	; 41
    1f84:	ce 01       	movw	r24, r28
    1f86:	0e 94 b1 0e 	call	0x1d62	; 0x1d62 <u8x8_gpio_call>
    1f8a:	40 e0       	ldi	r20, 0x00	; 0
    1f8c:	6b e4       	ldi	r22, 0x4B	; 75
    1f8e:	ce 01       	movw	r24, r28
    1f90:	0e 94 b1 0e 	call	0x1d62	; 0x1d62 <u8x8_gpio_call>
    1f94:	e8 81       	ld	r30, Y
    1f96:	f9 81       	ldd	r31, Y+1	; 0x01
    1f98:	44 81       	ldd	r20, Z+4	; 0x04
    1f9a:	69 e2       	ldi	r22, 0x29	; 41
    1f9c:	ce 01       	movw	r24, r28
    1f9e:	0e 94 b1 0e 	call	0x1d62	; 0x1d62 <u8x8_gpio_call>
    1fa2:	41 e0       	ldi	r20, 0x01	; 1
    1fa4:	6b e4       	ldi	r22, 0x4B	; 75
    1fa6:	ce 01       	movw	r24, r28
    1fa8:	0e 94 b1 0e 	call	0x1d62	; 0x1d62 <u8x8_gpio_call>
    1fac:	e8 81       	ld	r30, Y
    1fae:	f9 81       	ldd	r31, Y+1	; 0x01
    1fb0:	45 81       	ldd	r20, Z+5	; 0x05
    1fb2:	69 e2       	ldi	r22, 0x29	; 41
    1fb4:	ce 01       	movw	r24, r28
    1fb6:	0e 94 b1 0e 	call	0x1d62	; 0x1d62 <u8x8_gpio_call>
    1fba:	69 e2       	ldi	r22, 0x29	; 41
    1fbc:	71 e0       	ldi	r23, 0x01	; 1
    1fbe:	9d cf       	rjmp	.-198    	; 0x1efa <u8x8_d_ssd1306_128x64_noname+0x9c>
    1fc0:	8e e5       	ldi	r24, 0x5E	; 94
    1fc2:	91 e0       	ldi	r25, 0x01	; 1
    1fc4:	99 83       	std	Y+1, r25	; 0x01
    1fc6:	88 83       	st	Y, r24
    1fc8:	1c 8a       	std	Y+20, r1	; 0x14
    1fca:	a5 cf       	rjmp	.-182    	; 0x1f16 <u8x8_d_ssd1306_128x64_noname+0xb8>

00001fcc <u8x8_byte_EndTransfer>:
    1fcc:	dc 01       	movw	r26, r24
    1fce:	18 96       	adiw	r26, 0x08	; 8
    1fd0:	ed 91       	ld	r30, X+
    1fd2:	fc 91       	ld	r31, X
    1fd4:	30 e0       	ldi	r19, 0x00	; 0
    1fd6:	20 e0       	ldi	r18, 0x00	; 0
    1fd8:	40 e0       	ldi	r20, 0x00	; 0
    1fda:	69 e1       	ldi	r22, 0x19	; 25
    1fdc:	09 94       	ijmp

00001fde <u8x8_byte_StartTransfer>:
    1fde:	dc 01       	movw	r26, r24
    1fe0:	18 96       	adiw	r26, 0x08	; 8
    1fe2:	ed 91       	ld	r30, X+
    1fe4:	fc 91       	ld	r31, X
    1fe6:	30 e0       	ldi	r19, 0x00	; 0
    1fe8:	20 e0       	ldi	r18, 0x00	; 0
    1fea:	40 e0       	ldi	r20, 0x00	; 0
    1fec:	68 e1       	ldi	r22, 0x18	; 24
    1fee:	09 94       	ijmp

00001ff0 <u8x8_byte_SendByte>:
    1ff0:	cf 93       	push	r28
    1ff2:	df 93       	push	r29
    1ff4:	1f 92       	push	r1
    1ff6:	cd b7       	in	r28, 0x3d	; 61
    1ff8:	de b7       	in	r29, 0x3e	; 62
    1ffa:	69 83       	std	Y+1, r22	; 0x01
    1ffc:	be 01       	movw	r22, r28
    1ffe:	6f 5f       	subi	r22, 0xFF	; 255
    2000:	7f 4f       	sbci	r23, 0xFF	; 255
    2002:	0e 94 ad 07 	call	0xf5a	; 0xf5a <u8x8_byte_SendBytes.constprop.5>
    2006:	0f 90       	pop	r0
    2008:	df 91       	pop	r29
    200a:	cf 91       	pop	r28
    200c:	08 95       	ret

0000200e <u8x8_i2c_data_transfer>:
    200e:	ef 92       	push	r14
    2010:	ff 92       	push	r15
    2012:	1f 93       	push	r17
    2014:	cf 93       	push	r28
    2016:	df 93       	push	r29
    2018:	ec 01       	movw	r28, r24
    201a:	16 2f       	mov	r17, r22
    201c:	7a 01       	movw	r14, r20
    201e:	0e 94 ef 0f 	call	0x1fde	; 0x1fde <u8x8_byte_StartTransfer>
    2022:	60 e4       	ldi	r22, 0x40	; 64
    2024:	ce 01       	movw	r24, r28
    2026:	0e 94 f8 0f 	call	0x1ff0	; 0x1ff0 <u8x8_byte_SendByte>
    202a:	e8 85       	ldd	r30, Y+8	; 0x08
    202c:	f9 85       	ldd	r31, Y+9	; 0x09
    202e:	97 01       	movw	r18, r14
    2030:	41 2f       	mov	r20, r17
    2032:	67 e1       	ldi	r22, 0x17	; 23
    2034:	ce 01       	movw	r24, r28
    2036:	09 95       	icall
    2038:	ce 01       	movw	r24, r28
    203a:	df 91       	pop	r29
    203c:	cf 91       	pop	r28
    203e:	1f 91       	pop	r17
    2040:	ff 90       	pop	r15
    2042:	ef 90       	pop	r14
    2044:	0c 94 e6 0f 	jmp	0x1fcc	; 0x1fcc <u8x8_byte_EndTransfer>

00002048 <u8x8_cad_ssd13xx_fast_i2c>:
    2048:	ef 92       	push	r14
    204a:	ff 92       	push	r15
    204c:	1f 93       	push	r17
    204e:	cf 93       	push	r28
    2050:	df 93       	push	r29
    2052:	ec 01       	movw	r28, r24
    2054:	14 2f       	mov	r17, r20
    2056:	79 01       	movw	r14, r18
    2058:	66 31       	cpi	r22, 0x16	; 22
    205a:	81 f1       	breq	.+96     	; 0x20bc <u8x8_cad_ssd13xx_fast_i2c+0x74>
    205c:	38 f4       	brcc	.+14     	; 0x206c <u8x8_cad_ssd13xx_fast_i2c+0x24>
    205e:	64 31       	cpi	r22, 0x14	; 20
    2060:	09 f4       	brne	.+2      	; 0x2064 <u8x8_cad_ssd13xx_fast_i2c+0x1c>
    2062:	4b c0       	rjmp	.+150    	; 0x20fa <u8x8_cad_ssd13xx_fast_i2c+0xb2>
    2064:	65 31       	cpi	r22, 0x15	; 21
    2066:	79 f0       	breq	.+30     	; 0x2086 <u8x8_cad_ssd13xx_fast_i2c+0x3e>
    2068:	80 e0       	ldi	r24, 0x00	; 0
    206a:	22 c0       	rjmp	.+68     	; 0x20b0 <u8x8_cad_ssd13xx_fast_i2c+0x68>
    206c:	68 31       	cpi	r22, 0x18	; 24
    206e:	c9 f1       	breq	.+114    	; 0x20e2 <u8x8_cad_ssd13xx_fast_i2c+0x9a>
    2070:	50 f1       	brcs	.+84     	; 0x20c6 <u8x8_cad_ssd13xx_fast_i2c+0x7e>
    2072:	69 31       	cpi	r22, 0x19	; 25
    2074:	c9 f7       	brne	.-14     	; 0x2068 <u8x8_cad_ssd13xx_fast_i2c+0x20>
    2076:	80 91 a5 02 	lds	r24, 0x02A5	; 0x8002a5 <in_transfer.3464>
    207a:	88 23       	and	r24, r24
    207c:	91 f1       	breq	.+100    	; 0x20e2 <u8x8_cad_ssd13xx_fast_i2c+0x9a>
    207e:	ce 01       	movw	r24, r28
    2080:	0e 94 e6 0f 	call	0x1fcc	; 0x1fcc <u8x8_byte_EndTransfer>
    2084:	2e c0       	rjmp	.+92     	; 0x20e2 <u8x8_cad_ssd13xx_fast_i2c+0x9a>
    2086:	80 91 a5 02 	lds	r24, 0x02A5	; 0x8002a5 <in_transfer.3464>
    208a:	88 23       	and	r24, r24
    208c:	19 f0       	breq	.+6      	; 0x2094 <u8x8_cad_ssd13xx_fast_i2c+0x4c>
    208e:	ce 01       	movw	r24, r28
    2090:	0e 94 e6 0f 	call	0x1fcc	; 0x1fcc <u8x8_byte_EndTransfer>
    2094:	ce 01       	movw	r24, r28
    2096:	0e 94 ef 0f 	call	0x1fde	; 0x1fde <u8x8_byte_StartTransfer>
    209a:	60 e0       	ldi	r22, 0x00	; 0
    209c:	ce 01       	movw	r24, r28
    209e:	0e 94 f8 0f 	call	0x1ff0	; 0x1ff0 <u8x8_byte_SendByte>
    20a2:	61 2f       	mov	r22, r17
    20a4:	ce 01       	movw	r24, r28
    20a6:	0e 94 f8 0f 	call	0x1ff0	; 0x1ff0 <u8x8_byte_SendByte>
    20aa:	81 e0       	ldi	r24, 0x01	; 1
    20ac:	80 93 a5 02 	sts	0x02A5, r24	; 0x8002a5 <in_transfer.3464>
    20b0:	df 91       	pop	r29
    20b2:	cf 91       	pop	r28
    20b4:	1f 91       	pop	r17
    20b6:	ff 90       	pop	r15
    20b8:	ef 90       	pop	r14
    20ba:	08 95       	ret
    20bc:	64 2f       	mov	r22, r20
    20be:	0e 94 f8 0f 	call	0x1ff0	; 0x1ff0 <u8x8_byte_SendByte>
    20c2:	81 e0       	ldi	r24, 0x01	; 1
    20c4:	f5 cf       	rjmp	.-22     	; 0x20b0 <u8x8_cad_ssd13xx_fast_i2c+0x68>
    20c6:	80 91 a5 02 	lds	r24, 0x02A5	; 0x8002a5 <in_transfer.3464>
    20ca:	88 23       	and	r24, r24
    20cc:	19 f0       	breq	.+6      	; 0x20d4 <u8x8_cad_ssd13xx_fast_i2c+0x8c>
    20ce:	ce 01       	movw	r24, r28
    20d0:	0e 94 e6 0f 	call	0x1fcc	; 0x1fcc <u8x8_byte_EndTransfer>
    20d4:	a7 01       	movw	r20, r14
    20d6:	19 31       	cpi	r17, 0x19	; 25
    20d8:	38 f4       	brcc	.+14     	; 0x20e8 <u8x8_cad_ssd13xx_fast_i2c+0xa0>
    20da:	61 2f       	mov	r22, r17
    20dc:	ce 01       	movw	r24, r28
    20de:	0e 94 07 10 	call	0x200e	; 0x200e <u8x8_i2c_data_transfer>
    20e2:	10 92 a5 02 	sts	0x02A5, r1	; 0x8002a5 <in_transfer.3464>
    20e6:	ed cf       	rjmp	.-38     	; 0x20c2 <u8x8_cad_ssd13xx_fast_i2c+0x7a>
    20e8:	68 e1       	ldi	r22, 0x18	; 24
    20ea:	ce 01       	movw	r24, r28
    20ec:	0e 94 07 10 	call	0x200e	; 0x200e <u8x8_i2c_data_transfer>
    20f0:	18 51       	subi	r17, 0x18	; 24
    20f2:	88 e1       	ldi	r24, 0x18	; 24
    20f4:	e8 0e       	add	r14, r24
    20f6:	f1 1c       	adc	r15, r1
    20f8:	ed cf       	rjmp	.-38     	; 0x20d4 <u8x8_cad_ssd13xx_fast_i2c+0x8c>
    20fa:	8e 89       	ldd	r24, Y+22	; 0x16
    20fc:	8f 3f       	cpi	r24, 0xFF	; 255
    20fe:	11 f4       	brne	.+4      	; 0x2104 <u8x8_cad_ssd13xx_fast_i2c+0xbc>
    2100:	88 e7       	ldi	r24, 0x78	; 120
    2102:	8e 8b       	std	Y+22, r24	; 0x16
    2104:	e8 85       	ldd	r30, Y+8	; 0x08
    2106:	f9 85       	ldd	r31, Y+9	; 0x09
    2108:	97 01       	movw	r18, r14
    210a:	41 2f       	mov	r20, r17
    210c:	64 e1       	ldi	r22, 0x14	; 20
    210e:	ce 01       	movw	r24, r28
    2110:	df 91       	pop	r29
    2112:	cf 91       	pop	r28
    2114:	1f 91       	pop	r17
    2116:	ff 90       	pop	r15
    2118:	ef 90       	pop	r14
    211a:	09 94       	ijmp

0000211c <u8x8_utf8_next>:
    211c:	fc 01       	movw	r30, r24
    211e:	66 23       	and	r22, r22
    2120:	d9 f1       	breq	.+118    	; 0x2198 <u8x8_utf8_next+0x7c>
    2122:	6a 30       	cpi	r22, 0x0A	; 10
    2124:	c9 f1       	breq	.+114    	; 0x2198 <u8x8_utf8_next+0x7c>
    2126:	80 8d       	ldd	r24, Z+24	; 0x18
    2128:	81 11       	cpse	r24, r1
    212a:	25 c0       	rjmp	.+74     	; 0x2176 <u8x8_utf8_next+0x5a>
    212c:	6c 3f       	cpi	r22, 0xFC	; 252
    212e:	48 f0       	brcs	.+18     	; 0x2142 <u8x8_utf8_next+0x26>
    2130:	85 e0       	ldi	r24, 0x05	; 5
    2132:	80 8f       	std	Z+24, r24	; 0x18
    2134:	61 70       	andi	r22, 0x01	; 1
    2136:	70 e0       	ldi	r23, 0x00	; 0
    2138:	73 8b       	std	Z+19, r23	; 0x13
    213a:	62 8b       	std	Z+18, r22	; 0x12
    213c:	2e ef       	ldi	r18, 0xFE	; 254
    213e:	3f ef       	ldi	r19, 0xFF	; 255
    2140:	29 c0       	rjmp	.+82     	; 0x2194 <u8x8_utf8_next+0x78>
    2142:	68 3f       	cpi	r22, 0xF8	; 248
    2144:	20 f0       	brcs	.+8      	; 0x214e <u8x8_utf8_next+0x32>
    2146:	84 e0       	ldi	r24, 0x04	; 4
    2148:	80 8f       	std	Z+24, r24	; 0x18
    214a:	63 70       	andi	r22, 0x03	; 3
    214c:	f4 cf       	rjmp	.-24     	; 0x2136 <u8x8_utf8_next+0x1a>
    214e:	60 3f       	cpi	r22, 0xF0	; 240
    2150:	20 f0       	brcs	.+8      	; 0x215a <u8x8_utf8_next+0x3e>
    2152:	83 e0       	ldi	r24, 0x03	; 3
    2154:	80 8f       	std	Z+24, r24	; 0x18
    2156:	67 70       	andi	r22, 0x07	; 7
    2158:	ee cf       	rjmp	.-36     	; 0x2136 <u8x8_utf8_next+0x1a>
    215a:	60 3e       	cpi	r22, 0xE0	; 224
    215c:	20 f0       	brcs	.+8      	; 0x2166 <u8x8_utf8_next+0x4a>
    215e:	82 e0       	ldi	r24, 0x02	; 2
    2160:	80 8f       	std	Z+24, r24	; 0x18
    2162:	6f 70       	andi	r22, 0x0F	; 15
    2164:	e8 cf       	rjmp	.-48     	; 0x2136 <u8x8_utf8_next+0x1a>
    2166:	26 2f       	mov	r18, r22
    2168:	30 e0       	ldi	r19, 0x00	; 0
    216a:	60 3c       	cpi	r22, 0xC0	; 192
    216c:	98 f0       	brcs	.+38     	; 0x2194 <u8x8_utf8_next+0x78>
    216e:	81 e0       	ldi	r24, 0x01	; 1
    2170:	80 8f       	std	Z+24, r24	; 0x18
    2172:	6f 71       	andi	r22, 0x1F	; 31
    2174:	e0 cf       	rjmp	.-64     	; 0x2136 <u8x8_utf8_next+0x1a>
    2176:	81 50       	subi	r24, 0x01	; 1
    2178:	80 8f       	std	Z+24, r24	; 0x18
    217a:	22 89       	ldd	r18, Z+18	; 0x12
    217c:	33 89       	ldd	r19, Z+19	; 0x13
    217e:	96 e0       	ldi	r25, 0x06	; 6
    2180:	22 0f       	add	r18, r18
    2182:	33 1f       	adc	r19, r19
    2184:	9a 95       	dec	r25
    2186:	e1 f7       	brne	.-8      	; 0x2180 <u8x8_utf8_next+0x64>
    2188:	6f 73       	andi	r22, 0x3F	; 63
    218a:	26 2b       	or	r18, r22
    218c:	33 8b       	std	Z+19, r19	; 0x13
    218e:	22 8b       	std	Z+18, r18	; 0x12
    2190:	81 11       	cpse	r24, r1
    2192:	d4 cf       	rjmp	.-88     	; 0x213c <u8x8_utf8_next+0x20>
    2194:	c9 01       	movw	r24, r18
    2196:	08 95       	ret
    2198:	2f ef       	ldi	r18, 0xFF	; 255
    219a:	3f ef       	ldi	r19, 0xFF	; 255
    219c:	fb cf       	rjmp	.-10     	; 0x2194 <u8x8_utf8_next+0x78>

0000219e <u8g2_draw_l90_r0>:
    219e:	0f 93       	push	r16
    21a0:	fc 01       	movw	r30, r24
    21a2:	e0 5c       	subi	r30, 0xC0	; 192
    21a4:	ff 4f       	sbci	r31, 0xFF	; 255
    21a6:	01 90       	ld	r0, Z+
    21a8:	f0 81       	ld	r31, Z
    21aa:	e0 2d       	mov	r30, r0
    21ac:	4e 1b       	sub	r20, r30
    21ae:	5f 0b       	sbc	r21, r31
    21b0:	dc 01       	movw	r26, r24
    21b2:	d4 96       	adiw	r26, 0x34	; 52
    21b4:	ed 91       	ld	r30, X+
    21b6:	fc 91       	ld	r31, X
    21b8:	09 95       	icall
    21ba:	0f 91       	pop	r16
    21bc:	08 95       	ret

000021be <u8g2_update_dimension_r0>:
    21be:	cf 93       	push	r28
    21c0:	df 93       	push	r29
    21c2:	fc 01       	movw	r30, r24
    21c4:	a0 81       	ld	r26, Z
    21c6:	b1 81       	ldd	r27, Z+1	; 0x01
    21c8:	82 ad       	ldd	r24, Z+58	; 0x3a
    21ca:	90 e0       	ldi	r25, 0x00	; 0
    21cc:	9c 01       	movw	r18, r24
    21ce:	43 e0       	ldi	r20, 0x03	; 3
    21d0:	22 0f       	add	r18, r18
    21d2:	33 1f       	adc	r19, r19
    21d4:	4a 95       	dec	r20
    21d6:	e1 f7       	brne	.-8      	; 0x21d0 <u8g2_update_dimension_r0+0x12>
    21d8:	37 af       	std	Z+63, r19	; 0x3f
    21da:	26 af       	std	Z+62, r18	; 0x3e
    21dc:	50 96       	adiw	r26, 0x10	; 16
    21de:	2c 91       	ld	r18, X
    21e0:	50 97       	sbiw	r26, 0x10	; 16
    21e2:	48 e0       	ldi	r20, 0x08	; 8
    21e4:	24 9f       	mul	r18, r20
    21e6:	90 01       	movw	r18, r0
    21e8:	11 24       	eor	r1, r1
    21ea:	35 af       	std	Z+61, r19	; 0x3d
    21ec:	24 af       	std	Z+60, r18	; 0x3c
    21ee:	23 ad       	ldd	r18, Z+59	; 0x3b
    21f0:	30 e0       	ldi	r19, 0x00	; 0
    21f2:	b9 01       	movw	r22, r18
    21f4:	53 e0       	ldi	r21, 0x03	; 3
    21f6:	66 0f       	add	r22, r22
    21f8:	77 1f       	adc	r23, r23
    21fa:	5a 95       	dec	r21
    21fc:	e1 f7       	brne	.-8      	; 0x21f6 <u8g2_update_dimension_r0+0x38>
    21fe:	ef 01       	movw	r28, r30
    2200:	c0 5c       	subi	r28, 0xC0	; 192
    2202:	df 4f       	sbci	r29, 0xFF	; 255
    2204:	79 83       	std	Y+1, r23	; 0x01
    2206:	68 83       	st	Y, r22
    2208:	51 96       	adiw	r26, 0x11	; 17
    220a:	4c 91       	ld	r20, X
    220c:	51 97       	sbiw	r26, 0x11	; 17
    220e:	e9 01       	movw	r28, r18
    2210:	c8 0f       	add	r28, r24
    2212:	d9 1f       	adc	r29, r25
    2214:	50 e0       	ldi	r21, 0x00	; 0
    2216:	4c 17       	cp	r20, r28
    2218:	5d 07       	cpc	r21, r29
    221a:	18 f4       	brcc	.+6      	; 0x2222 <u8g2_update_dimension_r0+0x64>
    221c:	ca 01       	movw	r24, r20
    221e:	82 1b       	sub	r24, r18
    2220:	93 0b       	sbc	r25, r19
    2222:	ef 01       	movw	r28, r30
    2224:	ce 5b       	subi	r28, 0xBE	; 190
    2226:	df 4f       	sbci	r29, 0xFF	; 255
    2228:	79 83       	std	Y+1, r23	; 0x01
    222a:	68 83       	st	Y, r22
    222c:	22 96       	adiw	r28, 0x02	; 2
    222e:	23 e0       	ldi	r18, 0x03	; 3
    2230:	88 0f       	add	r24, r24
    2232:	99 1f       	adc	r25, r25
    2234:	2a 95       	dec	r18
    2236:	e1 f7       	brne	.-8      	; 0x2230 <u8g2_update_dimension_r0+0x72>
    2238:	86 0f       	add	r24, r22
    223a:	97 1f       	adc	r25, r23
    223c:	99 83       	std	Y+1, r25	; 0x01
    223e:	88 83       	st	Y, r24
    2240:	22 96       	adiw	r28, 0x02	; 2
    2242:	54 96       	adiw	r26, 0x14	; 20
    2244:	8d 91       	ld	r24, X+
    2246:	9c 91       	ld	r25, X
    2248:	55 97       	sbiw	r26, 0x15	; 21
    224a:	99 83       	std	Y+1, r25	; 0x01
    224c:	88 83       	st	Y, r24
    224e:	e8 5b       	subi	r30, 0xB8	; 184
    2250:	ff 4f       	sbci	r31, 0xFF	; 255
    2252:	56 96       	adiw	r26, 0x16	; 22
    2254:	8d 91       	ld	r24, X+
    2256:	9c 91       	ld	r25, X
    2258:	91 83       	std	Z+1, r25	; 0x01
    225a:	80 83       	st	Z, r24
    225c:	df 91       	pop	r29
    225e:	cf 91       	pop	r28
    2260:	08 95       	ret

00002262 <u8g2_IsIntersection>:
    2262:	0f 93       	push	r16
    2264:	1f 93       	push	r17
    2266:	fc 01       	movw	r30, r24
    2268:	e2 5b       	subi	r30, 0xB2	; 178
    226a:	ff 4f       	sbci	r31, 0xFF	; 255
    226c:	01 90       	ld	r0, Z+
    226e:	f0 81       	ld	r31, Z
    2270:	e0 2d       	mov	r30, r0
    2272:	dc 01       	movw	r26, r24
    2274:	a0 5b       	subi	r26, 0xB0	; 176
    2276:	bf 4f       	sbci	r27, 0xFF	; 255
    2278:	0d 90       	ld	r0, X+
    227a:	bc 91       	ld	r27, X
    227c:	a0 2d       	mov	r26, r0
    227e:	4a 17       	cp	r20, r26
    2280:	5b 07       	cpc	r21, r27
    2282:	40 f4       	brcc	.+16     	; 0x2294 <u8g2_IsIntersection+0x32>
    2284:	e0 17       	cp	r30, r16
    2286:	f1 07       	cpc	r31, r17
    2288:	48 f0       	brcs	.+18     	; 0x229c <u8g2_IsIntersection+0x3a>
    228a:	04 17       	cp	r16, r20
    228c:	15 07       	cpc	r17, r21
    228e:	30 f0       	brcs	.+12     	; 0x229c <u8g2_IsIntersection+0x3a>
    2290:	80 e0       	ldi	r24, 0x00	; 0
    2292:	19 c0       	rjmp	.+50     	; 0x22c6 <u8g2_IsIntersection+0x64>
    2294:	e0 17       	cp	r30, r16
    2296:	f1 07       	cpc	r31, r17
    2298:	c0 f3       	brcs	.-16     	; 0x228a <u8g2_IsIntersection+0x28>
    229a:	fa cf       	rjmp	.-12     	; 0x2290 <u8g2_IsIntersection+0x2e>
    229c:	fc 01       	movw	r30, r24
    229e:	e6 5b       	subi	r30, 0xB6	; 182
    22a0:	ff 4f       	sbci	r31, 0xFF	; 255
    22a2:	40 81       	ld	r20, Z
    22a4:	51 81       	ldd	r21, Z+1	; 0x01
    22a6:	84 5b       	subi	r24, 0xB4	; 180
    22a8:	9f 4f       	sbci	r25, 0xFF	; 255
    22aa:	fc 01       	movw	r30, r24
    22ac:	80 81       	ld	r24, Z
    22ae:	91 81       	ldd	r25, Z+1	; 0x01
    22b0:	68 17       	cp	r22, r24
    22b2:	79 07       	cpc	r23, r25
    22b4:	58 f4       	brcc	.+22     	; 0x22cc <u8g2_IsIntersection+0x6a>
    22b6:	81 e0       	ldi	r24, 0x01	; 1
    22b8:	42 17       	cp	r20, r18
    22ba:	53 07       	cpc	r21, r19
    22bc:	20 f0       	brcs	.+8      	; 0x22c6 <u8g2_IsIntersection+0x64>
    22be:	81 e0       	ldi	r24, 0x01	; 1
    22c0:	26 17       	cp	r18, r22
    22c2:	37 07       	cpc	r19, r23
    22c4:	28 f7       	brcc	.-54     	; 0x2290 <u8g2_IsIntersection+0x2e>
    22c6:	1f 91       	pop	r17
    22c8:	0f 91       	pop	r16
    22ca:	08 95       	ret
    22cc:	42 17       	cp	r20, r18
    22ce:	53 07       	cpc	r21, r19
    22d0:	b0 f3       	brcs	.-20     	; 0x22be <u8g2_IsIntersection+0x5c>
    22d2:	de cf       	rjmp	.-68     	; 0x2290 <u8g2_IsIntersection+0x2e>

000022d4 <u8g2_update_page_win_r0>:
    22d4:	2f 92       	push	r2
    22d6:	3f 92       	push	r3
    22d8:	4f 92       	push	r4
    22da:	5f 92       	push	r5
    22dc:	6f 92       	push	r6
    22de:	7f 92       	push	r7
    22e0:	8f 92       	push	r8
    22e2:	9f 92       	push	r9
    22e4:	af 92       	push	r10
    22e6:	bf 92       	push	r11
    22e8:	cf 92       	push	r12
    22ea:	df 92       	push	r13
    22ec:	ef 92       	push	r14
    22ee:	ff 92       	push	r15
    22f0:	0f 93       	push	r16
    22f2:	1f 93       	push	r17
    22f4:	cf 93       	push	r28
    22f6:	df 93       	push	r29
    22f8:	cd b7       	in	r28, 0x3d	; 61
    22fa:	de b7       	in	r29, 0x3e	; 62
    22fc:	2a 97       	sbiw	r28, 0x0a	; 10
    22fe:	0f b6       	in	r0, 0x3f	; 63
    2300:	f8 94       	cli
    2302:	de bf       	out	0x3e, r29	; 62
    2304:	0f be       	out	0x3f, r0	; 63
    2306:	cd bf       	out	0x3d, r28	; 61
    2308:	9a 87       	std	Y+10, r25	; 0x0a
    230a:	89 87       	std	Y+9, r24	; 0x09
    230c:	86 5b       	subi	r24, 0xB6	; 182
    230e:	9f 4f       	sbci	r25, 0xFF	; 255
    2310:	9a 83       	std	Y+2, r25	; 0x02
    2312:	89 83       	std	Y+1, r24	; 0x01
    2314:	fc 01       	movw	r30, r24
    2316:	11 82       	std	Z+1, r1	; 0x01
    2318:	10 82       	st	Z, r1
    231a:	e9 85       	ldd	r30, Y+9	; 0x09
    231c:	fa 85       	ldd	r31, Y+10	; 0x0a
    231e:	ea 5b       	subi	r30, 0xBA	; 186
    2320:	ff 4f       	sbci	r31, 0xFF	; 255
    2322:	40 80       	ld	r4, Z
    2324:	51 80       	ldd	r5, Z+1	; 0x01
    2326:	29 85       	ldd	r18, Y+9	; 0x09
    2328:	3a 85       	ldd	r19, Y+10	; 0x0a
    232a:	24 5b       	subi	r18, 0xB4	; 180
    232c:	3f 4f       	sbci	r19, 0xFF	; 255
    232e:	3c 83       	std	Y+4, r19	; 0x04
    2330:	2b 83       	std	Y+3, r18	; 0x03
    2332:	f9 01       	movw	r30, r18
    2334:	51 82       	std	Z+1, r5	; 0x01
    2336:	40 82       	st	Z, r4
    2338:	e9 85       	ldd	r30, Y+9	; 0x09
    233a:	fa 85       	ldd	r31, Y+10	; 0x0a
    233c:	ee 5b       	subi	r30, 0xBE	; 190
    233e:	ff 4f       	sbci	r31, 0xFF	; 255
    2340:	20 80       	ld	r2, Z
    2342:	31 80       	ldd	r3, Z+1	; 0x01
    2344:	29 85       	ldd	r18, Y+9	; 0x09
    2346:	3a 85       	ldd	r19, Y+10	; 0x0a
    2348:	22 5b       	subi	r18, 0xB2	; 178
    234a:	3f 4f       	sbci	r19, 0xFF	; 255
    234c:	3e 83       	std	Y+6, r19	; 0x06
    234e:	2d 83       	std	Y+5, r18	; 0x05
    2350:	f9 01       	movw	r30, r18
    2352:	31 82       	std	Z+1, r3	; 0x01
    2354:	20 82       	st	Z, r2
    2356:	e9 85       	ldd	r30, Y+9	; 0x09
    2358:	fa 85       	ldd	r31, Y+10	; 0x0a
    235a:	ec 5b       	subi	r30, 0xBC	; 188
    235c:	ff 4f       	sbci	r31, 0xFF	; 255
    235e:	60 80       	ld	r6, Z
    2360:	71 80       	ldd	r7, Z+1	; 0x01
    2362:	29 85       	ldd	r18, Y+9	; 0x09
    2364:	3a 85       	ldd	r19, Y+10	; 0x0a
    2366:	20 5b       	subi	r18, 0xB0	; 176
    2368:	3f 4f       	sbci	r19, 0xFF	; 255
    236a:	38 87       	std	Y+8, r19	; 0x08
    236c:	2f 83       	std	Y+7, r18	; 0x07
    236e:	f9 01       	movw	r30, r18
    2370:	71 82       	std	Z+1, r7	; 0x01
    2372:	60 82       	st	Z, r6
    2374:	e9 85       	ldd	r30, Y+9	; 0x09
    2376:	fa 85       	ldd	r31, Y+10	; 0x0a
    2378:	e8 5a       	subi	r30, 0xA8	; 168
    237a:	ff 4f       	sbci	r31, 0xFF	; 255
    237c:	e0 80       	ld	r14, Z
    237e:	f1 80       	ldd	r15, Z+1	; 0x01
    2380:	e9 85       	ldd	r30, Y+9	; 0x09
    2382:	fa 85       	ldd	r31, Y+10	; 0x0a
    2384:	ec 5a       	subi	r30, 0xAC	; 172
    2386:	ff 4f       	sbci	r31, 0xFF	; 255
    2388:	a0 80       	ld	r10, Z
    238a:	b1 80       	ldd	r11, Z+1	; 0x01
    238c:	e9 85       	ldd	r30, Y+9	; 0x09
    238e:	fa 85       	ldd	r31, Y+10	; 0x0a
    2390:	ea 5a       	subi	r30, 0xAA	; 170
    2392:	ff 4f       	sbci	r31, 0xFF	; 255
    2394:	c0 80       	ld	r12, Z
    2396:	d1 80       	ldd	r13, Z+1	; 0x01
    2398:	e9 85       	ldd	r30, Y+9	; 0x09
    239a:	fa 85       	ldd	r31, Y+10	; 0x0a
    239c:	ee 5a       	subi	r30, 0xAE	; 174
    239e:	ff 4f       	sbci	r31, 0xFF	; 255
    23a0:	80 80       	ld	r8, Z
    23a2:	91 80       	ldd	r9, Z+1	; 0x01
    23a4:	87 01       	movw	r16, r14
    23a6:	95 01       	movw	r18, r10
    23a8:	a6 01       	movw	r20, r12
    23aa:	b4 01       	movw	r22, r8
    23ac:	89 85       	ldd	r24, Y+9	; 0x09
    23ae:	9a 85       	ldd	r25, Y+10	; 0x0a
    23b0:	0e 94 31 11 	call	0x2262	; 0x2262 <u8g2_IsIntersection>
    23b4:	29 85       	ldd	r18, Y+9	; 0x09
    23b6:	3a 85       	ldd	r19, Y+10	; 0x0a
    23b8:	2c 57       	subi	r18, 0x7C	; 124
    23ba:	3f 4f       	sbci	r19, 0xFF	; 255
    23bc:	3a 87       	std	Y+10, r19	; 0x0a
    23be:	29 87       	std	Y+9, r18	; 0x09
    23c0:	81 11       	cpse	r24, r1
    23c2:	1b c0       	rjmp	.+54     	; 0x23fa <u8g2_update_page_win_r0+0x126>
    23c4:	f9 01       	movw	r30, r18
    23c6:	10 82       	st	Z, r1
    23c8:	2a 96       	adiw	r28, 0x0a	; 10
    23ca:	0f b6       	in	r0, 0x3f	; 63
    23cc:	f8 94       	cli
    23ce:	de bf       	out	0x3e, r29	; 62
    23d0:	0f be       	out	0x3f, r0	; 63
    23d2:	cd bf       	out	0x3d, r28	; 61
    23d4:	df 91       	pop	r29
    23d6:	cf 91       	pop	r28
    23d8:	1f 91       	pop	r17
    23da:	0f 91       	pop	r16
    23dc:	ff 90       	pop	r15
    23de:	ef 90       	pop	r14
    23e0:	df 90       	pop	r13
    23e2:	cf 90       	pop	r12
    23e4:	bf 90       	pop	r11
    23e6:	af 90       	pop	r10
    23e8:	9f 90       	pop	r9
    23ea:	8f 90       	pop	r8
    23ec:	7f 90       	pop	r7
    23ee:	6f 90       	pop	r6
    23f0:	5f 90       	pop	r5
    23f2:	4f 90       	pop	r4
    23f4:	3f 90       	pop	r3
    23f6:	2f 90       	pop	r2
    23f8:	08 95       	ret
    23fa:	81 e0       	ldi	r24, 0x01	; 1
    23fc:	e9 85       	ldd	r30, Y+9	; 0x09
    23fe:	fa 85       	ldd	r31, Y+10	; 0x0a
    2400:	80 83       	st	Z, r24
    2402:	81 14       	cp	r8, r1
    2404:	91 04       	cpc	r9, r1
    2406:	21 f0       	breq	.+8      	; 0x2410 <u8g2_update_page_win_r0+0x13c>
    2408:	e9 81       	ldd	r30, Y+1	; 0x01
    240a:	fa 81       	ldd	r31, Y+2	; 0x02
    240c:	91 82       	std	Z+1, r9	; 0x01
    240e:	80 82       	st	Z, r8
    2410:	a4 14       	cp	r10, r4
    2412:	b5 04       	cpc	r11, r5
    2414:	20 f4       	brcc	.+8      	; 0x241e <u8g2_update_page_win_r0+0x14a>
    2416:	eb 81       	ldd	r30, Y+3	; 0x03
    2418:	fc 81       	ldd	r31, Y+4	; 0x04
    241a:	b1 82       	std	Z+1, r11	; 0x01
    241c:	a0 82       	st	Z, r10
    241e:	2c 14       	cp	r2, r12
    2420:	3d 04       	cpc	r3, r13
    2422:	20 f4       	brcc	.+8      	; 0x242c <u8g2_update_page_win_r0+0x158>
    2424:	ed 81       	ldd	r30, Y+5	; 0x05
    2426:	fe 81       	ldd	r31, Y+6	; 0x06
    2428:	d1 82       	std	Z+1, r13	; 0x01
    242a:	c0 82       	st	Z, r12
    242c:	e6 14       	cp	r14, r6
    242e:	f7 04       	cpc	r15, r7
    2430:	58 f6       	brcc	.-106    	; 0x23c8 <u8g2_update_page_win_r0+0xf4>
    2432:	ef 81       	ldd	r30, Y+7	; 0x07
    2434:	f8 85       	ldd	r31, Y+8	; 0x08
    2436:	f1 82       	std	Z+1, r15	; 0x01
    2438:	e0 82       	st	Z, r14
    243a:	c6 cf       	rjmp	.-116    	; 0x23c8 <u8g2_update_page_win_r0+0xf4>

0000243c <u8g2_DrawHVLine>:
    243c:	0f 93       	push	r16
    243e:	cf 93       	push	r28
    2440:	df 93       	push	r29
    2442:	e0 2f       	mov	r30, r16
    2444:	dc 01       	movw	r26, r24
    2446:	ac 57       	subi	r26, 0x7C	; 124
    2448:	bf 4f       	sbci	r27, 0xFF	; 255
    244a:	fc 91       	ld	r31, X
    244c:	ff 23       	and	r31, r31
    244e:	09 f4       	brne	.+2      	; 0x2452 <u8g2_DrawHVLine+0x16>
    2450:	60 c0       	rjmp	.+192    	; 0x2512 <u8g2_DrawHVLine+0xd6>
    2452:	21 15       	cp	r18, r1
    2454:	31 05       	cpc	r19, r1
    2456:	09 f4       	brne	.+2      	; 0x245a <u8g2_DrawHVLine+0x1e>
    2458:	5c c0       	rjmp	.+184    	; 0x2512 <u8g2_DrawHVLine+0xd6>
    245a:	22 30       	cpi	r18, 0x02	; 2
    245c:	31 05       	cpc	r19, r1
    245e:	38 f0       	brcs	.+14     	; 0x246e <u8g2_DrawHVLine+0x32>
    2460:	02 30       	cpi	r16, 0x02	; 2
    2462:	09 f0       	breq	.+2      	; 0x2466 <u8g2_DrawHVLine+0x2a>
    2464:	4a c0       	rjmp	.+148    	; 0x24fa <u8g2_DrawHVLine+0xbe>
    2466:	6f 5f       	subi	r22, 0xFF	; 255
    2468:	7f 4f       	sbci	r23, 0xFF	; 255
    246a:	62 1b       	sub	r22, r18
    246c:	73 0b       	sbc	r23, r19
    246e:	0e 2f       	mov	r16, r30
    2470:	01 70       	andi	r16, 0x01	; 1
    2472:	e0 fd       	sbrc	r30, 0
    2474:	52 c0       	rjmp	.+164    	; 0x251a <u8g2_DrawHVLine+0xde>
    2476:	fc 01       	movw	r30, r24
    2478:	e2 5b       	subi	r30, 0xB2	; 178
    247a:	ff 4f       	sbci	r31, 0xFF	; 255
    247c:	01 90       	ld	r0, Z+
    247e:	f0 81       	ld	r31, Z
    2480:	e0 2d       	mov	r30, r0
    2482:	4e 17       	cp	r20, r30
    2484:	5f 07       	cpc	r21, r31
    2486:	08 f4       	brcc	.+2      	; 0x248a <u8g2_DrawHVLine+0x4e>
    2488:	44 c0       	rjmp	.+136    	; 0x2512 <u8g2_DrawHVLine+0xd6>
    248a:	fc 01       	movw	r30, r24
    248c:	e0 5b       	subi	r30, 0xB0	; 176
    248e:	ff 4f       	sbci	r31, 0xFF	; 255
    2490:	01 90       	ld	r0, Z+
    2492:	f0 81       	ld	r31, Z
    2494:	e0 2d       	mov	r30, r0
    2496:	4e 17       	cp	r20, r30
    2498:	5f 07       	cpc	r21, r31
    249a:	d8 f5       	brcc	.+118    	; 0x2512 <u8g2_DrawHVLine+0xd6>
    249c:	fc 01       	movw	r30, r24
    249e:	e4 5b       	subi	r30, 0xB4	; 180
    24a0:	ff 4f       	sbci	r31, 0xFF	; 255
    24a2:	01 90       	ld	r0, Z+
    24a4:	f0 81       	ld	r31, Z
    24a6:	e0 2d       	mov	r30, r0
    24a8:	dc 01       	movw	r26, r24
    24aa:	a6 5b       	subi	r26, 0xB6	; 182
    24ac:	bf 4f       	sbci	r27, 0xFF	; 255
    24ae:	0d 90       	ld	r0, X+
    24b0:	bc 91       	ld	r27, X
    24b2:	a0 2d       	mov	r26, r0
    24b4:	26 0f       	add	r18, r22
    24b6:	37 1f       	adc	r19, r23
    24b8:	26 17       	cp	r18, r22
    24ba:	37 07       	cpc	r19, r23
    24bc:	38 f5       	brcc	.+78     	; 0x250c <u8g2_DrawHVLine+0xd0>
    24be:	6e 17       	cp	r22, r30
    24c0:	7f 07       	cpc	r23, r31
    24c2:	18 f5       	brcc	.+70     	; 0x250a <u8g2_DrawHVLine+0xce>
    24c4:	9f 01       	movw	r18, r30
    24c6:	21 50       	subi	r18, 0x01	; 1
    24c8:	31 09       	sbc	r19, r1
    24ca:	a2 17       	cp	r26, r18
    24cc:	b3 07       	cpc	r27, r19
    24ce:	08 f5       	brcc	.+66     	; 0x2512 <u8g2_DrawHVLine+0xd6>
    24d0:	6a 17       	cp	r22, r26
    24d2:	7b 07       	cpc	r23, r27
    24d4:	08 f4       	brcc	.+2      	; 0x24d8 <u8g2_DrawHVLine+0x9c>
    24d6:	bd 01       	movw	r22, r26
    24d8:	2e 17       	cp	r18, r30
    24da:	3f 07       	cpc	r19, r31
    24dc:	08 f4       	brcc	.+2      	; 0x24e0 <u8g2_DrawHVLine+0xa4>
    24de:	f9 01       	movw	r30, r18
    24e0:	e6 1b       	sub	r30, r22
    24e2:	f7 0b       	sbc	r31, r23
    24e4:	ec 01       	movw	r28, r24
    24e6:	ae a9       	ldd	r26, Y+54	; 0x36
    24e8:	bf a9       	ldd	r27, Y+55	; 0x37
    24ea:	14 96       	adiw	r26, 0x04	; 4
    24ec:	0d 90       	ld	r0, X+
    24ee:	bc 91       	ld	r27, X
    24f0:	a0 2d       	mov	r26, r0
    24f2:	9f 01       	movw	r18, r30
    24f4:	fd 01       	movw	r30, r26
    24f6:	09 95       	icall
    24f8:	0c c0       	rjmp	.+24     	; 0x2512 <u8g2_DrawHVLine+0xd6>
    24fa:	03 30       	cpi	r16, 0x03	; 3
    24fc:	09 f0       	breq	.+2      	; 0x2500 <u8g2_DrawHVLine+0xc4>
    24fe:	b7 cf       	rjmp	.-146    	; 0x246e <u8g2_DrawHVLine+0x32>
    2500:	4f 5f       	subi	r20, 0xFF	; 255
    2502:	5f 4f       	sbci	r21, 0xFF	; 255
    2504:	42 1b       	sub	r20, r18
    2506:	53 0b       	sbc	r21, r19
    2508:	b2 cf       	rjmp	.-156    	; 0x246e <u8g2_DrawHVLine+0x32>
    250a:	bd 01       	movw	r22, r26
    250c:	6e 17       	cp	r22, r30
    250e:	7f 07       	cpc	r23, r31
    2510:	e0 f2       	brcs	.-72     	; 0x24ca <u8g2_DrawHVLine+0x8e>
    2512:	df 91       	pop	r29
    2514:	cf 91       	pop	r28
    2516:	0f 91       	pop	r16
    2518:	08 95       	ret
    251a:	fc 01       	movw	r30, r24
    251c:	e6 5b       	subi	r30, 0xB6	; 182
    251e:	ff 4f       	sbci	r31, 0xFF	; 255
    2520:	01 90       	ld	r0, Z+
    2522:	f0 81       	ld	r31, Z
    2524:	e0 2d       	mov	r30, r0
    2526:	6e 17       	cp	r22, r30
    2528:	7f 07       	cpc	r23, r31
    252a:	98 f3       	brcs	.-26     	; 0x2512 <u8g2_DrawHVLine+0xd6>
    252c:	fc 01       	movw	r30, r24
    252e:	e4 5b       	subi	r30, 0xB4	; 180
    2530:	ff 4f       	sbci	r31, 0xFF	; 255
    2532:	01 90       	ld	r0, Z+
    2534:	f0 81       	ld	r31, Z
    2536:	e0 2d       	mov	r30, r0
    2538:	6e 17       	cp	r22, r30
    253a:	7f 07       	cpc	r23, r31
    253c:	50 f7       	brcc	.-44     	; 0x2512 <u8g2_DrawHVLine+0xd6>
    253e:	fc 01       	movw	r30, r24
    2540:	e0 5b       	subi	r30, 0xB0	; 176
    2542:	ff 4f       	sbci	r31, 0xFF	; 255
    2544:	01 90       	ld	r0, Z+
    2546:	f0 81       	ld	r31, Z
    2548:	e0 2d       	mov	r30, r0
    254a:	dc 01       	movw	r26, r24
    254c:	a2 5b       	subi	r26, 0xB2	; 178
    254e:	bf 4f       	sbci	r27, 0xFF	; 255
    2550:	0d 90       	ld	r0, X+
    2552:	bc 91       	ld	r27, X
    2554:	a0 2d       	mov	r26, r0
    2556:	24 0f       	add	r18, r20
    2558:	35 1f       	adc	r19, r21
    255a:	24 17       	cp	r18, r20
    255c:	35 07       	cpc	r19, r21
    255e:	a8 f4       	brcc	.+42     	; 0x258a <u8g2_DrawHVLine+0x14e>
    2560:	4e 17       	cp	r20, r30
    2562:	5f 07       	cpc	r21, r31
    2564:	88 f4       	brcc	.+34     	; 0x2588 <u8g2_DrawHVLine+0x14c>
    2566:	9f 01       	movw	r18, r30
    2568:	21 50       	subi	r18, 0x01	; 1
    256a:	31 09       	sbc	r19, r1
    256c:	a2 17       	cp	r26, r18
    256e:	b3 07       	cpc	r27, r19
    2570:	80 f6       	brcc	.-96     	; 0x2512 <u8g2_DrawHVLine+0xd6>
    2572:	4a 17       	cp	r20, r26
    2574:	5b 07       	cpc	r21, r27
    2576:	08 f4       	brcc	.+2      	; 0x257a <u8g2_DrawHVLine+0x13e>
    2578:	ad 01       	movw	r20, r26
    257a:	2e 17       	cp	r18, r30
    257c:	3f 07       	cpc	r19, r31
    257e:	08 f4       	brcc	.+2      	; 0x2582 <u8g2_DrawHVLine+0x146>
    2580:	f9 01       	movw	r30, r18
    2582:	e4 1b       	sub	r30, r20
    2584:	f5 0b       	sbc	r31, r21
    2586:	ae cf       	rjmp	.-164    	; 0x24e4 <u8g2_DrawHVLine+0xa8>
    2588:	ad 01       	movw	r20, r26
    258a:	4e 17       	cp	r20, r30
    258c:	5f 07       	cpc	r21, r31
    258e:	08 f6       	brcc	.-126    	; 0x2512 <u8g2_DrawHVLine+0xd6>
    2590:	ed cf       	rjmp	.-38     	; 0x256c <u8g2_DrawHVLine+0x130>

00002592 <u8g2_DrawPixel.constprop.92>:
    2592:	0f 93       	push	r16
    2594:	20 91 2c 06 	lds	r18, 0x062C	; 0x80062c <oled+0x52>
    2598:	30 91 2d 06 	lds	r19, 0x062D	; 0x80062d <oled+0x53>
    259c:	62 17       	cp	r22, r18
    259e:	73 07       	cpc	r23, r19
    25a0:	f0 f0       	brcs	.+60     	; 0x25de <u8g2_DrawPixel.constprop.92+0x4c>
    25a2:	20 91 2e 06 	lds	r18, 0x062E	; 0x80062e <oled+0x54>
    25a6:	30 91 2f 06 	lds	r19, 0x062F	; 0x80062f <oled+0x55>
    25aa:	62 17       	cp	r22, r18
    25ac:	73 07       	cpc	r23, r19
    25ae:	b8 f4       	brcc	.+46     	; 0x25de <u8g2_DrawPixel.constprop.92+0x4c>
    25b0:	20 91 28 06 	lds	r18, 0x0628	; 0x800628 <oled+0x4e>
    25b4:	30 91 29 06 	lds	r19, 0x0629	; 0x800629 <oled+0x4f>
    25b8:	82 17       	cp	r24, r18
    25ba:	93 07       	cpc	r25, r19
    25bc:	80 f0       	brcs	.+32     	; 0x25de <u8g2_DrawPixel.constprop.92+0x4c>
    25be:	20 91 2a 06 	lds	r18, 0x062A	; 0x80062a <oled+0x50>
    25c2:	30 91 2b 06 	lds	r19, 0x062B	; 0x80062b <oled+0x51>
    25c6:	82 17       	cp	r24, r18
    25c8:	93 07       	cpc	r25, r19
    25ca:	48 f4       	brcc	.+18     	; 0x25de <u8g2_DrawPixel.constprop.92+0x4c>
    25cc:	ab 01       	movw	r20, r22
    25ce:	bc 01       	movw	r22, r24
    25d0:	00 e0       	ldi	r16, 0x00	; 0
    25d2:	21 e0       	ldi	r18, 0x01	; 1
    25d4:	30 e0       	ldi	r19, 0x00	; 0
    25d6:	8e ed       	ldi	r24, 0xDE	; 222
    25d8:	95 e0       	ldi	r25, 0x05	; 5
    25da:	0e 94 1e 12 	call	0x243c	; 0x243c <u8g2_DrawHVLine>
    25de:	0f 91       	pop	r16
    25e0:	08 95       	ret

000025e2 <u8g2_add_vector_x>:
    25e2:	21 30       	cpi	r18, 0x01	; 1
    25e4:	69 f0       	breq	.+26     	; 0x2600 <u8g2_add_vector_x+0x1e>
    25e6:	38 f0       	brcs	.+14     	; 0x25f6 <u8g2_add_vector_x+0x14>
    25e8:	22 30       	cpi	r18, 0x02	; 2
    25ea:	79 f0       	breq	.+30     	; 0x260a <u8g2_add_vector_x+0x28>
    25ec:	84 0f       	add	r24, r20
    25ee:	91 1d       	adc	r25, r1
    25f0:	47 fd       	sbrc	r20, 7
    25f2:	9a 95       	dec	r25
    25f4:	08 95       	ret
    25f6:	86 0f       	add	r24, r22
    25f8:	91 1d       	adc	r25, r1
    25fa:	67 fd       	sbrc	r22, 7
    25fc:	9a 95       	dec	r25
    25fe:	08 95       	ret
    2600:	84 1b       	sub	r24, r20
    2602:	91 09       	sbc	r25, r1
    2604:	47 fd       	sbrc	r20, 7
    2606:	93 95       	inc	r25
    2608:	08 95       	ret
    260a:	86 1b       	sub	r24, r22
    260c:	91 09       	sbc	r25, r1
    260e:	67 fd       	sbrc	r22, 7
    2610:	93 95       	inc	r25
    2612:	08 95       	ret

00002614 <u8g2_add_vector_y>:
    2614:	21 30       	cpi	r18, 0x01	; 1
    2616:	69 f0       	breq	.+26     	; 0x2632 <u8g2_add_vector_y+0x1e>
    2618:	38 f0       	brcs	.+14     	; 0x2628 <u8g2_add_vector_y+0x14>
    261a:	22 30       	cpi	r18, 0x02	; 2
    261c:	79 f0       	breq	.+30     	; 0x263c <u8g2_add_vector_y+0x28>
    261e:	86 1b       	sub	r24, r22
    2620:	91 09       	sbc	r25, r1
    2622:	67 fd       	sbrc	r22, 7
    2624:	93 95       	inc	r25
    2626:	08 95       	ret
    2628:	84 0f       	add	r24, r20
    262a:	91 1d       	adc	r25, r1
    262c:	47 fd       	sbrc	r20, 7
    262e:	9a 95       	dec	r25
    2630:	08 95       	ret
    2632:	86 0f       	add	r24, r22
    2634:	91 1d       	adc	r25, r1
    2636:	67 fd       	sbrc	r22, 7
    2638:	9a 95       	dec	r25
    263a:	08 95       	ret
    263c:	84 1b       	sub	r24, r20
    263e:	91 09       	sbc	r25, r1
    2640:	47 fd       	sbrc	r20, 7
    2642:	93 95       	inc	r25
    2644:	08 95       	ret

00002646 <u8g2_font_decode_len>:
    2646:	3f 92       	push	r3
    2648:	4f 92       	push	r4
    264a:	5f 92       	push	r5
    264c:	6f 92       	push	r6
    264e:	7f 92       	push	r7
    2650:	8f 92       	push	r8
    2652:	9f 92       	push	r9
    2654:	af 92       	push	r10
    2656:	bf 92       	push	r11
    2658:	cf 92       	push	r12
    265a:	df 92       	push	r13
    265c:	ef 92       	push	r14
    265e:	ff 92       	push	r15
    2660:	0f 93       	push	r16
    2662:	1f 93       	push	r17
    2664:	cf 93       	push	r28
    2666:	df 93       	push	r29
    2668:	7c 01       	movw	r14, r24
    266a:	16 2f       	mov	r17, r22
    266c:	44 2e       	mov	r4, r20
    266e:	ec 01       	movw	r28, r24
    2670:	c2 5a       	subi	r28, 0xA2	; 162
    2672:	df 4f       	sbci	r29, 0xFF	; 255
    2674:	5e 80       	ldd	r5, Y+6	; 0x06
    2676:	6f 80       	ldd	r6, Y+7	; 0x07
    2678:	6c 01       	movw	r12, r24
    267a:	8a e8       	ldi	r24, 0x8A	; 138
    267c:	c8 0e       	add	r12, r24
    267e:	d1 1c       	adc	r13, r1
    2680:	78 84       	ldd	r7, Y+8	; 0x08
    2682:	75 18       	sub	r7, r5
    2684:	31 2e       	mov	r3, r17
    2686:	71 16       	cp	r7, r17
    2688:	08 f4       	brcc	.+2      	; 0x268c <u8g2_font_decode_len+0x46>
    268a:	37 2c       	mov	r3, r7
    268c:	8c 80       	ldd	r8, Y+4	; 0x04
    268e:	9d 80       	ldd	r9, Y+5	; 0x05
    2690:	0e 85       	ldd	r16, Y+14	; 0x0e
    2692:	20 2f       	mov	r18, r16
    2694:	46 2d       	mov	r20, r6
    2696:	65 2d       	mov	r22, r5
    2698:	8a 81       	ldd	r24, Y+2	; 0x02
    269a:	9b 81       	ldd	r25, Y+3	; 0x03
    269c:	0e 94 f1 12 	call	0x25e2	; 0x25e2 <u8g2_add_vector_x>
    26a0:	5c 01       	movw	r10, r24
    26a2:	20 2f       	mov	r18, r16
    26a4:	46 2d       	mov	r20, r6
    26a6:	65 2d       	mov	r22, r5
    26a8:	c4 01       	movw	r24, r8
    26aa:	0e 94 0a 13 	call	0x2614	; 0x2614 <u8g2_add_vector_y>
    26ae:	ac 01       	movw	r20, r24
    26b0:	44 20       	and	r4, r4
    26b2:	79 f0       	breq	.+30     	; 0x26d2 <u8g2_font_decode_len+0x8c>
    26b4:	8c 85       	ldd	r24, Y+12	; 0x0c
    26b6:	f6 01       	movw	r30, r12
    26b8:	80 83       	st	Z, r24
    26ba:	23 2d       	mov	r18, r3
    26bc:	30 e0       	ldi	r19, 0x00	; 0
    26be:	b5 01       	movw	r22, r10
    26c0:	c7 01       	movw	r24, r14
    26c2:	0e 94 1e 12 	call	0x243c	; 0x243c <u8g2_DrawHVLine>
    26c6:	17 15       	cp	r17, r7
    26c8:	48 f0       	brcs	.+18     	; 0x26dc <u8g2_font_decode_len+0x96>
    26ca:	17 19       	sub	r17, r7
    26cc:	63 94       	inc	r6
    26ce:	51 2c       	mov	r5, r1
    26d0:	d7 cf       	rjmp	.-82     	; 0x2680 <u8g2_font_decode_len+0x3a>
    26d2:	8b 85       	ldd	r24, Y+11	; 0x0b
    26d4:	81 11       	cpse	r24, r1
    26d6:	f7 cf       	rjmp	.-18     	; 0x26c6 <u8g2_font_decode_len+0x80>
    26d8:	8d 85       	ldd	r24, Y+13	; 0x0d
    26da:	ed cf       	rjmp	.-38     	; 0x26b6 <u8g2_font_decode_len+0x70>
    26dc:	15 0d       	add	r17, r5
    26de:	1e 83       	std	Y+6, r17	; 0x06
    26e0:	6f 82       	std	Y+7, r6	; 0x07
    26e2:	df 91       	pop	r29
    26e4:	cf 91       	pop	r28
    26e6:	1f 91       	pop	r17
    26e8:	0f 91       	pop	r16
    26ea:	ff 90       	pop	r15
    26ec:	ef 90       	pop	r14
    26ee:	df 90       	pop	r13
    26f0:	cf 90       	pop	r12
    26f2:	bf 90       	pop	r11
    26f4:	af 90       	pop	r10
    26f6:	9f 90       	pop	r9
    26f8:	8f 90       	pop	r8
    26fa:	7f 90       	pop	r7
    26fc:	6f 90       	pop	r6
    26fe:	5f 90       	pop	r5
    2700:	4f 90       	pop	r4
    2702:	3f 90       	pop	r3
    2704:	08 95       	ret

00002706 <u8g2_font_decode_get_unsigned_bits>:
    2706:	dc 01       	movw	r26, r24
    2708:	1a 96       	adiw	r26, 0x0a	; 10
    270a:	4c 91       	ld	r20, X
    270c:	1a 97       	sbiw	r26, 0x0a	; 10
    270e:	ed 91       	ld	r30, X+
    2710:	fc 91       	ld	r31, X
    2712:	11 97       	sbiw	r26, 0x01	; 1
    2714:	24 91       	lpm	r18, Z
    2716:	30 e0       	ldi	r19, 0x00	; 0
    2718:	04 2e       	mov	r0, r20
    271a:	02 c0       	rjmp	.+4      	; 0x2720 <u8g2_font_decode_get_unsigned_bits+0x1a>
    271c:	35 95       	asr	r19
    271e:	27 95       	ror	r18
    2720:	0a 94       	dec	r0
    2722:	e2 f7       	brpl	.-8      	; 0x271c <u8g2_font_decode_get_unsigned_bits+0x16>
    2724:	84 2f       	mov	r24, r20
    2726:	86 0f       	add	r24, r22
    2728:	88 30       	cpi	r24, 0x08	; 8
    272a:	68 f0       	brcs	.+26     	; 0x2746 <u8g2_font_decode_get_unsigned_bits+0x40>
    272c:	31 96       	adiw	r30, 0x01	; 1
    272e:	11 96       	adiw	r26, 0x01	; 1
    2730:	fc 93       	st	X, r31
    2732:	ee 93       	st	-X, r30
    2734:	e4 91       	lpm	r30, Z
    2736:	98 e0       	ldi	r25, 0x08	; 8
    2738:	94 1b       	sub	r25, r20
    273a:	01 c0       	rjmp	.+2      	; 0x273e <u8g2_font_decode_get_unsigned_bits+0x38>
    273c:	ee 0f       	add	r30, r30
    273e:	9a 95       	dec	r25
    2740:	ea f7       	brpl	.-6      	; 0x273c <u8g2_font_decode_get_unsigned_bits+0x36>
    2742:	2e 2b       	or	r18, r30
    2744:	88 50       	subi	r24, 0x08	; 8
    2746:	1a 96       	adiw	r26, 0x0a	; 10
    2748:	8c 93       	st	X, r24
    274a:	8f ef       	ldi	r24, 0xFF	; 255
    274c:	9f ef       	ldi	r25, 0xFF	; 255
    274e:	01 c0       	rjmp	.+2      	; 0x2752 <u8g2_font_decode_get_unsigned_bits+0x4c>
    2750:	88 0f       	add	r24, r24
    2752:	6a 95       	dec	r22
    2754:	ea f7       	brpl	.-6      	; 0x2750 <u8g2_font_decode_get_unsigned_bits+0x4a>
    2756:	80 95       	com	r24
    2758:	82 23       	and	r24, r18
    275a:	08 95       	ret

0000275c <u8g2_font_setup_decode>:
    275c:	0f 93       	push	r16
    275e:	1f 93       	push	r17
    2760:	cf 93       	push	r28
    2762:	df 93       	push	r29
    2764:	8c 01       	movw	r16, r24
    2766:	ec 01       	movw	r28, r24
    2768:	c2 5a       	subi	r28, 0xA2	; 162
    276a:	df 4f       	sbci	r29, 0xFF	; 255
    276c:	79 83       	std	Y+1, r23	; 0x01
    276e:	68 83       	st	Y, r22
    2770:	1a 86       	std	Y+10, r1	; 0x0a
    2772:	fc 01       	movw	r30, r24
    2774:	ef 58       	subi	r30, 0x8F	; 143
    2776:	ff 4f       	sbci	r31, 0xFF	; 255
    2778:	60 81       	ld	r22, Z
    277a:	ce 01       	movw	r24, r28
    277c:	0e 94 83 13 	call	0x2706	; 0x2706 <u8g2_font_decode_get_unsigned_bits>
    2780:	88 87       	std	Y+8, r24	; 0x08
    2782:	f8 01       	movw	r30, r16
    2784:	ee 58       	subi	r30, 0x8E	; 142
    2786:	ff 4f       	sbci	r31, 0xFF	; 255
    2788:	60 81       	ld	r22, Z
    278a:	ce 01       	movw	r24, r28
    278c:	0e 94 83 13 	call	0x2706	; 0x2706 <u8g2_font_decode_get_unsigned_bits>
    2790:	89 87       	std	Y+9, r24	; 0x09
    2792:	f8 01       	movw	r30, r16
    2794:	e6 57       	subi	r30, 0x76	; 118
    2796:	ff 4f       	sbci	r31, 0xFF	; 255
    2798:	90 81       	ld	r25, Z
    279a:	9c 87       	std	Y+12, r25	; 0x0c
    279c:	81 e0       	ldi	r24, 0x01	; 1
    279e:	91 11       	cpse	r25, r1
    27a0:	80 e0       	ldi	r24, 0x00	; 0
    27a2:	8d 87       	std	Y+13, r24	; 0x0d
    27a4:	df 91       	pop	r29
    27a6:	cf 91       	pop	r28
    27a8:	1f 91       	pop	r17
    27aa:	0f 91       	pop	r16
    27ac:	08 95       	ret

000027ae <u8g2_font_decode_get_signed_bits>:
    27ae:	cf 93       	push	r28
    27b0:	c6 2f       	mov	r28, r22
    27b2:	0e 94 83 13 	call	0x2706	; 0x2706 <u8g2_font_decode_get_unsigned_bits>
    27b6:	c1 50       	subi	r28, 0x01	; 1
    27b8:	21 e0       	ldi	r18, 0x01	; 1
    27ba:	30 e0       	ldi	r19, 0x00	; 0
    27bc:	01 c0       	rjmp	.+2      	; 0x27c0 <u8g2_font_decode_get_signed_bits+0x12>
    27be:	22 0f       	add	r18, r18
    27c0:	ca 95       	dec	r28
    27c2:	ea f7       	brpl	.-6      	; 0x27be <u8g2_font_decode_get_signed_bits+0x10>
    27c4:	82 1b       	sub	r24, r18
    27c6:	cf 91       	pop	r28
    27c8:	08 95       	ret

000027ca <u8g2_font_get_word>:
    27ca:	fc 01       	movw	r30, r24
    27cc:	e6 0f       	add	r30, r22
    27ce:	f1 1d       	adc	r31, r1
    27d0:	84 91       	lpm	r24, Z
    27d2:	90 e0       	ldi	r25, 0x00	; 0
    27d4:	98 2f       	mov	r25, r24
    27d6:	88 27       	eor	r24, r24
    27d8:	31 96       	adiw	r30, 0x01	; 1
    27da:	e4 91       	lpm	r30, Z
    27dc:	8e 0f       	add	r24, r30
    27de:	91 1d       	adc	r25, r1
    27e0:	08 95       	ret

000027e2 <u8g2_SetFont.constprop.87>:
    27e2:	80 91 38 06 	lds	r24, 0x0638	; 0x800638 <oled+0x5e>
    27e6:	90 91 39 06 	lds	r25, 0x0639	; 0x800639 <oled+0x5f>
    27ea:	83 50       	subi	r24, 0x03	; 3
    27ec:	95 40       	sbci	r25, 0x05	; 5
    27ee:	09 f4       	brne	.+2      	; 0x27f2 <u8g2_SetFont.constprop.87+0x10>
    27f0:	ae c0       	rjmp	.+348    	; 0x294e <u8g2_SetFont.constprop.87+0x16c>
    27f2:	e3 e0       	ldi	r30, 0x03	; 3
    27f4:	f5 e0       	ldi	r31, 0x05	; 5
    27f6:	f0 93 39 06 	sts	0x0639, r31	; 0x800639 <oled+0x5f>
    27fa:	e0 93 38 06 	sts	0x0638, r30	; 0x800638 <oled+0x5e>
    27fe:	e4 91       	lpm	r30, Z
    2800:	e0 93 4b 06 	sts	0x064B, r30	; 0x80064b <oled+0x71>
    2804:	e4 e0       	ldi	r30, 0x04	; 4
    2806:	f5 e0       	ldi	r31, 0x05	; 5
    2808:	e4 91       	lpm	r30, Z
    280a:	e0 93 4c 06 	sts	0x064C, r30	; 0x80064c <oled+0x72>
    280e:	e5 e0       	ldi	r30, 0x05	; 5
    2810:	f5 e0       	ldi	r31, 0x05	; 5
    2812:	e4 91       	lpm	r30, Z
    2814:	e0 93 4d 06 	sts	0x064D, r30	; 0x80064d <oled+0x73>
    2818:	e6 e0       	ldi	r30, 0x06	; 6
    281a:	f5 e0       	ldi	r31, 0x05	; 5
    281c:	e4 91       	lpm	r30, Z
    281e:	e0 93 4e 06 	sts	0x064E, r30	; 0x80064e <oled+0x74>
    2822:	e7 e0       	ldi	r30, 0x07	; 7
    2824:	f5 e0       	ldi	r31, 0x05	; 5
    2826:	e4 91       	lpm	r30, Z
    2828:	e0 93 4f 06 	sts	0x064F, r30	; 0x80064f <oled+0x75>
    282c:	e8 e0       	ldi	r30, 0x08	; 8
    282e:	f5 e0       	ldi	r31, 0x05	; 5
    2830:	e4 91       	lpm	r30, Z
    2832:	e0 93 50 06 	sts	0x0650, r30	; 0x800650 <oled+0x76>
    2836:	e9 e0       	ldi	r30, 0x09	; 9
    2838:	f5 e0       	ldi	r31, 0x05	; 5
    283a:	e4 91       	lpm	r30, Z
    283c:	e0 93 51 06 	sts	0x0651, r30	; 0x800651 <oled+0x77>
    2840:	ea e0       	ldi	r30, 0x0A	; 10
    2842:	f5 e0       	ldi	r31, 0x05	; 5
    2844:	e4 91       	lpm	r30, Z
    2846:	e0 93 52 06 	sts	0x0652, r30	; 0x800652 <oled+0x78>
    284a:	eb e0       	ldi	r30, 0x0B	; 11
    284c:	f5 e0       	ldi	r31, 0x05	; 5
    284e:	e4 91       	lpm	r30, Z
    2850:	e0 93 53 06 	sts	0x0653, r30	; 0x800653 <oled+0x79>
    2854:	ec e0       	ldi	r30, 0x0C	; 12
    2856:	f5 e0       	ldi	r31, 0x05	; 5
    2858:	e4 91       	lpm	r30, Z
    285a:	e0 93 54 06 	sts	0x0654, r30	; 0x800654 <oled+0x7a>
    285e:	ed e0       	ldi	r30, 0x0D	; 13
    2860:	f5 e0       	ldi	r31, 0x05	; 5
    2862:	e4 91       	lpm	r30, Z
    2864:	e0 93 55 06 	sts	0x0655, r30	; 0x800655 <oled+0x7b>
    2868:	ee e0       	ldi	r30, 0x0E	; 14
    286a:	f5 e0       	ldi	r31, 0x05	; 5
    286c:	e4 91       	lpm	r30, Z
    286e:	e0 93 56 06 	sts	0x0656, r30	; 0x800656 <oled+0x7c>
    2872:	ef e0       	ldi	r30, 0x0F	; 15
    2874:	f5 e0       	ldi	r31, 0x05	; 5
    2876:	e4 91       	lpm	r30, Z
    2878:	e0 93 57 06 	sts	0x0657, r30	; 0x800657 <oled+0x7d>
    287c:	e0 e1       	ldi	r30, 0x10	; 16
    287e:	f5 e0       	ldi	r31, 0x05	; 5
    2880:	e4 91       	lpm	r30, Z
    2882:	e0 93 58 06 	sts	0x0658, r30	; 0x800658 <oled+0x7e>
    2886:	e1 e1       	ldi	r30, 0x11	; 17
    2888:	f5 e0       	ldi	r31, 0x05	; 5
    288a:	e4 91       	lpm	r30, Z
    288c:	e0 93 59 06 	sts	0x0659, r30	; 0x800659 <oled+0x7f>
    2890:	e2 e1       	ldi	r30, 0x12	; 18
    2892:	f5 e0       	ldi	r31, 0x05	; 5
    2894:	e4 91       	lpm	r30, Z
    2896:	e0 93 5a 06 	sts	0x065A, r30	; 0x80065a <oled+0x80>
    289a:	e3 e1       	ldi	r30, 0x13	; 19
    289c:	f5 e0       	ldi	r31, 0x05	; 5
    289e:	e4 91       	lpm	r30, Z
    28a0:	e0 93 5b 06 	sts	0x065B, r30	; 0x80065b <oled+0x81>
    28a4:	61 e1       	ldi	r22, 0x11	; 17
    28a6:	83 e0       	ldi	r24, 0x03	; 3
    28a8:	95 e0       	ldi	r25, 0x05	; 5
    28aa:	0e 94 e5 13 	call	0x27ca	; 0x27ca <u8g2_font_get_word>
    28ae:	90 93 5d 06 	sts	0x065D, r25	; 0x80065d <oled+0x83>
    28b2:	80 93 5c 06 	sts	0x065C, r24	; 0x80065c <oled+0x82>
    28b6:	63 e1       	ldi	r22, 0x13	; 19
    28b8:	83 e0       	ldi	r24, 0x03	; 3
    28ba:	95 e0       	ldi	r25, 0x05	; 5
    28bc:	0e 94 e5 13 	call	0x27ca	; 0x27ca <u8g2_font_get_word>
    28c0:	90 93 5f 06 	sts	0x065F, r25	; 0x80065f <oled+0x85>
    28c4:	80 93 5e 06 	sts	0x065E, r24	; 0x80065e <oled+0x84>
    28c8:	65 e1       	ldi	r22, 0x15	; 21
    28ca:	83 e0       	ldi	r24, 0x03	; 3
    28cc:	95 e0       	ldi	r25, 0x05	; 5
    28ce:	0e 94 e5 13 	call	0x27ca	; 0x27ca <u8g2_font_get_word>
    28d2:	90 93 61 06 	sts	0x0661, r25	; 0x800661 <oled+0x87>
    28d6:	80 93 60 06 	sts	0x0660, r24	; 0x800660 <oled+0x86>
    28da:	80 91 38 06 	lds	r24, 0x0638	; 0x800638 <oled+0x5e>
    28de:	90 91 39 06 	lds	r25, 0x0639	; 0x800639 <oled+0x5f>
    28e2:	89 2b       	or	r24, r25
    28e4:	a1 f1       	breq	.+104    	; 0x294e <u8g2_SetFont.constprop.87+0x16c>
    28e6:	80 91 58 06 	lds	r24, 0x0658	; 0x800658 <oled+0x7e>
    28ea:	80 93 64 06 	sts	0x0664, r24	; 0x800664 <oled+0x8a>
    28ee:	40 91 59 06 	lds	r20, 0x0659	; 0x800659 <oled+0x7f>
    28f2:	40 93 65 06 	sts	0x0665, r20	; 0x800665 <oled+0x8b>
    28f6:	90 91 63 06 	lds	r25, 0x0663	; 0x800663 <oled+0x89>
    28fa:	99 23       	and	r25, r25
    28fc:	41 f1       	breq	.+80     	; 0x294e <u8g2_SetFont.constprop.87+0x16c>
    28fe:	91 30       	cpi	r25, 0x01	; 1
    2900:	69 f4       	brne	.+26     	; 0x291c <u8g2_SetFont.constprop.87+0x13a>
    2902:	90 91 5a 06 	lds	r25, 0x065A	; 0x80065a <oled+0x80>
    2906:	89 17       	cp	r24, r25
    2908:	14 f4       	brge	.+4      	; 0x290e <u8g2_SetFont.constprop.87+0x12c>
    290a:	90 93 64 06 	sts	0x0664, r25	; 0x800664 <oled+0x8a>
    290e:	80 91 5b 06 	lds	r24, 0x065B	; 0x80065b <oled+0x81>
    2912:	84 17       	cp	r24, r20
    2914:	e4 f4       	brge	.+56     	; 0x294e <u8g2_SetFont.constprop.87+0x16c>
    2916:	80 93 65 06 	sts	0x0665, r24	; 0x800665 <oled+0x8b>
    291a:	08 95       	ret
    291c:	30 91 55 06 	lds	r19, 0x0655	; 0x800655 <oled+0x7b>
    2920:	20 91 57 06 	lds	r18, 0x0657	; 0x800657 <oled+0x7d>
    2924:	08 2e       	mov	r0, r24
    2926:	00 0c       	add	r0, r0
    2928:	99 0b       	sbc	r25, r25
    292a:	62 2f       	mov	r22, r18
    292c:	02 2e       	mov	r0, r18
    292e:	00 0c       	add	r0, r0
    2930:	77 0b       	sbc	r23, r23
    2932:	63 0f       	add	r22, r19
    2934:	71 1d       	adc	r23, r1
    2936:	37 fd       	sbrc	r19, 7
    2938:	7a 95       	dec	r23
    293a:	86 17       	cp	r24, r22
    293c:	97 07       	cpc	r25, r23
    293e:	1c f4       	brge	.+6      	; 0x2946 <u8g2_SetFont.constprop.87+0x164>
    2940:	32 0f       	add	r19, r18
    2942:	30 93 64 06 	sts	0x0664, r19	; 0x800664 <oled+0x8a>
    2946:	24 17       	cp	r18, r20
    2948:	14 f4       	brge	.+4      	; 0x294e <u8g2_SetFont.constprop.87+0x16c>
    294a:	20 93 65 06 	sts	0x0665, r18	; 0x800665 <oled+0x8b>
    294e:	08 95       	ret

00002950 <u8g2_font_get_glyph_data>:
    2950:	ef 92       	push	r14
    2952:	ff 92       	push	r15
    2954:	0f 93       	push	r16
    2956:	1f 93       	push	r17
    2958:	cf 93       	push	r28
    295a:	df 93       	push	r29
    295c:	fc 01       	movw	r30, r24
    295e:	e6 5a       	subi	r30, 0xA6	; 166
    2960:	ff 4f       	sbci	r31, 0xFF	; 255
    2962:	20 81       	ld	r18, Z
    2964:	31 81       	ldd	r19, Z+1	; 0x01
    2966:	29 5e       	subi	r18, 0xE9	; 233
    2968:	3f 4f       	sbci	r19, 0xFF	; 255
    296a:	6f 3f       	cpi	r22, 0xFF	; 255
    296c:	71 05       	cpc	r23, r1
    296e:	09 f0       	breq	.+2      	; 0x2972 <u8g2_font_get_glyph_data+0x22>
    2970:	48 f5       	brcc	.+82     	; 0x29c4 <u8g2_font_get_glyph_data+0x74>
    2972:	61 36       	cpi	r22, 0x61	; 97
    2974:	71 05       	cpc	r23, r1
    2976:	d8 f0       	brcs	.+54     	; 0x29ae <u8g2_font_get_glyph_data+0x5e>
    2978:	80 58       	subi	r24, 0x80	; 128
    297a:	9f 4f       	sbci	r25, 0xFF	; 255
    297c:	fc 01       	movw	r30, r24
    297e:	80 81       	ld	r24, Z
    2980:	91 81       	ldd	r25, Z+1	; 0x01
    2982:	28 0f       	add	r18, r24
    2984:	39 1f       	adc	r19, r25
    2986:	c9 01       	movw	r24, r18
    2988:	01 96       	adiw	r24, 0x01	; 1
    298a:	fc 01       	movw	r30, r24
    298c:	44 91       	lpm	r20, Z
    298e:	44 23       	and	r20, r20
    2990:	09 f4       	brne	.+2      	; 0x2994 <u8g2_font_get_glyph_data+0x44>
    2992:	47 c0       	rjmp	.+142    	; 0x2a22 <u8g2_font_get_glyph_data+0xd2>
    2994:	f9 01       	movw	r30, r18
    2996:	44 91       	lpm	r20, Z
    2998:	46 17       	cp	r20, r22
    299a:	17 06       	cpc	r1, r23
    299c:	71 f4       	brne	.+28     	; 0x29ba <u8g2_font_get_glyph_data+0x6a>
    299e:	01 96       	adiw	r24, 0x01	; 1
    29a0:	df 91       	pop	r29
    29a2:	cf 91       	pop	r28
    29a4:	1f 91       	pop	r17
    29a6:	0f 91       	pop	r16
    29a8:	ff 90       	pop	r15
    29aa:	ef 90       	pop	r14
    29ac:	08 95       	ret
    29ae:	61 34       	cpi	r22, 0x41	; 65
    29b0:	71 05       	cpc	r23, r1
    29b2:	48 f3       	brcs	.-46     	; 0x2986 <u8g2_font_get_glyph_data+0x36>
    29b4:	82 58       	subi	r24, 0x82	; 130
    29b6:	9f 4f       	sbci	r25, 0xFF	; 255
    29b8:	e1 cf       	rjmp	.-62     	; 0x297c <u8g2_font_get_glyph_data+0x2c>
    29ba:	fc 01       	movw	r30, r24
    29bc:	84 91       	lpm	r24, Z
    29be:	28 0f       	add	r18, r24
    29c0:	31 1d       	adc	r19, r1
    29c2:	e1 cf       	rjmp	.-62     	; 0x2986 <u8g2_font_get_glyph_data+0x36>
    29c4:	8b 01       	movw	r16, r22
    29c6:	fc 01       	movw	r30, r24
    29c8:	ee 57       	subi	r30, 0x7E	; 126
    29ca:	ff 4f       	sbci	r31, 0xFF	; 255
    29cc:	c0 81       	ld	r28, Z
    29ce:	d1 81       	ldd	r29, Z+1	; 0x01
    29d0:	c2 0f       	add	r28, r18
    29d2:	d3 1f       	adc	r29, r19
    29d4:	7e 01       	movw	r14, r28
    29d6:	60 e0       	ldi	r22, 0x00	; 0
    29d8:	c7 01       	movw	r24, r14
    29da:	0e 94 e5 13 	call	0x27ca	; 0x27ca <u8g2_font_get_word>
    29de:	c8 0f       	add	r28, r24
    29e0:	d9 1f       	adc	r29, r25
    29e2:	62 e0       	ldi	r22, 0x02	; 2
    29e4:	c7 01       	movw	r24, r14
    29e6:	0e 94 e5 13 	call	0x27ca	; 0x27ca <u8g2_font_get_word>
    29ea:	f4 e0       	ldi	r31, 0x04	; 4
    29ec:	ef 0e       	add	r14, r31
    29ee:	f1 1c       	adc	r15, r1
    29f0:	80 17       	cp	r24, r16
    29f2:	91 07       	cpc	r25, r17
    29f4:	80 f3       	brcs	.-32     	; 0x29d6 <u8g2_font_get_glyph_data+0x86>
    29f6:	fe 01       	movw	r30, r28
    29f8:	84 91       	lpm	r24, Z
    29fa:	90 e0       	ldi	r25, 0x00	; 0
    29fc:	98 2f       	mov	r25, r24
    29fe:	88 27       	eor	r24, r24
    2a00:	31 96       	adiw	r30, 0x01	; 1
    2a02:	e4 91       	lpm	r30, Z
    2a04:	8e 2b       	or	r24, r30
    2a06:	00 97       	sbiw	r24, 0x00	; 0
    2a08:	61 f0       	breq	.+24     	; 0x2a22 <u8g2_font_get_glyph_data+0xd2>
    2a0a:	08 17       	cp	r16, r24
    2a0c:	19 07       	cpc	r17, r25
    2a0e:	19 f4       	brne	.+6      	; 0x2a16 <u8g2_font_get_glyph_data+0xc6>
    2a10:	ce 01       	movw	r24, r28
    2a12:	03 96       	adiw	r24, 0x03	; 3
    2a14:	c5 cf       	rjmp	.-118    	; 0x29a0 <u8g2_font_get_glyph_data+0x50>
    2a16:	fe 01       	movw	r30, r28
    2a18:	32 96       	adiw	r30, 0x02	; 2
    2a1a:	e4 91       	lpm	r30, Z
    2a1c:	ce 0f       	add	r28, r30
    2a1e:	d1 1d       	adc	r29, r1
    2a20:	ea cf       	rjmp	.-44     	; 0x29f6 <u8g2_font_get_glyph_data+0xa6>
    2a22:	90 e0       	ldi	r25, 0x00	; 0
    2a24:	80 e0       	ldi	r24, 0x00	; 0
    2a26:	bc cf       	rjmp	.-136    	; 0x29a0 <u8g2_font_get_glyph_data+0x50>

00002a28 <u8g2_string_width.constprop.96>:
    2a28:	cf 92       	push	r12
    2a2a:	df 92       	push	r13
    2a2c:	ff 92       	push	r15
    2a2e:	0f 93       	push	r16
    2a30:	1f 93       	push	r17
    2a32:	cf 93       	push	r28
    2a34:	df 93       	push	r29
    2a36:	10 92 44 06 	sts	0x0644, r1	; 0x800644 <oled+0x6a>
    2a3a:	10 92 f6 05 	sts	0x05F6, r1	; 0x8005f6 <oled+0x1c>
    2a3e:	6c 01       	movw	r12, r24
    2a40:	80 ec       	ldi	r24, 0xC0	; 192
    2a42:	f8 2e       	mov	r15, r24
    2a44:	10 e0       	ldi	r17, 0x00	; 0
    2a46:	00 e0       	ldi	r16, 0x00	; 0
    2a48:	d0 e0       	ldi	r29, 0x00	; 0
    2a4a:	c0 e0       	ldi	r28, 0x00	; 0
    2a4c:	f6 01       	movw	r30, r12
    2a4e:	61 91       	ld	r22, Z+
    2a50:	6f 01       	movw	r12, r30
    2a52:	e0 91 e0 05 	lds	r30, 0x05E0	; 0x8005e0 <oled+0x6>
    2a56:	f0 91 e1 05 	lds	r31, 0x05E1	; 0x8005e1 <oled+0x7>
    2a5a:	8e ed       	ldi	r24, 0xDE	; 222
    2a5c:	95 e0       	ldi	r25, 0x05	; 5
    2a5e:	09 95       	icall
    2a60:	8f 3f       	cpi	r24, 0xFF	; 255
    2a62:	98 07       	cpc	r25, r24
    2a64:	89 f1       	breq	.+98     	; 0x2ac8 <u8g2_string_width.constprop.96+0xa0>
    2a66:	8e 3f       	cpi	r24, 0xFE	; 254
    2a68:	2f ef       	ldi	r18, 0xFF	; 255
    2a6a:	92 07       	cpc	r25, r18
    2a6c:	79 f3       	breq	.-34     	; 0x2a4c <u8g2_string_width.constprop.96+0x24>
    2a6e:	bc 01       	movw	r22, r24
    2a70:	8e ed       	ldi	r24, 0xDE	; 222
    2a72:	95 e0       	ldi	r25, 0x05	; 5
    2a74:	0e 94 a8 14 	call	0x2950	; 0x2950 <u8g2_font_get_glyph_data>
    2a78:	00 97       	sbiw	r24, 0x00	; 0
    2a7a:	21 f1       	breq	.+72     	; 0x2ac4 <u8g2_string_width.constprop.96+0x9c>
    2a7c:	bc 01       	movw	r22, r24
    2a7e:	8e ed       	ldi	r24, 0xDE	; 222
    2a80:	95 e0       	ldi	r25, 0x05	; 5
    2a82:	0e 94 ae 13 	call	0x275c	; 0x275c <u8g2_font_setup_decode>
    2a86:	60 91 51 06 	lds	r22, 0x0651	; 0x800651 <oled+0x77>
    2a8a:	8c e3       	ldi	r24, 0x3C	; 60
    2a8c:	96 e0       	ldi	r25, 0x06	; 6
    2a8e:	0e 94 d7 13 	call	0x27ae	; 0x27ae <u8g2_font_decode_get_signed_bits>
    2a92:	80 93 66 06 	sts	0x0666, r24	; 0x800666 <oled+0x8c>
    2a96:	60 91 52 06 	lds	r22, 0x0652	; 0x800652 <oled+0x78>
    2a9a:	8c e3       	ldi	r24, 0x3C	; 60
    2a9c:	96 e0       	ldi	r25, 0x06	; 6
    2a9e:	0e 94 d7 13 	call	0x27ae	; 0x27ae <u8g2_font_decode_get_signed_bits>
    2aa2:	60 91 53 06 	lds	r22, 0x0653	; 0x800653 <oled+0x79>
    2aa6:	8c e3       	ldi	r24, 0x3C	; 60
    2aa8:	96 e0       	ldi	r25, 0x06	; 6
    2aaa:	0e 94 d7 13 	call	0x27ae	; 0x27ae <u8g2_font_decode_get_signed_bits>
    2aae:	08 2f       	mov	r16, r24
    2ab0:	88 0f       	add	r24, r24
    2ab2:	11 0b       	sbc	r17, r17
    2ab4:	80 ec       	ldi	r24, 0xC0	; 192
    2ab6:	f8 12       	cpse	r15, r24
    2ab8:	02 c0       	rjmp	.+4      	; 0x2abe <u8g2_string_width.constprop.96+0x96>
    2aba:	f0 90 66 06 	lds	r15, 0x0666	; 0x800666 <oled+0x8c>
    2abe:	c0 0f       	add	r28, r16
    2ac0:	d1 1f       	adc	r29, r17
    2ac2:	c4 cf       	rjmp	.-120    	; 0x2a4c <u8g2_string_width.constprop.96+0x24>
    2ac4:	80 e0       	ldi	r24, 0x00	; 0
    2ac6:	f3 cf       	rjmp	.-26     	; 0x2aae <u8g2_string_width.constprop.96+0x86>
    2ac8:	20 91 44 06 	lds	r18, 0x0644	; 0x800644 <oled+0x6a>
    2acc:	22 23       	and	r18, r18
    2ace:	99 f0       	breq	.+38     	; 0x2af6 <u8g2_string_width.constprop.96+0xce>
    2ad0:	80 91 66 06 	lds	r24, 0x0666	; 0x800666 <oled+0x8c>
    2ad4:	02 2e       	mov	r0, r18
    2ad6:	00 0c       	add	r0, r0
    2ad8:	33 0b       	sbc	r19, r19
    2ada:	28 0f       	add	r18, r24
    2adc:	31 1d       	adc	r19, r1
    2ade:	87 fd       	sbrc	r24, 7
    2ae0:	3a 95       	dec	r19
    2ae2:	c2 0f       	add	r28, r18
    2ae4:	d3 1f       	adc	r29, r19
    2ae6:	c0 1b       	sub	r28, r16
    2ae8:	d1 0b       	sbc	r29, r17
    2aea:	1f 14       	cp	r1, r15
    2aec:	24 f4       	brge	.+8      	; 0x2af6 <u8g2_string_width.constprop.96+0xce>
    2aee:	cf 0d       	add	r28, r15
    2af0:	d1 1d       	adc	r29, r1
    2af2:	f7 fc       	sbrc	r15, 7
    2af4:	da 95       	dec	r29
    2af6:	ce 01       	movw	r24, r28
    2af8:	df 91       	pop	r29
    2afa:	cf 91       	pop	r28
    2afc:	1f 91       	pop	r17
    2afe:	0f 91       	pop	r16
    2b00:	ff 90       	pop	r15
    2b02:	df 90       	pop	r13
    2b04:	cf 90       	pop	r12
    2b06:	08 95       	ret

00002b08 <u8g2_GetUTF8Width.constprop.95>:
    2b08:	2e e8       	ldi	r18, 0x8E	; 142
    2b0a:	30 e1       	ldi	r19, 0x10	; 16
    2b0c:	30 93 e1 05 	sts	0x05E1, r19	; 0x8005e1 <oled+0x7>
    2b10:	20 93 e0 05 	sts	0x05E0, r18	; 0x8005e0 <oled+0x6>
    2b14:	0c 94 14 15 	jmp	0x2a28	; 0x2a28 <u8g2_string_width.constprop.96>

00002b18 <u8g2_DrawGlyph>:
    2b18:	8f 92       	push	r8
    2b1a:	9f 92       	push	r9
    2b1c:	af 92       	push	r10
    2b1e:	bf 92       	push	r11
    2b20:	cf 92       	push	r12
    2b22:	df 92       	push	r13
    2b24:	ef 92       	push	r14
    2b26:	ff 92       	push	r15
    2b28:	0f 93       	push	r16
    2b2a:	1f 93       	push	r17
    2b2c:	cf 93       	push	r28
    2b2e:	df 93       	push	r29
    2b30:	ec 01       	movw	r28, r24
    2b32:	7b 01       	movw	r14, r22
    2b34:	8a 01       	movw	r16, r20
    2b36:	69 01       	movw	r12, r18
    2b38:	fc 01       	movw	r30, r24
    2b3a:	e4 59       	subi	r30, 0x94	; 148
    2b3c:	ff 4f       	sbci	r31, 0xFF	; 255
    2b3e:	80 81       	ld	r24, Z
    2b40:	81 30       	cpi	r24, 0x01	; 1
    2b42:	09 f4       	brne	.+2      	; 0x2b46 <u8g2_DrawGlyph+0x2e>
    2b44:	6f c0       	rjmp	.+222    	; 0x2c24 <u8g2_DrawGlyph+0x10c>
    2b46:	08 f4       	brcc	.+2      	; 0x2b4a <u8g2_DrawGlyph+0x32>
    2b48:	62 c0       	rjmp	.+196    	; 0x2c0e <u8g2_DrawGlyph+0xf6>
    2b4a:	82 30       	cpi	r24, 0x02	; 2
    2b4c:	09 f4       	brne	.+2      	; 0x2b50 <u8g2_DrawGlyph+0x38>
    2b4e:	75 c0       	rjmp	.+234    	; 0x2c3a <u8g2_DrawGlyph+0x122>
    2b50:	83 30       	cpi	r24, 0x03	; 3
    2b52:	09 f4       	brne	.+2      	; 0x2b56 <u8g2_DrawGlyph+0x3e>
    2b54:	7d c0       	rjmp	.+250    	; 0x2c50 <u8g2_DrawGlyph+0x138>
    2b56:	fe 01       	movw	r30, r28
    2b58:	e0 5a       	subi	r30, 0xA0	; 160
    2b5a:	ff 4f       	sbci	r31, 0xFF	; 255
    2b5c:	f1 82       	std	Z+1, r15	; 0x01
    2b5e:	e0 82       	st	Z, r14
    2b60:	32 96       	adiw	r30, 0x02	; 2
    2b62:	11 83       	std	Z+1, r17	; 0x01
    2b64:	00 83       	st	Z, r16
    2b66:	b6 01       	movw	r22, r12
    2b68:	ce 01       	movw	r24, r28
    2b6a:	0e 94 a8 14 	call	0x2950	; 0x2950 <u8g2_font_get_glyph_data>
    2b6e:	00 97       	sbiw	r24, 0x00	; 0
    2b70:	09 f4       	brne	.+2      	; 0x2b74 <u8g2_DrawGlyph+0x5c>
    2b72:	ff c0       	rjmp	.+510    	; 0x2d72 <u8g2_DrawGlyph+0x25a>
    2b74:	7e 01       	movw	r14, r28
    2b76:	2e e5       	ldi	r18, 0x5E	; 94
    2b78:	e2 0e       	add	r14, r18
    2b7a:	f1 1c       	adc	r15, r1
    2b7c:	bc 01       	movw	r22, r24
    2b7e:	ce 01       	movw	r24, r28
    2b80:	0e 94 ae 13 	call	0x275c	; 0x275c <u8g2_font_setup_decode>
    2b84:	fe 01       	movw	r30, r28
    2b86:	e9 59       	subi	r30, 0x99	; 153
    2b88:	ff 4f       	sbci	r31, 0xFF	; 255
    2b8a:	b0 80       	ld	r11, Z
    2b8c:	3c 96       	adiw	r30, 0x0c	; 12
    2b8e:	60 81       	ld	r22, Z
    2b90:	c7 01       	movw	r24, r14
    2b92:	0e 94 d7 13 	call	0x27ae	; 0x27ae <u8g2_font_decode_get_signed_bits>
    2b96:	88 2e       	mov	r8, r24
    2b98:	fe 01       	movw	r30, r28
    2b9a:	ec 58       	subi	r30, 0x8C	; 140
    2b9c:	ff 4f       	sbci	r31, 0xFF	; 255
    2b9e:	60 81       	ld	r22, Z
    2ba0:	c7 01       	movw	r24, r14
    2ba2:	0e 94 d7 13 	call	0x27ae	; 0x27ae <u8g2_font_decode_get_signed_bits>
    2ba6:	08 2f       	mov	r16, r24
    2ba8:	fe 01       	movw	r30, r28
    2baa:	eb 58       	subi	r30, 0x8B	; 139
    2bac:	ff 4f       	sbci	r31, 0xFF	; 255
    2bae:	60 81       	ld	r22, Z
    2bb0:	c7 01       	movw	r24, r14
    2bb2:	0e 94 d7 13 	call	0x27ae	; 0x27ae <u8g2_font_decode_get_signed_bits>
    2bb6:	a8 2e       	mov	r10, r24
    2bb8:	f7 01       	movw	r30, r14
    2bba:	90 84       	ldd	r9, Z+8	; 0x08
    2bbc:	19 14       	cp	r1, r9
    2bbe:	0c f0       	brlt	.+2      	; 0x2bc2 <u8g2_DrawGlyph+0xaa>
    2bc0:	90 c0       	rjmp	.+288    	; 0x2ce2 <u8g2_DrawGlyph+0x1ca>
    2bc2:	16 85       	ldd	r17, Z+14	; 0x0e
    2bc4:	0b 0d       	add	r16, r11
    2bc6:	01 95       	neg	r16
    2bc8:	21 2f       	mov	r18, r17
    2bca:	40 2f       	mov	r20, r16
    2bcc:	68 2d       	mov	r22, r8
    2bce:	82 81       	ldd	r24, Z+2	; 0x02
    2bd0:	93 81       	ldd	r25, Z+3	; 0x03
    2bd2:	0e 94 f1 12 	call	0x25e2	; 0x25e2 <u8g2_add_vector_x>
    2bd6:	6c 01       	movw	r12, r24
    2bd8:	f7 01       	movw	r30, r14
    2bda:	93 83       	std	Z+3, r25	; 0x03
    2bdc:	82 83       	std	Z+2, r24	; 0x02
    2bde:	21 2f       	mov	r18, r17
    2be0:	40 2f       	mov	r20, r16
    2be2:	68 2d       	mov	r22, r8
    2be4:	84 81       	ldd	r24, Z+4	; 0x04
    2be6:	95 81       	ldd	r25, Z+5	; 0x05
    2be8:	0e 94 0a 13 	call	0x2614	; 0x2614 <u8g2_add_vector_y>
    2bec:	ac 01       	movw	r20, r24
    2bee:	f7 01       	movw	r30, r14
    2bf0:	95 83       	std	Z+5, r25	; 0x05
    2bf2:	84 83       	std	Z+4, r24	; 0x04
    2bf4:	11 30       	cpi	r17, 0x01	; 1
    2bf6:	09 f4       	brne	.+2      	; 0x2bfa <u8g2_DrawGlyph+0xe2>
    2bf8:	84 c0       	rjmp	.+264    	; 0x2d02 <u8g2_DrawGlyph+0x1ea>
    2bfa:	a8 f1       	brcs	.+106    	; 0x2c66 <u8g2_DrawGlyph+0x14e>
    2bfc:	12 30       	cpi	r17, 0x02	; 2
    2bfe:	09 f4       	brne	.+2      	; 0x2c02 <u8g2_DrawGlyph+0xea>
    2c00:	91 c0       	rjmp	.+290    	; 0x2d24 <u8g2_DrawGlyph+0x20c>
    2c02:	13 30       	cpi	r17, 0x03	; 3
    2c04:	09 f4       	brne	.+2      	; 0x2c08 <u8g2_DrawGlyph+0xf0>
    2c06:	a4 c0       	rjmp	.+328    	; 0x2d50 <u8g2_DrawGlyph+0x238>
    2c08:	8c 01       	movw	r16, r24
    2c0a:	96 01       	movw	r18, r12
    2c0c:	36 c0       	rjmp	.+108    	; 0x2c7a <u8g2_DrawGlyph+0x162>
    2c0e:	fe 01       	movw	r30, r28
    2c10:	e4 5a       	subi	r30, 0xA4	; 164
    2c12:	ff 4f       	sbci	r31, 0xFF	; 255
    2c14:	01 90       	ld	r0, Z+
    2c16:	f0 81       	ld	r31, Z
    2c18:	e0 2d       	mov	r30, r0
    2c1a:	ce 01       	movw	r24, r28
    2c1c:	09 95       	icall
    2c1e:	08 0f       	add	r16, r24
    2c20:	19 1f       	adc	r17, r25
    2c22:	99 cf       	rjmp	.-206    	; 0x2b56 <u8g2_DrawGlyph+0x3e>
    2c24:	fe 01       	movw	r30, r28
    2c26:	e4 5a       	subi	r30, 0xA4	; 164
    2c28:	ff 4f       	sbci	r31, 0xFF	; 255
    2c2a:	01 90       	ld	r0, Z+
    2c2c:	f0 81       	ld	r31, Z
    2c2e:	e0 2d       	mov	r30, r0
    2c30:	ce 01       	movw	r24, r28
    2c32:	09 95       	icall
    2c34:	e8 1a       	sub	r14, r24
    2c36:	f9 0a       	sbc	r15, r25
    2c38:	8e cf       	rjmp	.-228    	; 0x2b56 <u8g2_DrawGlyph+0x3e>
    2c3a:	fe 01       	movw	r30, r28
    2c3c:	e4 5a       	subi	r30, 0xA4	; 164
    2c3e:	ff 4f       	sbci	r31, 0xFF	; 255
    2c40:	01 90       	ld	r0, Z+
    2c42:	f0 81       	ld	r31, Z
    2c44:	e0 2d       	mov	r30, r0
    2c46:	ce 01       	movw	r24, r28
    2c48:	09 95       	icall
    2c4a:	08 1b       	sub	r16, r24
    2c4c:	19 0b       	sbc	r17, r25
    2c4e:	83 cf       	rjmp	.-250    	; 0x2b56 <u8g2_DrawGlyph+0x3e>
    2c50:	fe 01       	movw	r30, r28
    2c52:	e4 5a       	subi	r30, 0xA4	; 164
    2c54:	ff 4f       	sbci	r31, 0xFF	; 255
    2c56:	01 90       	ld	r0, Z+
    2c58:	f0 81       	ld	r31, Z
    2c5a:	e0 2d       	mov	r30, r0
    2c5c:	ce 01       	movw	r24, r28
    2c5e:	09 95       	icall
    2c60:	e8 0e       	add	r14, r24
    2c62:	f9 1e       	adc	r15, r25
    2c64:	78 cf       	rjmp	.-272    	; 0x2b56 <u8g2_DrawGlyph+0x3e>
    2c66:	96 01       	movw	r18, r12
    2c68:	29 0d       	add	r18, r9
    2c6a:	31 1d       	adc	r19, r1
    2c6c:	97 fc       	sbrc	r9, 7
    2c6e:	3a 95       	dec	r19
    2c70:	8c 01       	movw	r16, r24
    2c72:	0b 0d       	add	r16, r11
    2c74:	11 1d       	adc	r17, r1
    2c76:	b7 fc       	sbrc	r11, 7
    2c78:	1a 95       	dec	r17
    2c7a:	b6 01       	movw	r22, r12
    2c7c:	ce 01       	movw	r24, r28
    2c7e:	0e 94 31 11 	call	0x2262	; 0x2262 <u8g2_IsIntersection>
    2c82:	88 23       	and	r24, r24
    2c84:	71 f1       	breq	.+92     	; 0x2ce2 <u8g2_DrawGlyph+0x1ca>
    2c86:	f7 01       	movw	r30, r14
    2c88:	16 82       	std	Z+6, r1	; 0x06
    2c8a:	17 82       	std	Z+7, r1	; 0x07
    2c8c:	8e 01       	movw	r16, r28
    2c8e:	01 59       	subi	r16, 0x91	; 145
    2c90:	1f 4f       	sbci	r17, 0xFF	; 255
    2c92:	6e 01       	movw	r12, r28
    2c94:	f0 e7       	ldi	r31, 0x70	; 112
    2c96:	cf 0e       	add	r12, r31
    2c98:	d1 1c       	adc	r13, r1
    2c9a:	f8 01       	movw	r30, r16
    2c9c:	60 81       	ld	r22, Z
    2c9e:	c7 01       	movw	r24, r14
    2ca0:	0e 94 83 13 	call	0x2706	; 0x2706 <u8g2_font_decode_get_unsigned_bits>
    2ca4:	88 2e       	mov	r8, r24
    2ca6:	f6 01       	movw	r30, r12
    2ca8:	60 81       	ld	r22, Z
    2caa:	c7 01       	movw	r24, r14
    2cac:	0e 94 83 13 	call	0x2706	; 0x2706 <u8g2_font_decode_get_unsigned_bits>
    2cb0:	98 2e       	mov	r9, r24
    2cb2:	40 e0       	ldi	r20, 0x00	; 0
    2cb4:	68 2d       	mov	r22, r8
    2cb6:	ce 01       	movw	r24, r28
    2cb8:	0e 94 23 13 	call	0x2646	; 0x2646 <u8g2_font_decode_len>
    2cbc:	41 e0       	ldi	r20, 0x01	; 1
    2cbe:	69 2d       	mov	r22, r9
    2cc0:	ce 01       	movw	r24, r28
    2cc2:	0e 94 23 13 	call	0x2646	; 0x2646 <u8g2_font_decode_len>
    2cc6:	61 e0       	ldi	r22, 0x01	; 1
    2cc8:	c7 01       	movw	r24, r14
    2cca:	0e 94 83 13 	call	0x2706	; 0x2706 <u8g2_font_decode_get_unsigned_bits>
    2cce:	81 11       	cpse	r24, r1
    2cd0:	f0 cf       	rjmp	.-32     	; 0x2cb2 <u8g2_DrawGlyph+0x19a>
    2cd2:	f7 01       	movw	r30, r14
    2cd4:	87 81       	ldd	r24, Z+7	; 0x07
    2cd6:	8b 15       	cp	r24, r11
    2cd8:	04 f3       	brlt	.-64     	; 0x2c9a <u8g2_DrawGlyph+0x182>
    2cda:	c6 57       	subi	r28, 0x76	; 118
    2cdc:	df 4f       	sbci	r29, 0xFF	; 255
    2cde:	84 85       	ldd	r24, Z+12	; 0x0c
    2ce0:	88 83       	st	Y, r24
    2ce2:	8a 2d       	mov	r24, r10
    2ce4:	aa 0c       	add	r10, r10
    2ce6:	99 0b       	sbc	r25, r25
    2ce8:	df 91       	pop	r29
    2cea:	cf 91       	pop	r28
    2cec:	1f 91       	pop	r17
    2cee:	0f 91       	pop	r16
    2cf0:	ff 90       	pop	r15
    2cf2:	ef 90       	pop	r14
    2cf4:	df 90       	pop	r13
    2cf6:	cf 90       	pop	r12
    2cf8:	bf 90       	pop	r11
    2cfa:	af 90       	pop	r10
    2cfc:	9f 90       	pop	r9
    2cfe:	8f 90       	pop	r8
    2d00:	08 95       	ret
    2d02:	81 e0       	ldi	r24, 0x01	; 1
    2d04:	90 e0       	ldi	r25, 0x00	; 0
    2d06:	8b 19       	sub	r24, r11
    2d08:	91 09       	sbc	r25, r1
    2d0a:	b7 fc       	sbrc	r11, 7
    2d0c:	93 95       	inc	r25
    2d0e:	96 01       	movw	r18, r12
    2d10:	2f 5f       	subi	r18, 0xFF	; 255
    2d12:	3f 4f       	sbci	r19, 0xFF	; 255
    2d14:	8a 01       	movw	r16, r20
    2d16:	09 0d       	add	r16, r9
    2d18:	11 1d       	adc	r17, r1
    2d1a:	97 fc       	sbrc	r9, 7
    2d1c:	1a 95       	dec	r17
    2d1e:	c8 0e       	add	r12, r24
    2d20:	d9 1e       	adc	r13, r25
    2d22:	ab cf       	rjmp	.-170    	; 0x2c7a <u8g2_DrawGlyph+0x162>
    2d24:	81 e0       	ldi	r24, 0x01	; 1
    2d26:	90 e0       	ldi	r25, 0x00	; 0
    2d28:	bc 01       	movw	r22, r24
    2d2a:	69 19       	sub	r22, r9
    2d2c:	71 09       	sbc	r23, r1
    2d2e:	97 fc       	sbrc	r9, 7
    2d30:	73 95       	inc	r23
    2d32:	96 01       	movw	r18, r12
    2d34:	2f 5f       	subi	r18, 0xFF	; 255
    2d36:	3f 4f       	sbci	r19, 0xFF	; 255
    2d38:	8b 19       	sub	r24, r11
    2d3a:	91 09       	sbc	r25, r1
    2d3c:	b7 fc       	sbrc	r11, 7
    2d3e:	93 95       	inc	r25
    2d40:	8a 01       	movw	r16, r20
    2d42:	0f 5f       	subi	r16, 0xFF	; 255
    2d44:	1f 4f       	sbci	r17, 0xFF	; 255
    2d46:	48 0f       	add	r20, r24
    2d48:	59 1f       	adc	r21, r25
    2d4a:	c6 0e       	add	r12, r22
    2d4c:	d7 1e       	adc	r13, r23
    2d4e:	95 cf       	rjmp	.-214    	; 0x2c7a <u8g2_DrawGlyph+0x162>
    2d50:	96 01       	movw	r18, r12
    2d52:	2b 0d       	add	r18, r11
    2d54:	31 1d       	adc	r19, r1
    2d56:	b7 fc       	sbrc	r11, 7
    2d58:	3a 95       	dec	r19
    2d5a:	81 e0       	ldi	r24, 0x01	; 1
    2d5c:	90 e0       	ldi	r25, 0x00	; 0
    2d5e:	89 19       	sub	r24, r9
    2d60:	91 09       	sbc	r25, r1
    2d62:	97 fc       	sbrc	r9, 7
    2d64:	93 95       	inc	r25
    2d66:	8a 01       	movw	r16, r20
    2d68:	0f 5f       	subi	r16, 0xFF	; 255
    2d6a:	1f 4f       	sbci	r17, 0xFF	; 255
    2d6c:	48 0f       	add	r20, r24
    2d6e:	59 1f       	adc	r21, r25
    2d70:	84 cf       	rjmp	.-248    	; 0x2c7a <u8g2_DrawGlyph+0x162>
    2d72:	90 e0       	ldi	r25, 0x00	; 0
    2d74:	80 e0       	ldi	r24, 0x00	; 0
    2d76:	b8 cf       	rjmp	.-144    	; 0x2ce8 <u8g2_DrawGlyph+0x1d0>

00002d78 <u8g2_draw_string>:
    2d78:	8f 92       	push	r8
    2d7a:	9f 92       	push	r9
    2d7c:	af 92       	push	r10
    2d7e:	bf 92       	push	r11
    2d80:	cf 92       	push	r12
    2d82:	df 92       	push	r13
    2d84:	ef 92       	push	r14
    2d86:	ff 92       	push	r15
    2d88:	0f 93       	push	r16
    2d8a:	1f 93       	push	r17
    2d8c:	cf 93       	push	r28
    2d8e:	df 93       	push	r29
    2d90:	ec 01       	movw	r28, r24
    2d92:	8b 01       	movw	r16, r22
    2d94:	7a 01       	movw	r14, r20
    2d96:	18 8e       	std	Y+24, r1	; 0x18
    2d98:	69 01       	movw	r12, r18
    2d9a:	b1 2c       	mov	r11, r1
    2d9c:	a1 2c       	mov	r10, r1
    2d9e:	4c 01       	movw	r8, r24
    2da0:	2c e6       	ldi	r18, 0x6C	; 108
    2da2:	82 0e       	add	r8, r18
    2da4:	91 1c       	adc	r9, r1
    2da6:	f6 01       	movw	r30, r12
    2da8:	61 91       	ld	r22, Z+
    2daa:	6f 01       	movw	r12, r30
    2dac:	ea 81       	ldd	r30, Y+2	; 0x02
    2dae:	fb 81       	ldd	r31, Y+3	; 0x03
    2db0:	ce 01       	movw	r24, r28
    2db2:	09 95       	icall
    2db4:	8f 3f       	cpi	r24, 0xFF	; 255
    2db6:	98 07       	cpc	r25, r24
    2db8:	11 f1       	breq	.+68     	; 0x2dfe <u8g2_draw_string+0x86>
    2dba:	8e 3f       	cpi	r24, 0xFE	; 254
    2dbc:	2f ef       	ldi	r18, 0xFF	; 255
    2dbe:	92 07       	cpc	r25, r18
    2dc0:	91 f3       	breq	.-28     	; 0x2da6 <u8g2_draw_string+0x2e>
    2dc2:	9c 01       	movw	r18, r24
    2dc4:	a7 01       	movw	r20, r14
    2dc6:	b8 01       	movw	r22, r16
    2dc8:	ce 01       	movw	r24, r28
    2dca:	0e 94 8c 15 	call	0x2b18	; 0x2b18 <u8g2_DrawGlyph>
    2dce:	f4 01       	movw	r30, r8
    2dd0:	20 81       	ld	r18, Z
    2dd2:	21 30       	cpi	r18, 0x01	; 1
    2dd4:	59 f0       	breq	.+22     	; 0x2dec <u8g2_draw_string+0x74>
    2dd6:	38 f0       	brcs	.+14     	; 0x2de6 <u8g2_draw_string+0x6e>
    2dd8:	22 30       	cpi	r18, 0x02	; 2
    2dda:	59 f0       	breq	.+22     	; 0x2df2 <u8g2_draw_string+0x7a>
    2ddc:	23 30       	cpi	r18, 0x03	; 3
    2dde:	61 f0       	breq	.+24     	; 0x2df8 <u8g2_draw_string+0x80>
    2de0:	a8 0e       	add	r10, r24
    2de2:	b9 1e       	adc	r11, r25
    2de4:	e0 cf       	rjmp	.-64     	; 0x2da6 <u8g2_draw_string+0x2e>
    2de6:	08 0f       	add	r16, r24
    2de8:	19 1f       	adc	r17, r25
    2dea:	fa cf       	rjmp	.-12     	; 0x2de0 <u8g2_draw_string+0x68>
    2dec:	e8 0e       	add	r14, r24
    2dee:	f9 1e       	adc	r15, r25
    2df0:	f7 cf       	rjmp	.-18     	; 0x2de0 <u8g2_draw_string+0x68>
    2df2:	08 1b       	sub	r16, r24
    2df4:	19 0b       	sbc	r17, r25
    2df6:	f4 cf       	rjmp	.-24     	; 0x2de0 <u8g2_draw_string+0x68>
    2df8:	e8 1a       	sub	r14, r24
    2dfa:	f9 0a       	sbc	r15, r25
    2dfc:	f1 cf       	rjmp	.-30     	; 0x2de0 <u8g2_draw_string+0x68>
    2dfe:	c5 01       	movw	r24, r10
    2e00:	df 91       	pop	r29
    2e02:	cf 91       	pop	r28
    2e04:	1f 91       	pop	r17
    2e06:	0f 91       	pop	r16
    2e08:	ff 90       	pop	r15
    2e0a:	ef 90       	pop	r14
    2e0c:	df 90       	pop	r13
    2e0e:	cf 90       	pop	r12
    2e10:	bf 90       	pop	r11
    2e12:	af 90       	pop	r10
    2e14:	9f 90       	pop	r9
    2e16:	8f 90       	pop	r8
    2e18:	08 95       	ret

00002e1a <u8g2_DrawButtonUTF8.constprop.94>:
    2e1a:	7f 92       	push	r7
    2e1c:	8f 92       	push	r8
    2e1e:	9f 92       	push	r9
    2e20:	af 92       	push	r10
    2e22:	bf 92       	push	r11
    2e24:	cf 92       	push	r12
    2e26:	df 92       	push	r13
    2e28:	ef 92       	push	r14
    2e2a:	ff 92       	push	r15
    2e2c:	0f 93       	push	r16
    2e2e:	1f 93       	push	r17
    2e30:	cf 93       	push	r28
    2e32:	df 93       	push	r29
    2e34:	5c 01       	movw	r10, r24
    2e36:	eb 01       	movw	r28, r22
    2e38:	6a 01       	movw	r12, r20
    2e3a:	89 01       	movw	r16, r18
    2e3c:	88 e5       	ldi	r24, 0x58	; 88
    2e3e:	92 e0       	ldi	r25, 0x02	; 2
    2e40:	0e 94 84 15 	call	0x2b08	; 0x2b08 <u8g2_GetUTF8Width.constprop.95>
    2e44:	78 2e       	mov	r7, r24
    2e46:	f9 2e       	mov	r15, r25
    2e48:	81 e0       	ldi	r24, 0x01	; 1
    2e4a:	80 93 47 06 	sts	0x0647, r24	; 0x800647 <oled+0x6d>
    2e4e:	8e e8       	ldi	r24, 0x8E	; 142
    2e50:	90 e1       	ldi	r25, 0x10	; 16
    2e52:	90 93 e1 05 	sts	0x05E1, r25	; 0x8005e1 <oled+0x7>
    2e56:	80 93 e0 05 	sts	0x05E0, r24	; 0x8005e0 <oled+0x6>
    2e5a:	28 e5       	ldi	r18, 0x58	; 88
    2e5c:	32 e0       	ldi	r19, 0x02	; 2
    2e5e:	ae 01       	movw	r20, r28
    2e60:	b5 01       	movw	r22, r10
    2e62:	8e ed       	ldi	r24, 0xDE	; 222
    2e64:	95 e0       	ldi	r25, 0x05	; 5
    2e66:	0e 94 bc 16 	call	0x2d78	; 0x2d78 <u8g2_draw_string>
    2e6a:	e0 90 64 06 	lds	r14, 0x0664	; 0x800664 <oled+0x8a>
    2e6e:	80 90 65 06 	lds	r8, 0x0665	; 0x800665 <oled+0x8b>
    2e72:	90 90 68 06 	lds	r9, 0x0668	; 0x800668 <oled+0x8e>
    2e76:	ac 18       	sub	r10, r12
    2e78:	bd 08       	sbc	r11, r13
    2e7a:	cc 0c       	add	r12, r12
    2e7c:	dd 1c       	adc	r13, r13
    2e7e:	87 2d       	mov	r24, r7
    2e80:	9f 2d       	mov	r25, r15
    2e82:	80 38       	cpi	r24, 0x80	; 128
    2e84:	91 05       	cpc	r25, r1
    2e86:	10 f4       	brcc	.+4      	; 0x2e8c <u8g2_DrawButtonUTF8.constprop.94+0x72>
    2e88:	80 e8       	ldi	r24, 0x80	; 128
    2e8a:	90 e0       	ldi	r25, 0x00	; 0
    2e8c:	c8 0e       	add	r12, r24
    2e8e:	d9 1e       	adc	r13, r25
    2e90:	e0 91 3a 06 	lds	r30, 0x063A	; 0x80063a <oled+0x60>
    2e94:	f0 91 3b 06 	lds	r31, 0x063B	; 0x80063b <oled+0x61>
    2e98:	8e ed       	ldi	r24, 0xDE	; 222
    2e9a:	95 e0       	ldi	r25, 0x05	; 5
    2e9c:	09 95       	icall
    2e9e:	0e 2c       	mov	r0, r14
    2ea0:	00 0c       	add	r0, r0
    2ea2:	ff 08       	sbc	r15, r15
    2ea4:	97 01       	movw	r18, r14
    2ea6:	20 0f       	add	r18, r16
    2ea8:	31 1f       	adc	r19, r17
    2eaa:	c2 1b       	sub	r28, r18
    2eac:	d3 0b       	sbc	r29, r19
    2eae:	c8 0f       	add	r28, r24
    2eb0:	d9 1f       	adc	r29, r25
    2eb2:	e8 18       	sub	r14, r8
    2eb4:	f1 08       	sbc	r15, r1
    2eb6:	87 fc       	sbrc	r8, 7
    2eb8:	f3 94       	inc	r15
    2eba:	00 0f       	add	r16, r16
    2ebc:	11 1f       	adc	r17, r17
    2ebe:	e0 0e       	add	r14, r16
    2ec0:	f1 1e       	adc	r15, r17
    2ec2:	82 e0       	ldi	r24, 0x02	; 2
    2ec4:	0e 94 c5 06 	call	0xd8a	; 0xd8a <u8g2_SetDrawColor.constprop.105>
    2ec8:	ec 0e       	add	r14, r28
    2eca:	fd 1e       	adc	r15, r29
    2ecc:	95 01       	movw	r18, r10
    2ece:	2c 0d       	add	r18, r12
    2ed0:	3d 1d       	adc	r19, r13
    2ed2:	87 01       	movw	r16, r14
    2ed4:	ae 01       	movw	r20, r28
    2ed6:	b5 01       	movw	r22, r10
    2ed8:	8e ed       	ldi	r24, 0xDE	; 222
    2eda:	95 e0       	ldi	r25, 0x05	; 5
    2edc:	0e 94 31 11 	call	0x2262	; 0x2262 <u8g2_IsIntersection>
    2ee0:	81 11       	cpse	r24, r1
    2ee2:	19 c0       	rjmp	.+50     	; 0x2f16 <u8g2_DrawButtonUTF8.constprop.94+0xfc>
    2ee4:	89 2d       	mov	r24, r9
    2ee6:	df 91       	pop	r29
    2ee8:	cf 91       	pop	r28
    2eea:	1f 91       	pop	r17
    2eec:	0f 91       	pop	r16
    2eee:	ff 90       	pop	r15
    2ef0:	ef 90       	pop	r14
    2ef2:	df 90       	pop	r13
    2ef4:	cf 90       	pop	r12
    2ef6:	bf 90       	pop	r11
    2ef8:	af 90       	pop	r10
    2efa:	9f 90       	pop	r9
    2efc:	8f 90       	pop	r8
    2efe:	7f 90       	pop	r7
    2f00:	0c 94 c5 06 	jmp	0xd8a	; 0xd8a <u8g2_SetDrawColor.constprop.105>
    2f04:	00 e0       	ldi	r16, 0x00	; 0
    2f06:	96 01       	movw	r18, r12
    2f08:	ae 01       	movw	r20, r28
    2f0a:	b5 01       	movw	r22, r10
    2f0c:	8e ed       	ldi	r24, 0xDE	; 222
    2f0e:	95 e0       	ldi	r25, 0x05	; 5
    2f10:	0e 94 1e 12 	call	0x243c	; 0x243c <u8g2_DrawHVLine>
    2f14:	21 96       	adiw	r28, 0x01	; 1
    2f16:	ec 16       	cp	r14, r28
    2f18:	fd 06       	cpc	r15, r29
    2f1a:	a1 f7       	brne	.-24     	; 0x2f04 <u8g2_DrawButtonUTF8.constprop.94+0xea>
    2f1c:	e3 cf       	rjmp	.-58     	; 0x2ee4 <u8g2_DrawButtonUTF8.constprop.94+0xca>

00002f1e <_ZN4U8G28drawUTF8EjjPKc.constprop.146>:
    2f1e:	9a 01       	movw	r18, r20
    2f20:	4e e8       	ldi	r20, 0x8E	; 142
    2f22:	50 e1       	ldi	r21, 0x10	; 16
    2f24:	50 93 e1 05 	sts	0x05E1, r21	; 0x8005e1 <oled+0x7>
    2f28:	40 93 e0 05 	sts	0x05E0, r20	; 0x8005e0 <oled+0x6>
    2f2c:	ab 01       	movw	r20, r22
    2f2e:	bc 01       	movw	r22, r24
    2f30:	8e ed       	ldi	r24, 0xDE	; 222
    2f32:	95 e0       	ldi	r25, 0x05	; 5
    2f34:	0c 94 bc 16 	jmp	0x2d78	; 0x2d78 <u8g2_draw_string>

00002f38 <u8g2_SetBufferCurrTileRow>:
    2f38:	cf 93       	push	r28
    2f3a:	df 93       	push	r29
    2f3c:	ec 01       	movw	r28, r24
    2f3e:	6b af       	std	Y+59, r22	; 0x3b
    2f40:	ee a9       	ldd	r30, Y+54	; 0x36
    2f42:	ff a9       	ldd	r31, Y+55	; 0x37
    2f44:	01 90       	ld	r0, Z+
    2f46:	f0 81       	ld	r31, Z
    2f48:	e0 2d       	mov	r30, r0
    2f4a:	09 95       	icall
    2f4c:	ee a9       	ldd	r30, Y+54	; 0x36
    2f4e:	ff a9       	ldd	r31, Y+55	; 0x37
    2f50:	02 80       	ldd	r0, Z+2	; 0x02
    2f52:	f3 81       	ldd	r31, Z+3	; 0x03
    2f54:	e0 2d       	mov	r30, r0
    2f56:	ce 01       	movw	r24, r28
    2f58:	df 91       	pop	r29
    2f5a:	cf 91       	pop	r28
    2f5c:	09 94       	ijmp

00002f5e <u8g2_send_buffer>:
    2f5e:	af 92       	push	r10
    2f60:	bf 92       	push	r11
    2f62:	cf 92       	push	r12
    2f64:	df 92       	push	r13
    2f66:	ef 92       	push	r14
    2f68:	ff 92       	push	r15
    2f6a:	0f 93       	push	r16
    2f6c:	1f 93       	push	r17
    2f6e:	cf 93       	push	r28
    2f70:	df 93       	push	r29
    2f72:	00 d0       	rcall	.+0      	; 0x2f74 <u8g2_send_buffer+0x16>
    2f74:	00 d0       	rcall	.+0      	; 0x2f76 <u8g2_send_buffer+0x18>
    2f76:	1f 92       	push	r1
    2f78:	cd b7       	in	r28, 0x3d	; 61
    2f7a:	de b7       	in	r29, 0x3e	; 62
    2f7c:	8c 01       	movw	r16, r24
    2f7e:	dc 01       	movw	r26, r24
    2f80:	da 96       	adiw	r26, 0x3a	; 58
    2f82:	ac 90       	ld	r10, X
    2f84:	da 97       	sbiw	r26, 0x3a	; 58
    2f86:	db 96       	adiw	r26, 0x3b	; 59
    2f88:	ec 90       	ld	r14, X
    2f8a:	db 97       	sbiw	r26, 0x3b	; 59
    2f8c:	ed 91       	ld	r30, X+
    2f8e:	fc 91       	ld	r31, X
    2f90:	b1 88       	ldd	r11, Z+17	; 0x11
    2f92:	fe 2c       	mov	r15, r14
    2f94:	d1 2c       	mov	r13, r1
    2f96:	c1 2c       	mov	r12, r1
    2f98:	d8 01       	movw	r26, r16
    2f9a:	ed 91       	ld	r30, X+
    2f9c:	fc 91       	ld	r31, X
    2f9e:	11 97       	sbiw	r26, 0x01	; 1
    2fa0:	80 89       	ldd	r24, Z+16	; 0x10
    2fa2:	d8 96       	adiw	r26, 0x38	; 56
    2fa4:	2d 91       	ld	r18, X+
    2fa6:	3c 91       	ld	r19, X
    2fa8:	1c 82       	std	Y+4, r1	; 0x04
    2faa:	fd 82       	std	Y+5, r15	; 0x05
    2fac:	8b 83       	std	Y+3, r24	; 0x03
    2fae:	b8 e0       	ldi	r27, 0x08	; 8
    2fb0:	8b 9f       	mul	r24, r27
    2fb2:	c0 01       	movw	r24, r0
    2fb4:	11 24       	eor	r1, r1
    2fb6:	8c 9d       	mul	r24, r12
    2fb8:	a0 01       	movw	r20, r0
    2fba:	8d 9d       	mul	r24, r13
    2fbc:	50 0d       	add	r21, r0
    2fbe:	9c 9d       	mul	r25, r12
    2fc0:	50 0d       	add	r21, r0
    2fc2:	11 24       	eor	r1, r1
    2fc4:	24 0f       	add	r18, r20
    2fc6:	35 1f       	adc	r19, r21
    2fc8:	3a 83       	std	Y+2, r19	; 0x02
    2fca:	29 83       	std	Y+1, r18	; 0x01
    2fcc:	d8 01       	movw	r26, r16
    2fce:	14 96       	adiw	r26, 0x04	; 4
    2fd0:	ed 91       	ld	r30, X+
    2fd2:	fc 91       	ld	r31, X
    2fd4:	9e 01       	movw	r18, r28
    2fd6:	2f 5f       	subi	r18, 0xFF	; 255
    2fd8:	3f 4f       	sbci	r19, 0xFF	; 255
    2fda:	41 e0       	ldi	r20, 0x01	; 1
    2fdc:	6f e0       	ldi	r22, 0x0F	; 15
    2fde:	c8 01       	movw	r24, r16
    2fe0:	09 95       	icall
    2fe2:	f3 94       	inc	r15
    2fe4:	8f 2d       	mov	r24, r15
    2fe6:	8e 19       	sub	r24, r14
    2fe8:	8a 15       	cp	r24, r10
    2fea:	28 f4       	brcc	.+10     	; 0x2ff6 <u8g2_send_buffer+0x98>
    2fec:	bf ef       	ldi	r27, 0xFF	; 255
    2fee:	cb 1a       	sub	r12, r27
    2ff0:	db 0a       	sbc	r13, r27
    2ff2:	fb 14       	cp	r15, r11
    2ff4:	88 f2       	brcs	.-94     	; 0x2f98 <u8g2_send_buffer+0x3a>
    2ff6:	0f 90       	pop	r0
    2ff8:	0f 90       	pop	r0
    2ffa:	0f 90       	pop	r0
    2ffc:	0f 90       	pop	r0
    2ffe:	0f 90       	pop	r0
    3000:	df 91       	pop	r29
    3002:	cf 91       	pop	r28
    3004:	1f 91       	pop	r17
    3006:	0f 91       	pop	r16
    3008:	ff 90       	pop	r15
    300a:	ef 90       	pop	r14
    300c:	df 90       	pop	r13
    300e:	cf 90       	pop	r12
    3010:	bf 90       	pop	r11
    3012:	af 90       	pop	r10
    3014:	08 95       	ret

00003016 <u8x8_byte_arduino_hw_i2c>:
    3016:	cf 93       	push	r28
    3018:	df 93       	push	r29
    301a:	ec 01       	movw	r28, r24
    301c:	96 2f       	mov	r25, r22
    301e:	68 31       	cpi	r22, 0x18	; 24
    3020:	89 f1       	breq	.+98     	; 0x3084 <u8x8_byte_arduino_hw_i2c+0x6e>
    3022:	b9 01       	movw	r22, r18
    3024:	99 31       	cpi	r25, 0x19	; 25
    3026:	30 f4       	brcc	.+12     	; 0x3034 <u8x8_byte_arduino_hw_i2c+0x1e>
    3028:	94 31       	cpi	r25, 0x14	; 20
    302a:	99 f0       	breq	.+38     	; 0x3052 <u8x8_byte_arduino_hw_i2c+0x3c>
    302c:	97 31       	cpi	r25, 0x17	; 23
    302e:	59 f0       	breq	.+22     	; 0x3046 <u8x8_byte_arduino_hw_i2c+0x30>
    3030:	80 e0       	ldi	r24, 0x00	; 0
    3032:	06 c0       	rjmp	.+12     	; 0x3040 <u8x8_byte_arduino_hw_i2c+0x2a>
    3034:	99 31       	cpi	r25, 0x19	; 25
    3036:	09 f4       	brne	.+2      	; 0x303a <u8x8_byte_arduino_hw_i2c+0x24>
    3038:	47 c0       	rjmp	.+142    	; 0x30c8 <u8x8_byte_arduino_hw_i2c+0xb2>
    303a:	90 32       	cpi	r25, 0x20	; 32
    303c:	c9 f7       	brne	.-14     	; 0x3030 <u8x8_byte_arduino_hw_i2c+0x1a>
    303e:	81 e0       	ldi	r24, 0x01	; 1
    3040:	df 91       	pop	r29
    3042:	cf 91       	pop	r28
    3044:	08 95       	ret
    3046:	50 e0       	ldi	r21, 0x00	; 0
    3048:	81 ef       	ldi	r24, 0xF1	; 241
    304a:	93 e0       	ldi	r25, 0x03	; 3
    304c:	0e 94 fd 07 	call	0xffa	; 0xffa <_ZN7TwoWire5writeEPKhj>
    3050:	f6 cf       	rjmp	.-20     	; 0x303e <u8x8_byte_arduino_hw_i2c+0x28>
    3052:	8c 85       	ldd	r24, Y+12	; 0x0c
    3054:	9d 85       	ldd	r25, Y+13	; 0x0d
    3056:	ae 85       	ldd	r26, Y+14	; 0x0e
    3058:	bf 85       	ldd	r27, Y+15	; 0x0f
    305a:	89 2b       	or	r24, r25
    305c:	8a 2b       	or	r24, r26
    305e:	8b 2b       	or	r24, r27
    3060:	71 f4       	brne	.+28     	; 0x307e <u8x8_byte_arduino_hw_i2c+0x68>
    3062:	e8 81       	ld	r30, Y
    3064:	f9 81       	ldd	r31, Y+1	; 0x01
    3066:	a5 85       	ldd	r26, Z+13	; 0x0d
    3068:	b0 e0       	ldi	r27, 0x00	; 0
    306a:	20 ea       	ldi	r18, 0xA0	; 160
    306c:	36 e8       	ldi	r19, 0x86	; 134
    306e:	41 e0       	ldi	r20, 0x01	; 1
    3070:	50 e0       	ldi	r21, 0x00	; 0
    3072:	0e 94 58 3b 	call	0x76b0	; 0x76b0 <__muluhisi3>
    3076:	6c 87       	std	Y+12, r22	; 0x0c
    3078:	7d 87       	std	Y+13, r23	; 0x0d
    307a:	8e 87       	std	Y+14, r24	; 0x0e
    307c:	9f 87       	std	Y+15, r25	; 0x0f
    307e:	0e 94 d8 09 	call	0x13b0	; 0x13b0 <_ZN7TwoWire5beginEv.constprop.41>
    3082:	dd cf       	rjmp	.-70     	; 0x303e <u8x8_byte_arduino_hw_i2c+0x28>
    3084:	2c 85       	ldd	r18, Y+12	; 0x0c
    3086:	3d 85       	ldd	r19, Y+13	; 0x0d
    3088:	4e 85       	ldd	r20, Y+14	; 0x0e
    308a:	5f 85       	ldd	r21, Y+15	; 0x0f
    308c:	60 e0       	ldi	r22, 0x00	; 0
    308e:	74 e2       	ldi	r23, 0x24	; 36
    3090:	84 ef       	ldi	r24, 0xF4	; 244
    3092:	90 e0       	ldi	r25, 0x00	; 0
    3094:	0e 94 a2 3b 	call	0x7744	; 0x7744 <__udivmodsi4>
    3098:	20 51       	subi	r18, 0x10	; 16
    309a:	31 09       	sbc	r19, r1
    309c:	41 09       	sbc	r20, r1
    309e:	51 09       	sbc	r21, r1
    30a0:	56 95       	lsr	r21
    30a2:	47 95       	ror	r20
    30a4:	37 95       	ror	r19
    30a6:	27 95       	ror	r18
    30a8:	20 93 b8 00 	sts	0x00B8, r18	; 0x8000b8 <__TEXT_REGION_LENGTH__+0x7e00b8>
    30ac:	8e 89       	ldd	r24, Y+22	; 0x16
    30ae:	90 e0       	ldi	r25, 0x00	; 0
    30b0:	95 95       	asr	r25
    30b2:	87 95       	ror	r24
    30b4:	91 e0       	ldi	r25, 0x01	; 1
    30b6:	90 93 45 03 	sts	0x0345, r25	; 0x800345 <_ZN7TwoWire12transmittingE>
    30ba:	80 93 67 03 	sts	0x0367, r24	; 0x800367 <_ZN7TwoWire9txAddressE>
    30be:	10 92 46 03 	sts	0x0346, r1	; 0x800346 <_ZN7TwoWire13txBufferIndexE>
    30c2:	10 92 68 03 	sts	0x0368, r1	; 0x800368 <_ZN7TwoWire14txBufferLengthE>
    30c6:	bb cf       	rjmp	.-138    	; 0x303e <u8x8_byte_arduino_hw_i2c+0x28>
    30c8:	0e 94 53 07 	call	0xea6	; 0xea6 <_ZN7TwoWire15endTransmissionEv.constprop.60>
    30cc:	b8 cf       	rjmp	.-144    	; 0x303e <u8x8_byte_arduino_hw_i2c+0x28>

000030ce <u8x8_gpio_and_delay_arduino>:
    30ce:	0f 93       	push	r16
    30d0:	1f 93       	push	r17
    30d2:	cf 93       	push	r28
    30d4:	df 93       	push	r29
    30d6:	8c 01       	movw	r16, r24
    30d8:	c6 2f       	mov	r28, r22
    30da:	64 2f       	mov	r22, r20
    30dc:	cc 32       	cpi	r28, 0x2C	; 44
    30de:	e8 f4       	brcc	.+58     	; 0x311a <u8x8_gpio_and_delay_arduino+0x4c>
    30e0:	ca 32       	cpi	r28, 0x2A	; 42
    30e2:	08 f0       	brcs	.+2      	; 0x30e6 <u8x8_gpio_and_delay_arduino+0x18>
    30e4:	41 c0       	rjmp	.+130    	; 0x3168 <u8x8_gpio_and_delay_arduino+0x9a>
    30e6:	c8 32       	cpi	r28, 0x28	; 40
    30e8:	71 f1       	breq	.+92     	; 0x3146 <u8x8_gpio_and_delay_arduino+0x78>
    30ea:	c9 32       	cpi	r28, 0x29	; 41
    30ec:	09 f4       	brne	.+2      	; 0x30f0 <u8x8_gpio_and_delay_arduino+0x22>
    30ee:	42 c0       	rjmp	.+132    	; 0x3174 <u8x8_gpio_and_delay_arduino+0xa6>
    30f0:	80 e0       	ldi	r24, 0x00	; 0
    30f2:	c0 34       	cpi	r28, 0x40	; 64
    30f4:	d0 f1       	brcs	.+116    	; 0x316a <u8x8_gpio_and_delay_arduino+0x9c>
    30f6:	cf 73       	andi	r28, 0x3F	; 63
    30f8:	f8 01       	movw	r30, r16
    30fa:	ec 0f       	add	r30, r28
    30fc:	f1 1d       	adc	r31, r1
    30fe:	86 8d       	ldd	r24, Z+30	; 0x1e
    3100:	8f 3f       	cpi	r24, 0xFF	; 255
    3102:	91 f1       	breq	.+100    	; 0x3168 <u8x8_gpio_and_delay_arduino+0x9a>
    3104:	c0 31       	cpi	r28, 0x10	; 16
    3106:	e0 f0       	brcs	.+56     	; 0x3140 <u8x8_gpio_and_delay_arduino+0x72>
    3108:	0e 94 81 09 	call	0x1302	; 0x1302 <digitalRead>
    310c:	21 e0       	ldi	r18, 0x01	; 1
    310e:	89 2b       	or	r24, r25
    3110:	09 f4       	brne	.+2      	; 0x3114 <u8x8_gpio_and_delay_arduino+0x46>
    3112:	20 e0       	ldi	r18, 0x00	; 0
    3114:	f8 01       	movw	r30, r16
    3116:	21 8f       	std	Z+25, r18	; 0x19
    3118:	27 c0       	rjmp	.+78     	; 0x3168 <u8x8_gpio_and_delay_arduino+0x9a>
    311a:	cd 32       	cpi	r28, 0x2D	; 45
    311c:	89 f1       	breq	.+98     	; 0x3180 <u8x8_gpio_and_delay_arduino+0xb2>
    311e:	40 f3       	brcs	.-48     	; 0x30f0 <u8x8_gpio_and_delay_arduino+0x22>
    3120:	84 eb       	ldi	r24, 0xB4	; 180
    3122:	8c 0f       	add	r24, r28
    3124:	82 30       	cpi	r24, 0x02	; 2
    3126:	20 f7       	brcc	.-56     	; 0x30f0 <u8x8_gpio_and_delay_arduino+0x22>
    3128:	cf 73       	andi	r28, 0x3F	; 63
    312a:	c0 0f       	add	r28, r16
    312c:	d1 2f       	mov	r29, r17
    312e:	d1 1d       	adc	r29, r1
    3130:	8e 8d       	ldd	r24, Y+30	; 0x1e
    3132:	41 11       	cpse	r20, r1
    3134:	2e c0       	rjmp	.+92     	; 0x3192 <u8x8_gpio_and_delay_arduino+0xc4>
    3136:	61 e0       	ldi	r22, 0x01	; 1
    3138:	0e 94 0a 0a 	call	0x1414	; 0x1414 <pinMode>
    313c:	60 e0       	ldi	r22, 0x00	; 0
    313e:	8e 8d       	ldd	r24, Y+30	; 0x1e
    3140:	0e 94 aa 09 	call	0x1354	; 0x1354 <digitalWrite>
    3144:	11 c0       	rjmp	.+34     	; 0x3168 <u8x8_gpio_and_delay_arduino+0x9a>
    3146:	02 5e       	subi	r16, 0xE2	; 226
    3148:	1f 4f       	sbci	r17, 0xFF	; 255
    314a:	d0 e0       	ldi	r29, 0x00	; 0
    314c:	f8 01       	movw	r30, r16
    314e:	81 91       	ld	r24, Z+
    3150:	8f 01       	movw	r16, r30
    3152:	8f 3f       	cpi	r24, 0xFF	; 255
    3154:	31 f0       	breq	.+12     	; 0x3162 <u8x8_gpio_and_delay_arduino+0x94>
    3156:	61 e0       	ldi	r22, 0x01	; 1
    3158:	d0 31       	cpi	r29, 0x10	; 16
    315a:	08 f0       	brcs	.+2      	; 0x315e <u8x8_gpio_and_delay_arduino+0x90>
    315c:	62 e0       	ldi	r22, 0x02	; 2
    315e:	0e 94 0a 0a 	call	0x1414	; 0x1414 <pinMode>
    3162:	df 5f       	subi	r29, 0xFF	; 255
    3164:	d6 31       	cpi	r29, 0x16	; 22
    3166:	91 f7       	brne	.-28     	; 0x314c <u8x8_gpio_and_delay_arduino+0x7e>
    3168:	81 e0       	ldi	r24, 0x01	; 1
    316a:	df 91       	pop	r29
    316c:	cf 91       	pop	r28
    316e:	1f 91       	pop	r17
    3170:	0f 91       	pop	r16
    3172:	08 95       	ret
    3174:	70 e0       	ldi	r23, 0x00	; 0
    3176:	90 e0       	ldi	r25, 0x00	; 0
    3178:	80 e0       	ldi	r24, 0x00	; 0
    317a:	0e 94 e3 0a 	call	0x15c6	; 0x15c6 <delay>
    317e:	f4 cf       	rjmp	.-24     	; 0x3168 <u8x8_gpio_and_delay_arduino+0x9a>
    3180:	85 e0       	ldi	r24, 0x05	; 5
    3182:	90 e0       	ldi	r25, 0x00	; 0
    3184:	43 30       	cpi	r20, 0x03	; 3
    3186:	10 f0       	brcs	.+4      	; 0x318c <u8x8_gpio_and_delay_arduino+0xbe>
    3188:	82 e0       	ldi	r24, 0x02	; 2
    318a:	90 e0       	ldi	r25, 0x00	; 0
    318c:	0e 94 b6 0a 	call	0x156c	; 0x156c <delayMicroseconds>
    3190:	eb cf       	rjmp	.-42     	; 0x3168 <u8x8_gpio_and_delay_arduino+0x9a>
    3192:	62 e0       	ldi	r22, 0x02	; 2
    3194:	0e 94 0a 0a 	call	0x1414	; 0x1414 <pinMode>
    3198:	e7 cf       	rjmp	.-50     	; 0x3168 <u8x8_gpio_and_delay_arduino+0x9a>

0000319a <_Z6EBreadh>:
    319a:	88 30       	cpi	r24, 0x08	; 8
    319c:	58 f4       	brcc	.+22     	; 0x31b4 <_Z6EBreadh+0x1a>
    319e:	29 b1       	in	r18, 0x09	; 9
    31a0:	30 e0       	ldi	r19, 0x00	; 0
    31a2:	a9 01       	movw	r20, r18
    31a4:	02 c0       	rjmp	.+4      	; 0x31aa <_Z6EBreadh+0x10>
    31a6:	55 95       	asr	r21
    31a8:	47 95       	ror	r20
    31aa:	8a 95       	dec	r24
    31ac:	e2 f7       	brpl	.-8      	; 0x31a6 <_Z6EBreadh+0xc>
    31ae:	ca 01       	movw	r24, r20
    31b0:	81 70       	andi	r24, 0x01	; 1
    31b2:	08 95       	ret
    31b4:	8e 30       	cpi	r24, 0x0E	; 14
    31b6:	28 f4       	brcc	.+10     	; 0x31c2 <_Z6EBreadh+0x28>
    31b8:	23 b1       	in	r18, 0x03	; 3
    31ba:	30 e0       	ldi	r19, 0x00	; 0
    31bc:	88 50       	subi	r24, 0x08	; 8
    31be:	99 0b       	sbc	r25, r25
    31c0:	f0 cf       	rjmp	.-32     	; 0x31a2 <_Z6EBreadh+0x8>
    31c2:	84 31       	cpi	r24, 0x14	; 20
    31c4:	28 f4       	brcc	.+10     	; 0x31d0 <_Z6EBreadh+0x36>
    31c6:	26 b1       	in	r18, 0x06	; 6
    31c8:	30 e0       	ldi	r19, 0x00	; 0
    31ca:	8e 50       	subi	r24, 0x0E	; 14
    31cc:	99 0b       	sbc	r25, r25
    31ce:	e9 cf       	rjmp	.-46     	; 0x31a2 <_Z6EBreadh+0x8>
    31d0:	80 e0       	ldi	r24, 0x00	; 0
    31d2:	08 95       	ret

000031d4 <_ZN9EncButton7readEncEv.constprop.118>:
    31d4:	1f 93       	push	r17
    31d6:	cf 93       	push	r28
    31d8:	df 93       	push	r29
    31da:	c1 ec       	ldi	r28, 0xC1	; 193
    31dc:	d5 e0       	ldi	r29, 0x05	; 5
    31de:	8e 89       	ldd	r24, Y+22	; 0x16
    31e0:	0e 94 cd 18 	call	0x319a	; 0x319a <_Z6EBreadh>
    31e4:	18 2f       	mov	r17, r24
    31e6:	8f 89       	ldd	r24, Y+23	; 0x17
    31e8:	0e 94 cd 18 	call	0x319a	; 0x319a <_Z6EBreadh>
    31ec:	88 0f       	add	r24, r24
    31ee:	81 2b       	or	r24, r17
    31f0:	df 91       	pop	r29
    31f2:	cf 91       	pop	r28
    31f4:	1f 91       	pop	r17
    31f6:	08 95       	ret

000031f8 <_ZN5HX711D1Ev>:
    31f8:	08 95       	ret

000031fa <_Z11WDT_DISABLEv>:
    31fa:	a8 95       	wdr
    31fc:	0f b6       	in	r0, 0x3f	; 63
    31fe:	f8 94       	cli
    3200:	a8 95       	wdr
    3202:	80 91 60 00 	lds	r24, 0x0060	; 0x800060 <__TEXT_REGION_LENGTH__+0x7e0060>
    3206:	88 61       	ori	r24, 0x18	; 24
    3208:	80 93 60 00 	sts	0x0060, r24	; 0x800060 <__TEXT_REGION_LENGTH__+0x7e0060>
    320c:	10 92 60 00 	sts	0x0060, r1	; 0x800060 <__TEXT_REGION_LENGTH__+0x7e0060>
    3210:	0f be       	out	0x3f, r0	; 63
    3212:	08 95       	ret

00003214 <_Z3WDTjh>:
    3214:	60 93 9f 02 	sts	0x029F, r22	; 0x80029f <globalErrorFuncUUID>
    3218:	a8 95       	wdr
    321a:	0f b6       	in	r0, 0x3f	; 63
    321c:	f8 94       	cli
    321e:	a8 95       	wdr
    3220:	20 91 60 00 	lds	r18, 0x0060	; 0x800060 <__TEXT_REGION_LENGTH__+0x7e0060>
    3224:	28 61       	ori	r18, 0x18	; 24
    3226:	20 93 60 00 	sts	0x0060, r18	; 0x800060 <__TEXT_REGION_LENGTH__+0x7e0060>
    322a:	10 92 60 00 	sts	0x0060, r1	; 0x800060 <__TEXT_REGION_LENGTH__+0x7e0060>
    322e:	0f be       	out	0x3f, r0	; 63
    3230:	28 2f       	mov	r18, r24
    3232:	27 70       	andi	r18, 0x07	; 7
    3234:	28 60       	ori	r18, 0x08	; 8
    3236:	88 0f       	add	r24, r24
    3238:	99 1f       	adc	r25, r25
    323a:	88 0f       	add	r24, r24
    323c:	99 1f       	adc	r25, r25
    323e:	80 72       	andi	r24, 0x20	; 32
    3240:	82 2b       	or	r24, r18
    3242:	98 e1       	ldi	r25, 0x18	; 24
    3244:	0f b6       	in	r0, 0x3f	; 63
    3246:	f8 94       	cli
    3248:	a8 95       	wdr
    324a:	90 93 60 00 	sts	0x0060, r25	; 0x800060 <__TEXT_REGION_LENGTH__+0x7e0060>
    324e:	0f be       	out	0x3f, r0	; 63
    3250:	80 93 60 00 	sts	0x0060, r24	; 0x800060 <__TEXT_REGION_LENGTH__+0x7e0060>
    3254:	e0 e6       	ldi	r30, 0x60	; 96
    3256:	f0 e0       	ldi	r31, 0x00	; 0
    3258:	80 81       	ld	r24, Z
    325a:	80 64       	ori	r24, 0x40	; 64
    325c:	80 83       	st	Z, r24
    325e:	08 95       	ret

00003260 <_ZN5servo10servoPulseEii.constprop.110>:
    3260:	4f 92       	push	r4
    3262:	5f 92       	push	r5
    3264:	6f 92       	push	r6
    3266:	7f 92       	push	r7
    3268:	8f 92       	push	r8
    326a:	9f 92       	push	r9
    326c:	af 92       	push	r10
    326e:	bf 92       	push	r11
    3270:	cf 92       	push	r12
    3272:	df 92       	push	r13
    3274:	ef 92       	push	r14
    3276:	ff 92       	push	r15
    3278:	1f 93       	push	r17
    327a:	cf 93       	push	r28
    327c:	df 93       	push	r29
    327e:	18 2f       	mov	r17, r24
    3280:	eb 01       	movw	r28, r22
    3282:	63 e0       	ldi	r22, 0x03	; 3
    3284:	88 e0       	ldi	r24, 0x08	; 8
    3286:	90 e0       	ldi	r25, 0x00	; 0
    3288:	0e 94 0a 19 	call	0x3214	; 0x3214 <_Z3WDTjh>
    328c:	2c ed       	ldi	r18, 0xDC	; 220
    328e:	35 e0       	ldi	r19, 0x05	; 5
    3290:	de 01       	movw	r26, r28
    3292:	0e 94 ef 3b 	call	0x77de	; 0x77de <__usmulhisi3>
    3296:	24 eb       	ldi	r18, 0xB4	; 180
    3298:	30 e0       	ldi	r19, 0x00	; 0
    329a:	40 e0       	ldi	r20, 0x00	; 0
    329c:	50 e0       	ldi	r21, 0x00	; 0
    329e:	0e 94 39 3b 	call	0x7672	; 0x7672 <__divmodsi4>
    32a2:	49 01       	movw	r8, r18
    32a4:	5a 01       	movw	r10, r20
    32a6:	84 ef       	ldi	r24, 0xF4	; 244
    32a8:	88 0e       	add	r8, r24
    32aa:	81 e0       	ldi	r24, 0x01	; 1
    32ac:	98 1e       	adc	r9, r24
    32ae:	a1 1c       	adc	r10, r1
    32b0:	b1 1c       	adc	r11, r1
    32b2:	c5 e1       	ldi	r28, 0x15	; 21
    32b4:	d0 e0       	ldi	r29, 0x00	; 0
    32b6:	80 e2       	ldi	r24, 0x20	; 32
    32b8:	c8 2e       	mov	r12, r24
    32ba:	8e e4       	ldi	r24, 0x4E	; 78
    32bc:	d8 2e       	mov	r13, r24
    32be:	c8 18       	sub	r12, r8
    32c0:	d9 08       	sbc	r13, r9
    32c2:	0d 2c       	mov	r0, r13
    32c4:	00 0c       	add	r0, r0
    32c6:	ee 08       	sbc	r14, r14
    32c8:	ff 08       	sbc	r15, r15
    32ca:	0e 94 be 0a 	call	0x157c	; 0x157c <micros>
    32ce:	2b 01       	movw	r4, r22
    32d0:	3c 01       	movw	r6, r24
    32d2:	61 e0       	ldi	r22, 0x01	; 1
    32d4:	81 2f       	mov	r24, r17
    32d6:	0e 94 aa 09 	call	0x1354	; 0x1354 <digitalWrite>
    32da:	0e 94 be 0a 	call	0x157c	; 0x157c <micros>
    32de:	64 19       	sub	r22, r4
    32e0:	75 09       	sbc	r23, r5
    32e2:	86 09       	sbc	r24, r6
    32e4:	97 09       	sbc	r25, r7
    32e6:	68 15       	cp	r22, r8
    32e8:	79 05       	cpc	r23, r9
    32ea:	8a 05       	cpc	r24, r10
    32ec:	9b 05       	cpc	r25, r11
    32ee:	a8 f3       	brcs	.-22     	; 0x32da <_ZN5servo10servoPulseEii.constprop.110+0x7a>
    32f0:	60 e0       	ldi	r22, 0x00	; 0
    32f2:	81 2f       	mov	r24, r17
    32f4:	0e 94 aa 09 	call	0x1354	; 0x1354 <digitalWrite>
    32f8:	0e 94 be 0a 	call	0x157c	; 0x157c <micros>
    32fc:	64 19       	sub	r22, r4
    32fe:	75 09       	sbc	r23, r5
    3300:	86 09       	sbc	r24, r6
    3302:	97 09       	sbc	r25, r7
    3304:	6c 15       	cp	r22, r12
    3306:	7d 05       	cpc	r23, r13
    3308:	8e 05       	cpc	r24, r14
    330a:	9f 05       	cpc	r25, r15
    330c:	a8 f3       	brcs	.-22     	; 0x32f8 <_ZN5servo10servoPulseEii.constprop.110+0x98>
    330e:	21 97       	sbiw	r28, 0x01	; 1
    3310:	e1 f6       	brne	.-72     	; 0x32ca <_ZN5servo10servoPulseEii.constprop.110+0x6a>
    3312:	df 91       	pop	r29
    3314:	cf 91       	pop	r28
    3316:	1f 91       	pop	r17
    3318:	ff 90       	pop	r15
    331a:	ef 90       	pop	r14
    331c:	df 90       	pop	r13
    331e:	cf 90       	pop	r12
    3320:	bf 90       	pop	r11
    3322:	af 90       	pop	r10
    3324:	9f 90       	pop	r9
    3326:	8f 90       	pop	r8
    3328:	7f 90       	pop	r7
    332a:	6f 90       	pop	r6
    332c:	5f 90       	pop	r5
    332e:	4f 90       	pop	r4
    3330:	0c 94 fd 18 	jmp	0x31fa	; 0x31fa <_Z11WDT_DISABLEv>

00003334 <_ZN5servo4testEv.constprop.109>:
    3334:	cf 93       	push	r28
    3336:	df 93       	push	r29
    3338:	ca e1       	ldi	r28, 0x1A	; 26
    333a:	d5 e0       	ldi	r29, 0x05	; 5
    333c:	88 81       	ld	r24, Y
    333e:	6a e5       	ldi	r22, 0x5A	; 90
    3340:	70 e0       	ldi	r23, 0x00	; 0
    3342:	90 e0       	ldi	r25, 0x00	; 0
    3344:	0e 94 30 19 	call	0x3260	; 0x3260 <_ZN5servo10servoPulseEii.constprop.110>
    3348:	1a 86       	std	Y+10, r1	; 0x0a
    334a:	69 85       	ldd	r22, Y+9	; 0x09
    334c:	70 e0       	ldi	r23, 0x00	; 0
    334e:	66 5a       	subi	r22, 0xA6	; 166
    3350:	7f 4f       	sbci	r23, 0xFF	; 255
    3352:	88 81       	ld	r24, Y
    3354:	90 e0       	ldi	r25, 0x00	; 0
    3356:	0e 94 30 19 	call	0x3260	; 0x3260 <_ZN5servo10servoPulseEii.constprop.110>
    335a:	81 e0       	ldi	r24, 0x01	; 1
    335c:	8a 87       	std	Y+10, r24	; 0x0a
    335e:	88 81       	ld	r24, Y
    3360:	6a e5       	ldi	r22, 0x5A	; 90
    3362:	70 e0       	ldi	r23, 0x00	; 0
    3364:	90 e0       	ldi	r25, 0x00	; 0
    3366:	0e 94 30 19 	call	0x3260	; 0x3260 <_ZN5servo10servoPulseEii.constprop.110>
    336a:	1a 86       	std	Y+10, r1	; 0x0a
    336c:	0e 94 16 0b 	call	0x162c	; 0x162c <millis>
    3370:	69 83       	std	Y+1, r22	; 0x01
    3372:	7a 83       	std	Y+2, r23	; 0x02
    3374:	8b 83       	std	Y+3, r24	; 0x03
    3376:	9c 83       	std	Y+4, r25	; 0x04
    3378:	df 91       	pop	r29
    337a:	cf 91       	pop	r28
    337c:	08 95       	ret

0000337e <_ZN5servo5checkEv.part.13.constprop.108>:
    337e:	cf 92       	push	r12
    3380:	df 92       	push	r13
    3382:	ef 92       	push	r14
    3384:	ff 92       	push	r15
    3386:	cf 93       	push	r28
    3388:	df 93       	push	r29
    338a:	ca e1       	ldi	r28, 0x1A	; 26
    338c:	d5 e0       	ldi	r29, 0x05	; 5
    338e:	88 81       	ld	r24, Y
    3390:	6a e5       	ldi	r22, 0x5A	; 90
    3392:	70 e0       	ldi	r23, 0x00	; 0
    3394:	90 e0       	ldi	r25, 0x00	; 0
    3396:	0e 94 30 19 	call	0x3260	; 0x3260 <_ZN5servo10servoPulseEii.constprop.110>
    339a:	1a 86       	std	Y+10, r1	; 0x0a
    339c:	0e 94 16 0b 	call	0x162c	; 0x162c <millis>
    33a0:	6b 01       	movw	r12, r22
    33a2:	7c 01       	movw	r14, r24
    33a4:	2f 81       	ldd	r18, Y+7	; 0x07
    33a6:	38 85       	ldd	r19, Y+8	; 0x08
    33a8:	a0 e6       	ldi	r26, 0x60	; 96
    33aa:	ba ee       	ldi	r27, 0xEA	; 234
    33ac:	0e 94 c4 3b 	call	0x7788	; 0x7788 <__umulhisi3>
    33b0:	c6 0e       	add	r12, r22
    33b2:	d7 1e       	adc	r13, r23
    33b4:	e8 1e       	adc	r14, r24
    33b6:	f9 1e       	adc	r15, r25
    33b8:	c9 82       	std	Y+1, r12	; 0x01
    33ba:	da 82       	std	Y+2, r13	; 0x02
    33bc:	eb 82       	std	Y+3, r14	; 0x03
    33be:	fc 82       	std	Y+4, r15	; 0x04
    33c0:	df 91       	pop	r29
    33c2:	cf 91       	pop	r28
    33c4:	ff 90       	pop	r15
    33c6:	ef 90       	pop	r14
    33c8:	df 90       	pop	r13
    33ca:	cf 90       	pop	r12
    33cc:	08 95       	ret

000033ce <_ZN5servo5checkEv.constprop.107>:
    33ce:	cf 92       	push	r12
    33d0:	df 92       	push	r13
    33d2:	ef 92       	push	r14
    33d4:	ff 92       	push	r15
    33d6:	80 91 24 05 	lds	r24, 0x0524	; 0x800524 <Servo1+0xa>
    33da:	81 11       	cpse	r24, r1
    33dc:	34 c0       	rjmp	.+104    	; 0x3446 <_ZN5servo5checkEv.constprop.107+0x78>
    33de:	c0 90 1b 05 	lds	r12, 0x051B	; 0x80051b <Servo1+0x1>
    33e2:	d0 90 1c 05 	lds	r13, 0x051C	; 0x80051c <Servo1+0x2>
    33e6:	e0 90 1d 05 	lds	r14, 0x051D	; 0x80051d <Servo1+0x3>
    33ea:	f0 90 1e 05 	lds	r15, 0x051E	; 0x80051e <Servo1+0x4>
    33ee:	0e 94 16 0b 	call	0x162c	; 0x162c <millis>
    33f2:	c6 16       	cp	r12, r22
    33f4:	d7 06       	cpc	r13, r23
    33f6:	e8 06       	cpc	r14, r24
    33f8:	f9 06       	cpc	r15, r25
    33fa:	28 f5       	brcc	.+74     	; 0x3446 <_ZN5servo5checkEv.constprop.107+0x78>
    33fc:	60 91 23 05 	lds	r22, 0x0523	; 0x800523 <Servo1+0x9>
    3400:	70 e0       	ldi	r23, 0x00	; 0
    3402:	66 5a       	subi	r22, 0xA6	; 166
    3404:	7f 4f       	sbci	r23, 0xFF	; 255
    3406:	80 91 1a 05 	lds	r24, 0x051A	; 0x80051a <Servo1>
    340a:	90 e0       	ldi	r25, 0x00	; 0
    340c:	0e 94 30 19 	call	0x3260	; 0x3260 <_ZN5servo10servoPulseEii.constprop.110>
    3410:	81 e0       	ldi	r24, 0x01	; 1
    3412:	80 93 24 05 	sts	0x0524, r24	; 0x800524 <Servo1+0xa>
    3416:	0e 94 16 0b 	call	0x162c	; 0x162c <millis>
    341a:	6b 01       	movw	r12, r22
    341c:	7c 01       	movw	r14, r24
    341e:	20 91 1f 05 	lds	r18, 0x051F	; 0x80051f <Servo1+0x5>
    3422:	30 91 20 05 	lds	r19, 0x0520	; 0x800520 <Servo1+0x6>
    3426:	a0 e6       	ldi	r26, 0x60	; 96
    3428:	ba ee       	ldi	r27, 0xEA	; 234
    342a:	0e 94 c4 3b 	call	0x7788	; 0x7788 <__umulhisi3>
    342e:	c6 0e       	add	r12, r22
    3430:	d7 1e       	adc	r13, r23
    3432:	e8 1e       	adc	r14, r24
    3434:	f9 1e       	adc	r15, r25
    3436:	c0 92 1b 05 	sts	0x051B, r12	; 0x80051b <Servo1+0x1>
    343a:	d0 92 1c 05 	sts	0x051C, r13	; 0x80051c <Servo1+0x2>
    343e:	e0 92 1d 05 	sts	0x051D, r14	; 0x80051d <Servo1+0x3>
    3442:	f0 92 1e 05 	sts	0x051E, r15	; 0x80051e <Servo1+0x4>
    3446:	80 91 24 05 	lds	r24, 0x0524	; 0x800524 <Servo1+0xa>
    344a:	81 30       	cpi	r24, 0x01	; 1
    344c:	a9 f4       	brne	.+42     	; 0x3478 <_ZN5servo5checkEv.constprop.107+0xaa>
    344e:	c0 90 1b 05 	lds	r12, 0x051B	; 0x80051b <Servo1+0x1>
    3452:	d0 90 1c 05 	lds	r13, 0x051C	; 0x80051c <Servo1+0x2>
    3456:	e0 90 1d 05 	lds	r14, 0x051D	; 0x80051d <Servo1+0x3>
    345a:	f0 90 1e 05 	lds	r15, 0x051E	; 0x80051e <Servo1+0x4>
    345e:	0e 94 16 0b 	call	0x162c	; 0x162c <millis>
    3462:	c6 16       	cp	r12, r22
    3464:	d7 06       	cpc	r13, r23
    3466:	e8 06       	cpc	r14, r24
    3468:	f9 06       	cpc	r15, r25
    346a:	30 f4       	brcc	.+12     	; 0x3478 <_ZN5servo5checkEv.constprop.107+0xaa>
    346c:	ff 90       	pop	r15
    346e:	ef 90       	pop	r14
    3470:	df 90       	pop	r13
    3472:	cf 90       	pop	r12
    3474:	0c 94 bf 19 	jmp	0x337e	; 0x337e <_ZN5servo5checkEv.part.13.constprop.108>
    3478:	ff 90       	pop	r15
    347a:	ef 90       	pop	r14
    347c:	df 90       	pop	r13
    347e:	cf 90       	pop	r12
    3480:	08 95       	ret

00003482 <_Z9heaterOFFv>:
    3482:	61 e0       	ldi	r22, 0x01	; 1
    3484:	85 e0       	ldi	r24, 0x05	; 5
    3486:	90 e0       	ldi	r25, 0x00	; 0
    3488:	0e 94 0a 19 	call	0x3214	; 0x3214 <_Z3WDTjh>
    348c:	e8 98       	cbi	0x1d, 0	; 29
    348e:	83 e8       	ldi	r24, 0x83	; 131
    3490:	9e e0       	ldi	r25, 0x0E	; 14
    3492:	90 93 04 01 	sts	0x0104, r25	; 0x800104 <intFunc+0x1>
    3496:	80 93 03 01 	sts	0x0103, r24	; 0x800103 <intFunc>
    349a:	10 92 e9 02 	sts	0x02E9, r1	; 0x8002e9 <dimmer+0x1>
    349e:	10 92 e8 02 	sts	0x02E8, r1	; 0x8002e8 <dimmer>
    34a2:	e1 e8       	ldi	r30, 0x81	; 129
    34a4:	f0 e0       	ldi	r31, 0x00	; 0
    34a6:	80 81       	ld	r24, Z
    34a8:	88 7f       	andi	r24, 0xF8	; 248
    34aa:	80 83       	st	Z, r24
    34ac:	10 92 85 00 	sts	0x0085, r1	; 0x800085 <__TEXT_REGION_LENGTH__+0x7e0085>
    34b0:	10 92 84 00 	sts	0x0084, r1	; 0x800084 <__TEXT_REGION_LENGTH__+0x7e0084>
    34b4:	8c e1       	ldi	r24, 0x1C	; 28
    34b6:	95 e2       	ldi	r25, 0x25	; 37
    34b8:	90 93 e9 02 	sts	0x02E9, r25	; 0x8002e9 <dimmer+0x1>
    34bc:	80 93 e8 02 	sts	0x02E8, r24	; 0x8002e8 <dimmer>
    34c0:	60 e0       	ldi	r22, 0x00	; 0
    34c2:	85 e0       	ldi	r24, 0x05	; 5
    34c4:	0e 94 aa 09 	call	0x1354	; 0x1354 <digitalWrite>
    34c8:	0c 94 fd 18 	jmp	0x31fa	; 0x31fa <_Z11WDT_DISABLEv>

000034cc <_Z4piiij>:
    34cc:	cf 93       	push	r28
    34ce:	df 93       	push	r29
    34d0:	ec 01       	movw	r28, r24
    34d2:	6b e0       	ldi	r22, 0x0B	; 11
    34d4:	89 e0       	ldi	r24, 0x09	; 9
    34d6:	90 e0       	ldi	r25, 0x00	; 0
    34d8:	0e 94 0a 19 	call	0x3214	; 0x3214 <_Z3WDTjh>
    34dc:	61 e0       	ldi	r22, 0x01	; 1
    34de:	83 e0       	ldi	r24, 0x03	; 3
    34e0:	0e 94 aa 09 	call	0x1354	; 0x1354 <digitalWrite>
    34e4:	be 01       	movw	r22, r28
    34e6:	90 e0       	ldi	r25, 0x00	; 0
    34e8:	80 e0       	ldi	r24, 0x00	; 0
    34ea:	0e 94 e3 0a 	call	0x15c6	; 0x15c6 <delay>
    34ee:	60 e0       	ldi	r22, 0x00	; 0
    34f0:	83 e0       	ldi	r24, 0x03	; 3
    34f2:	0e 94 aa 09 	call	0x1354	; 0x1354 <digitalWrite>
    34f6:	df 91       	pop	r29
    34f8:	cf 91       	pop	r28
    34fa:	0c 94 fd 18 	jmp	0x31fa	; 0x31fa <_Z11WDT_DISABLEv>

000034fe <_Z8autoPidMv>:
    34fe:	82 e0       	ldi	r24, 0x02	; 2
    3500:	90 e0       	ldi	r25, 0x00	; 0
    3502:	90 93 02 01 	sts	0x0102, r25	; 0x800102 <state+0x1>
    3506:	80 93 01 01 	sts	0x0101, r24	; 0x800101 <state>
    350a:	08 95       	ret

0000350c <_Z13printMenuItemPKPKc>:
    350c:	fc 01       	movw	r30, r24
    350e:	25 91       	lpm	r18, Z+
    3510:	34 91       	lpm	r19, Z
    3512:	a9 e8       	ldi	r26, 0x89	; 137
    3514:	b2 e0       	ldi	r27, 0x02	; 2
    3516:	29 58       	subi	r18, 0x89	; 137
    3518:	32 40       	sbci	r19, 0x02	; 2
    351a:	f9 01       	movw	r30, r18
    351c:	ea 0f       	add	r30, r26
    351e:	fb 1f       	adc	r31, r27
    3520:	e4 91       	lpm	r30, Z
    3522:	ed 93       	st	X+, r30
    3524:	f2 e0       	ldi	r31, 0x02	; 2
    3526:	a0 3a       	cpi	r26, 0xA0	; 160
    3528:	bf 07       	cpc	r27, r31
    352a:	b9 f7       	brne	.-18     	; 0x351a <_Z13printMenuItemPKPKc+0xe>
    352c:	89 e8       	ldi	r24, 0x89	; 137
    352e:	92 e0       	ldi	r25, 0x02	; 2
    3530:	08 95       	ret

00003532 <_Z3isrv>:
    3532:	80 91 01 01 	lds	r24, 0x0101	; 0x800101 <state>
    3536:	90 91 02 01 	lds	r25, 0x0102	; 0x800102 <state+0x1>
    353a:	03 97       	sbiw	r24, 0x03	; 3
    353c:	03 97       	sbiw	r24, 0x03	; 3
    353e:	40 f5       	brcc	.+80     	; 0x3590 <_Z3isrv+0x5e>
    3540:	60 91 e8 02 	lds	r22, 0x02E8	; 0x8002e8 <dimmer>
    3544:	70 91 e9 02 	lds	r23, 0x02E9	; 0x8002e9 <dimmer+0x1>
    3548:	80 91 86 02 	lds	r24, 0x0286	; 0x800286 <lastDim>
    354c:	90 91 87 02 	lds	r25, 0x0287	; 0x800287 <lastDim+0x1>
    3550:	86 17       	cp	r24, r22
    3552:	97 07       	cpc	r25, r23
    3554:	81 f0       	breq	.+32     	; 0x3576 <_Z3isrv+0x44>
    3556:	70 93 87 02 	sts	0x0287, r23	; 0x800287 <lastDim+0x1>
    355a:	60 93 86 02 	sts	0x0286, r22	; 0x800286 <lastDim>
    355e:	90 e0       	ldi	r25, 0x00	; 0
    3560:	80 e0       	ldi	r24, 0x00	; 0
    3562:	0e 94 b3 05 	call	0xb66	; 0xb66 <_ZN7Timer_19setPeriodEm.constprop.155>
    3566:	60 91 e8 02 	lds	r22, 0x02E8	; 0x8002e8 <dimmer>
    356a:	70 91 e9 02 	lds	r23, 0x02E9	; 0x8002e9 <dimmer+0x1>
    356e:	90 e0       	ldi	r25, 0x00	; 0
    3570:	80 e0       	ldi	r24, 0x00	; 0
    3572:	0c 94 b3 05 	jmp	0xb66	; 0xb66 <_ZN7Timer_19setPeriodEm.constprop.155>
    3576:	80 91 81 00 	lds	r24, 0x0081	; 0x800081 <__TEXT_REGION_LENGTH__+0x7e0081>
    357a:	88 7f       	andi	r24, 0xF8	; 248
    357c:	90 91 f0 03 	lds	r25, 0x03F0	; 0x8003f0 <Timer1>
    3580:	89 2b       	or	r24, r25
    3582:	80 93 81 00 	sts	0x0081, r24	; 0x800081 <__TEXT_REGION_LENGTH__+0x7e0081>
    3586:	10 92 85 00 	sts	0x0085, r1	; 0x800085 <__TEXT_REGION_LENGTH__+0x7e0085>
    358a:	10 92 84 00 	sts	0x0084, r1	; 0x800084 <__TEXT_REGION_LENGTH__+0x7e0084>
    358e:	eb cf       	rjmp	.-42     	; 0x3566 <_Z3isrv+0x34>
    3590:	08 95       	ret

00003592 <_ZN4U8G25writeEPKhj>:
    3592:	cf 92       	push	r12
    3594:	df 92       	push	r13
    3596:	ef 92       	push	r14
    3598:	ff 92       	push	r15
    359a:	0f 93       	push	r16
    359c:	1f 93       	push	r17
    359e:	cf 93       	push	r28
    35a0:	df 93       	push	r29
    35a2:	6c 01       	movw	r12, r24
    35a4:	eb 01       	movw	r28, r22
    35a6:	7b 01       	movw	r14, r22
    35a8:	e4 0e       	add	r14, r20
    35aa:	f5 1e       	adc	r15, r21
    35ac:	10 e0       	ldi	r17, 0x00	; 0
    35ae:	00 e0       	ldi	r16, 0x00	; 0
    35b0:	ce 15       	cp	r28, r14
    35b2:	df 05       	cpc	r29, r15
    35b4:	61 f0       	breq	.+24     	; 0x35ce <_ZN4U8G25writeEPKhj+0x3c>
    35b6:	69 91       	ld	r22, Y+
    35b8:	d6 01       	movw	r26, r12
    35ba:	ed 91       	ld	r30, X+
    35bc:	fc 91       	ld	r31, X
    35be:	01 90       	ld	r0, Z+
    35c0:	f0 81       	ld	r31, Z
    35c2:	e0 2d       	mov	r30, r0
    35c4:	c6 01       	movw	r24, r12
    35c6:	09 95       	icall
    35c8:	08 0f       	add	r16, r24
    35ca:	19 1f       	adc	r17, r25
    35cc:	f1 cf       	rjmp	.-30     	; 0x35b0 <_ZN4U8G25writeEPKhj+0x1e>
    35ce:	c8 01       	movw	r24, r16
    35d0:	df 91       	pop	r29
    35d2:	cf 91       	pop	r28
    35d4:	1f 91       	pop	r17
    35d6:	0f 91       	pop	r16
    35d8:	ff 90       	pop	r15
    35da:	ef 90       	pop	r14
    35dc:	df 90       	pop	r13
    35de:	cf 90       	pop	r12
    35e0:	08 95       	ret

000035e2 <_ZN4U8G25writeEh>:
    35e2:	cf 92       	push	r12
    35e4:	df 92       	push	r13
    35e6:	ef 92       	push	r14
    35e8:	ff 92       	push	r15
    35ea:	0f 93       	push	r16
    35ec:	1f 93       	push	r17
    35ee:	cf 93       	push	r28
    35f0:	df 93       	push	r29
    35f2:	ec 01       	movw	r28, r24
    35f4:	6c 01       	movw	r12, r24
    35f6:	24 e0       	ldi	r18, 0x04	; 4
    35f8:	c2 0e       	add	r12, r18
    35fa:	d1 1c       	adc	r13, r1
    35fc:	fc 01       	movw	r30, r24
    35fe:	e0 57       	subi	r30, 0x70	; 112
    3600:	ff 4f       	sbci	r31, 0xFF	; 255
    3602:	01 90       	ld	r0, Z+
    3604:	f0 81       	ld	r31, Z
    3606:	e0 2d       	mov	r30, r0
    3608:	c6 01       	movw	r24, r12
    360a:	09 95       	icall
    360c:	8e 3f       	cpi	r24, 0xFE	; 254
    360e:	ef ef       	ldi	r30, 0xFF	; 255
    3610:	9e 07       	cpc	r25, r30
    3612:	d8 f4       	brcc	.+54     	; 0x364a <_ZN4U8G25writeEh+0x68>
    3614:	8e 01       	movw	r16, r28
    3616:	0c 56       	subi	r16, 0x6C	; 108
    3618:	1f 4f       	sbci	r17, 0xFF	; 255
    361a:	f8 01       	movw	r30, r16
    361c:	40 81       	ld	r20, Z
    361e:	51 81       	ldd	r21, Z+1	; 0x01
    3620:	7e 01       	movw	r14, r28
    3622:	f2 e9       	ldi	r31, 0x92	; 146
    3624:	ef 0e       	add	r14, r31
    3626:	f1 1c       	adc	r15, r1
    3628:	f7 01       	movw	r30, r14
    362a:	60 81       	ld	r22, Z
    362c:	71 81       	ldd	r23, Z+1	; 0x01
    362e:	9c 01       	movw	r18, r24
    3630:	c6 01       	movw	r24, r12
    3632:	0e 94 8c 15 	call	0x2b18	; 0x2b18 <u8g2_DrawGlyph>
    3636:	c0 59       	subi	r28, 0x90	; 144
    3638:	df 4f       	sbci	r29, 0xFF	; 255
    363a:	28 81       	ld	r18, Y
    363c:	21 30       	cpi	r18, 0x01	; 1
    363e:	c1 f0       	breq	.+48     	; 0x3670 <_ZN4U8G25writeEh+0x8e>
    3640:	78 f0       	brcs	.+30     	; 0x3660 <_ZN4U8G25writeEh+0x7e>
    3642:	22 30       	cpi	r18, 0x02	; 2
    3644:	b9 f0       	breq	.+46     	; 0x3674 <_ZN4U8G25writeEh+0x92>
    3646:	23 30       	cpi	r18, 0x03	; 3
    3648:	e9 f0       	breq	.+58     	; 0x3684 <_ZN4U8G25writeEh+0xa2>
    364a:	81 e0       	ldi	r24, 0x01	; 1
    364c:	90 e0       	ldi	r25, 0x00	; 0
    364e:	df 91       	pop	r29
    3650:	cf 91       	pop	r28
    3652:	1f 91       	pop	r17
    3654:	0f 91       	pop	r16
    3656:	ff 90       	pop	r15
    3658:	ef 90       	pop	r14
    365a:	df 90       	pop	r13
    365c:	cf 90       	pop	r12
    365e:	08 95       	ret
    3660:	f7 01       	movw	r30, r14
    3662:	20 81       	ld	r18, Z
    3664:	31 81       	ldd	r19, Z+1	; 0x01
    3666:	82 0f       	add	r24, r18
    3668:	93 1f       	adc	r25, r19
    366a:	91 83       	std	Z+1, r25	; 0x01
    366c:	80 83       	st	Z, r24
    366e:	ed cf       	rjmp	.-38     	; 0x364a <_ZN4U8G25writeEh+0x68>
    3670:	f8 01       	movw	r30, r16
    3672:	f7 cf       	rjmp	.-18     	; 0x3662 <_ZN4U8G25writeEh+0x80>
    3674:	f7 01       	movw	r30, r14
    3676:	20 81       	ld	r18, Z
    3678:	31 81       	ldd	r19, Z+1	; 0x01
    367a:	28 1b       	sub	r18, r24
    367c:	39 0b       	sbc	r19, r25
    367e:	31 83       	std	Z+1, r19	; 0x01
    3680:	20 83       	st	Z, r18
    3682:	e3 cf       	rjmp	.-58     	; 0x364a <_ZN4U8G25writeEh+0x68>
    3684:	f8 01       	movw	r30, r16
    3686:	f7 cf       	rjmp	.-18     	; 0x3676 <_ZN4U8G25writeEh+0x94>

00003688 <_ZN5Print5flushEv>:
    3688:	08 95       	ret

0000368a <_ZN5Print17availableForWriteEv>:
    368a:	90 e0       	ldi	r25, 0x00	; 0
    368c:	80 e0       	ldi	r24, 0x00	; 0
    368e:	08 95       	ret

00003690 <_Z15updateIDyerDatav>:
    3690:	4f 92       	push	r4
    3692:	5f 92       	push	r5
    3694:	6f 92       	push	r6
    3696:	7f 92       	push	r7
    3698:	8f 92       	push	r8
    369a:	9f 92       	push	r9
    369c:	af 92       	push	r10
    369e:	bf 92       	push	r11
    36a0:	cf 92       	push	r12
    36a2:	df 92       	push	r13
    36a4:	ef 92       	push	r14
    36a6:	ff 92       	push	r15
    36a8:	0f 93       	push	r16
    36aa:	1f 93       	push	r17
    36ac:	cf 93       	push	r28
    36ae:	df 93       	push	r29
    36b0:	64 e0       	ldi	r22, 0x04	; 4
    36b2:	84 e0       	ldi	r24, 0x04	; 4
    36b4:	90 e0       	ldi	r25, 0x00	; 0
    36b6:	0e 94 0a 19 	call	0x3214	; 0x3214 <_Z3WDTjh>
    36ba:	8a e9       	ldi	r24, 0x9A	; 154
    36bc:	91 e0       	ldi	r25, 0x01	; 1
    36be:	0e 94 18 3b 	call	0x7630	; 0x7630 <eeprom_read_word>
    36c2:	ca e9       	ldi	r28, 0x9A	; 154
    36c4:	d3 e0       	ldi	r29, 0x03	; 3
    36c6:	8b 8f       	std	Y+27, r24	; 0x1b
    36c8:	8c e8       	ldi	r24, 0x8C	; 140
    36ca:	91 e0       	ldi	r25, 0x01	; 1
    36cc:	0e 94 18 3b 	call	0x7630	; 0x7630 <eeprom_read_word>
    36d0:	bc 01       	movw	r22, r24
    36d2:	90 e0       	ldi	r25, 0x00	; 0
    36d4:	80 e0       	ldi	r24, 0x00	; 0
    36d6:	0e 94 16 3d 	call	0x7a2c	; 0x7a2c <__floatunsisf>
    36da:	20 e0       	ldi	r18, 0x00	; 0
    36dc:	30 e0       	ldi	r19, 0x00	; 0
    36de:	48 ec       	ldi	r20, 0xC8	; 200
    36e0:	52 e4       	ldi	r21, 0x42	; 66
    36e2:	0e 94 6e 3c 	call	0x78dc	; 0x78dc <__divsf3>
    36e6:	4b 01       	movw	r8, r22
    36e8:	5c 01       	movw	r10, r24
    36ea:	8c 8e       	std	Y+28, r8	; 0x1c
    36ec:	9d 8e       	std	Y+29, r9	; 0x1d
    36ee:	ae 8e       	std	Y+30, r10	; 0x1e
    36f0:	bf 8e       	std	Y+31, r11	; 0x1f
    36f2:	8e e8       	ldi	r24, 0x8E	; 142
    36f4:	91 e0       	ldi	r25, 0x01	; 1
    36f6:	0e 94 18 3b 	call	0x7630	; 0x7630 <eeprom_read_word>
    36fa:	bc 01       	movw	r22, r24
    36fc:	90 e0       	ldi	r25, 0x00	; 0
    36fe:	80 e0       	ldi	r24, 0x00	; 0
    3700:	0e 94 16 3d 	call	0x7a2c	; 0x7a2c <__floatunsisf>
    3704:	20 e0       	ldi	r18, 0x00	; 0
    3706:	30 e0       	ldi	r19, 0x00	; 0
    3708:	48 ec       	ldi	r20, 0xC8	; 200
    370a:	52 e4       	ldi	r21, 0x42	; 66
    370c:	0e 94 6e 3c 	call	0x78dc	; 0x78dc <__divsf3>
    3710:	2b 01       	movw	r4, r22
    3712:	3c 01       	movw	r6, r24
    3714:	48 a2       	std	Y+32, r4	; 0x20
    3716:	59 a2       	std	Y+33, r5	; 0x21
    3718:	6a a2       	std	Y+34, r6	; 0x22
    371a:	7b a2       	std	Y+35, r7	; 0x23
    371c:	80 e9       	ldi	r24, 0x90	; 144
    371e:	91 e0       	ldi	r25, 0x01	; 1
    3720:	0e 94 18 3b 	call	0x7630	; 0x7630 <eeprom_read_word>
    3724:	bc 01       	movw	r22, r24
    3726:	90 e0       	ldi	r25, 0x00	; 0
    3728:	80 e0       	ldi	r24, 0x00	; 0
    372a:	0e 94 16 3d 	call	0x7a2c	; 0x7a2c <__floatunsisf>
    372e:	20 e0       	ldi	r18, 0x00	; 0
    3730:	30 e0       	ldi	r19, 0x00	; 0
    3732:	48 ec       	ldi	r20, 0xC8	; 200
    3734:	52 e4       	ldi	r21, 0x42	; 66
    3736:	0e 94 6e 3c 	call	0x78dc	; 0x78dc <__divsf3>
    373a:	6b 01       	movw	r12, r22
    373c:	7c 01       	movw	r14, r24
    373e:	cc a2       	std	Y+36, r12	; 0x24
    3740:	dd a2       	std	Y+37, r13	; 0x25
    3742:	ee a2       	std	Y+38, r14	; 0x26
    3744:	ff a2       	std	Y+39, r15	; 0x27
    3746:	84 e9       	ldi	r24, 0x94	; 148
    3748:	91 e0       	ldi	r25, 0x01	; 1
    374a:	0e 94 18 3b 	call	0x7630	; 0x7630 <eeprom_read_word>
    374e:	99 a7       	std	Y+41, r25	; 0x29
    3750:	88 a7       	std	Y+40, r24	; 0x28
    3752:	8c e9       	ldi	r24, 0x9C	; 156
    3754:	91 e0       	ldi	r25, 0x01	; 1
    3756:	0e 94 18 3b 	call	0x7630	; 0x7630 <eeprom_read_word>
    375a:	8a a7       	std	Y+42, r24	; 0x2a
    375c:	8a e6       	ldi	r24, 0x6A	; 106
    375e:	91 e0       	ldi	r25, 0x01	; 1
    3760:	0e 94 18 3b 	call	0x7630	; 0x7630 <eeprom_read_word>
    3764:	8d 8b       	std	Y+21, r24	; 0x15
    3766:	8a e9       	ldi	r24, 0x9A	; 154
    3768:	91 e0       	ldi	r25, 0x01	; 1
    376a:	0e 94 18 3b 	call	0x7630	; 0x7630 <eeprom_read_word>
    376e:	8b 8f       	std	Y+27, r24	; 0x1b
    3770:	87 01       	movw	r16, r14
    3772:	76 01       	movw	r14, r12
    3774:	a3 01       	movw	r20, r6
    3776:	92 01       	movw	r18, r4
    3778:	c5 01       	movw	r24, r10
    377a:	b4 01       	movw	r22, r8
    377c:	0e 94 da 04 	call	0x9b4	; 0x9b4 <_ZN3PID10SetTuningsEdddi.constprop.72>
    3780:	88 a5       	ldd	r24, Y+40	; 0x28
    3782:	99 a5       	ldd	r25, Y+41	; 0x29
    3784:	0e 94 cc 06 	call	0xd98	; 0xd98 <_ZN3PID13SetSampleTimeEi.constprop.74>
    3788:	84 ea       	ldi	r24, 0xA4	; 164
    378a:	91 e0       	ldi	r25, 0x01	; 1
    378c:	0e 94 18 3b 	call	0x7630	; 0x7630 <eeprom_read_word>
    3790:	c8 2f       	mov	r28, r24
    3792:	82 ea       	ldi	r24, 0xA2	; 162
    3794:	91 e0       	ldi	r25, 0x01	; 1
    3796:	0e 94 18 3b 	call	0x7630	; 0x7630 <eeprom_read_word>
    379a:	7c 01       	movw	r14, r24
    379c:	80 ea       	ldi	r24, 0xA0	; 160
    379e:	91 e0       	ldi	r25, 0x01	; 1
    37a0:	0e 94 18 3b 	call	0x7630	; 0x7630 <eeprom_read_word>
    37a4:	ea e1       	ldi	r30, 0x1A	; 26
    37a6:	f5 e0       	ldi	r31, 0x05	; 5
    37a8:	90 87       	std	Z+8, r25	; 0x08
    37aa:	87 83       	std	Z+7, r24	; 0x07
    37ac:	f6 82       	std	Z+6, r15	; 0x06
    37ae:	e5 82       	std	Z+5, r14	; 0x05
    37b0:	c1 87       	std	Z+9, r28	; 0x09
    37b2:	df 91       	pop	r29
    37b4:	cf 91       	pop	r28
    37b6:	1f 91       	pop	r17
    37b8:	0f 91       	pop	r16
    37ba:	ff 90       	pop	r15
    37bc:	ef 90       	pop	r14
    37be:	df 90       	pop	r13
    37c0:	cf 90       	pop	r12
    37c2:	bf 90       	pop	r11
    37c4:	af 90       	pop	r10
    37c6:	9f 90       	pop	r9
    37c8:	8f 90       	pop	r8
    37ca:	7f 90       	pop	r7
    37cc:	6f 90       	pop	r6
    37ce:	5f 90       	pop	r5
    37d0:	4f 90       	pop	r4
    37d2:	0c 94 fd 18 	jmp	0x31fa	; 0x31fa <_Z11WDT_DISABLEv>

000037d6 <_Z9servoTestv>:
    37d6:	0e 94 48 1b 	call	0x3690	; 0x3690 <_Z15updateIDyerDatav>
    37da:	0c 94 9a 19 	jmp	0x3334	; 0x3334 <_ZN5servo4testEv.constprop.109>

000037de <_ZN7TwoWire11requestFromEii.constprop.63>:
    37de:	98 2f       	mov	r25, r24
    37e0:	80 91 71 03 	lds	r24, 0x0371	; 0x800371 <twi_state>
    37e4:	81 11       	cpse	r24, r1
    37e6:	fc cf       	rjmp	.-8      	; 0x37e0 <_ZN7TwoWire11requestFromEii.constprop.63+0x2>
    37e8:	86 2f       	mov	r24, r22
    37ea:	21 e0       	ldi	r18, 0x01	; 1
    37ec:	20 93 71 03 	sts	0x0371, r18	; 0x800371 <twi_state>
    37f0:	20 93 70 03 	sts	0x0370, r18	; 0x800370 <twi_sendStop>
    37f4:	3f ef       	ldi	r19, 0xFF	; 255
    37f6:	30 93 6f 03 	sts	0x036F, r19	; 0x80036f <twi_error>
    37fa:	44 e7       	ldi	r20, 0x74	; 116
    37fc:	53 e0       	ldi	r21, 0x03	; 3
    37fe:	50 93 6e 03 	sts	0x036E, r21	; 0x80036e <twi_masterBuffer+0x1>
    3802:	40 93 6d 03 	sts	0x036D, r20	; 0x80036d <twi_masterBuffer>
    3806:	10 92 6c 03 	sts	0x036C, r1	; 0x80036c <twi_masterBufferIndex>
    380a:	36 0f       	add	r19, r22
    380c:	30 93 6b 03 	sts	0x036B, r19	; 0x80036b <twi_masterBufferLength>
    3810:	20 93 6a 03 	sts	0x036A, r18	; 0x80036a <twi_slarw>
    3814:	20 91 6a 03 	lds	r18, 0x036A	; 0x80036a <twi_slarw>
    3818:	99 0f       	add	r25, r25
    381a:	92 2b       	or	r25, r18
    381c:	90 93 6a 03 	sts	0x036A, r25	; 0x80036a <twi_slarw>
    3820:	90 91 69 03 	lds	r25, 0x0369	; 0x800369 <twi_inRepStart>
    3824:	91 30       	cpi	r25, 0x01	; 1
    3826:	e1 f4       	brne	.+56     	; 0x3860 <_ZN7TwoWire11requestFromEii.constprop.63+0x82>
    3828:	10 92 69 03 	sts	0x0369, r1	; 0x800369 <twi_inRepStart>
    382c:	90 91 6a 03 	lds	r25, 0x036A	; 0x80036a <twi_slarw>
    3830:	90 93 bb 00 	sts	0x00BB, r25	; 0x8000bb <__TEXT_REGION_LENGTH__+0x7e00bb>
    3834:	90 91 bc 00 	lds	r25, 0x00BC	; 0x8000bc <__TEXT_REGION_LENGTH__+0x7e00bc>
    3838:	93 fd       	sbrc	r25, 3
    383a:	f8 cf       	rjmp	.-16     	; 0x382c <_ZN7TwoWire11requestFromEii.constprop.63+0x4e>
    383c:	95 ec       	ldi	r25, 0xC5	; 197
    383e:	90 93 bc 00 	sts	0x00BC, r25	; 0x8000bc <__TEXT_REGION_LENGTH__+0x7e00bc>
    3842:	90 91 71 03 	lds	r25, 0x0371	; 0x800371 <twi_state>
    3846:	91 30       	cpi	r25, 0x01	; 1
    3848:	e1 f3       	breq	.-8      	; 0x3842 <_ZN7TwoWire11requestFromEii.constprop.63+0x64>
    384a:	90 91 6c 03 	lds	r25, 0x036C	; 0x80036c <twi_masterBufferIndex>
    384e:	96 17       	cp	r25, r22
    3850:	10 f4       	brcc	.+4      	; 0x3856 <_ZN7TwoWire11requestFromEii.constprop.63+0x78>
    3852:	80 91 6c 03 	lds	r24, 0x036C	; 0x80036c <twi_masterBufferIndex>
    3856:	10 92 73 03 	sts	0x0373, r1	; 0x800373 <_ZN7TwoWire13rxBufferIndexE>
    385a:	80 93 72 03 	sts	0x0372, r24	; 0x800372 <_ZN7TwoWire14rxBufferLengthE>
    385e:	08 95       	ret
    3860:	95 ee       	ldi	r25, 0xE5	; 229
    3862:	ed cf       	rjmp	.-38     	; 0x383e <_ZN7TwoWire11requestFromEii.constprop.63+0x60>

00003864 <_ZN11GyverBME28011readTempIntEv.constprop.57>:
    3864:	8f 92       	push	r8
    3866:	9f 92       	push	r9
    3868:	af 92       	push	r10
    386a:	bf 92       	push	r11
    386c:	cf 92       	push	r12
    386e:	df 92       	push	r13
    3870:	ef 92       	push	r14
    3872:	ff 92       	push	r15
    3874:	80 91 70 06 	lds	r24, 0x0670	; 0x800670 <bme>
    3878:	91 e0       	ldi	r25, 0x01	; 1
    387a:	90 93 45 03 	sts	0x0345, r25	; 0x800345 <_ZN7TwoWire12transmittingE>
    387e:	80 93 67 03 	sts	0x0367, r24	; 0x800367 <_ZN7TwoWire9txAddressE>
    3882:	10 92 46 03 	sts	0x0346, r1	; 0x800346 <_ZN7TwoWire13txBufferIndexE>
    3886:	10 92 68 03 	sts	0x0368, r1	; 0x800368 <_ZN7TwoWire14txBufferLengthE>
    388a:	6a ef       	ldi	r22, 0xFA	; 250
    388c:	81 ef       	ldi	r24, 0xF1	; 241
    388e:	93 e0       	ldi	r25, 0x03	; 3
    3890:	0e 94 2a 08 	call	0x1054	; 0x1054 <_ZN7TwoWire5writeEh>
    3894:	0e 94 53 07 	call	0xea6	; 0xea6 <_ZN7TwoWire15endTransmissionEv.constprop.60>
    3898:	81 11       	cpse	r24, r1
    389a:	8b c0       	rjmp	.+278    	; 0x39b2 <_ZN11GyverBME28011readTempIntEv.constprop.57+0x14e>
    389c:	63 e0       	ldi	r22, 0x03	; 3
    389e:	70 e0       	ldi	r23, 0x00	; 0
    38a0:	80 91 70 06 	lds	r24, 0x0670	; 0x800670 <bme>
    38a4:	90 91 71 06 	lds	r25, 0x0671	; 0x800671 <bme+0x1>
    38a8:	0e 94 ef 1b 	call	0x37de	; 0x37de <_ZN7TwoWire11requestFromEii.constprop.63>
    38ac:	0e 94 40 07 	call	0xe80	; 0xe80 <_ZN7TwoWire4readEv.constprop.62>
    38b0:	6c 01       	movw	r12, r24
    38b2:	0e 94 40 07 	call	0xe80	; 0xe80 <_ZN7TwoWire4readEv.constprop.62>
    38b6:	0d 2c       	mov	r0, r13
    38b8:	00 0c       	add	r0, r0
    38ba:	ee 08       	sbc	r14, r14
    38bc:	ff 08       	sbc	r15, r15
    38be:	76 01       	movw	r14, r12
    38c0:	dd 24       	eor	r13, r13
    38c2:	cc 24       	eor	r12, r12
    38c4:	09 2e       	mov	r0, r25
    38c6:	00 0c       	add	r0, r0
    38c8:	aa 0b       	sbc	r26, r26
    38ca:	bb 0b       	sbc	r27, r27
    38cc:	ba 2f       	mov	r27, r26
    38ce:	a9 2f       	mov	r26, r25
    38d0:	98 2f       	mov	r25, r24
    38d2:	88 27       	eor	r24, r24
    38d4:	c8 2a       	or	r12, r24
    38d6:	d9 2a       	or	r13, r25
    38d8:	ea 2a       	or	r14, r26
    38da:	fb 2a       	or	r15, r27
    38dc:	0e 94 40 07 	call	0xe80	; 0xe80 <_ZN7TwoWire4readEv.constprop.62>
    38e0:	09 2e       	mov	r0, r25
    38e2:	00 0c       	add	r0, r0
    38e4:	aa 0b       	sbc	r26, r26
    38e6:	bb 0b       	sbc	r27, r27
    38e8:	8c 29       	or	r24, r12
    38ea:	9d 29       	or	r25, r13
    38ec:	ae 29       	or	r26, r14
    38ee:	bf 29       	or	r27, r15
    38f0:	00 97       	sbiw	r24, 0x00	; 0
    38f2:	20 e8       	ldi	r18, 0x80	; 128
    38f4:	a2 07       	cpc	r26, r18
    38f6:	b1 05       	cpc	r27, r1
    38f8:	09 f4       	brne	.+2      	; 0x38fc <_ZN11GyverBME28011readTempIntEv.constprop.57+0x98>
    38fa:	60 c0       	rjmp	.+192    	; 0x39bc <_ZN11GyverBME28011readTempIntEv.constprop.57+0x158>
    38fc:	40 91 78 06 	lds	r20, 0x0678	; 0x800678 <bme+0x8>
    3900:	50 91 79 06 	lds	r21, 0x0679	; 0x800679 <bme+0x9>
    3904:	70 e0       	ldi	r23, 0x00	; 0
    3906:	60 e0       	ldi	r22, 0x00	; 0
    3908:	c9 2e       	mov	r12, r25
    390a:	da 2e       	mov	r13, r26
    390c:	eb 2e       	mov	r14, r27
    390e:	ff 24       	eor	r15, r15
    3910:	e7 fc       	sbrc	r14, 7
    3912:	fa 94       	dec	r15
    3914:	c4 1a       	sub	r12, r20
    3916:	d5 0a       	sbc	r13, r21
    3918:	e6 0a       	sbc	r14, r22
    391a:	f7 0a       	sbc	r15, r23
    391c:	37 e0       	ldi	r19, 0x07	; 7
    391e:	b5 95       	asr	r27
    3920:	a7 95       	ror	r26
    3922:	97 95       	ror	r25
    3924:	87 95       	ror	r24
    3926:	3a 95       	dec	r19
    3928:	d1 f7       	brne	.-12     	; 0x391e <_ZN11GyverBME28011readTempIntEv.constprop.57+0xba>
    392a:	44 0f       	add	r20, r20
    392c:	55 1f       	adc	r21, r21
    392e:	66 1f       	adc	r22, r22
    3930:	77 1f       	adc	r23, r23
    3932:	4c 01       	movw	r8, r24
    3934:	5d 01       	movw	r10, r26
    3936:	84 1a       	sub	r8, r20
    3938:	95 0a       	sbc	r9, r21
    393a:	a6 0a       	sbc	r10, r22
    393c:	b7 0a       	sbc	r11, r23
    393e:	a5 01       	movw	r20, r10
    3940:	94 01       	movw	r18, r8
    3942:	a0 91 7a 06 	lds	r26, 0x067A	; 0x80067a <bme+0xa>
    3946:	b0 91 7b 06 	lds	r27, 0x067B	; 0x80067b <bme+0xb>
    394a:	0e 94 63 3b 	call	0x76c6	; 0x76c6 <__mulshisi3>
    394e:	4b 01       	movw	r8, r22
    3950:	5c 01       	movw	r10, r24
    3952:	fb e0       	ldi	r31, 0x0B	; 11
    3954:	b5 94       	asr	r11
    3956:	a7 94       	ror	r10
    3958:	97 94       	ror	r9
    395a:	87 94       	ror	r8
    395c:	fa 95       	dec	r31
    395e:	d1 f7       	brne	.-12     	; 0x3954 <_ZN11GyverBME28011readTempIntEv.constprop.57+0xf0>
    3960:	a7 01       	movw	r20, r14
    3962:	96 01       	movw	r18, r12
    3964:	c7 01       	movw	r24, r14
    3966:	b6 01       	movw	r22, r12
    3968:	0e 94 d3 3b 	call	0x77a6	; 0x77a6 <__mulsi3>
    396c:	9b 01       	movw	r18, r22
    396e:	ac 01       	movw	r20, r24
    3970:	ac e0       	ldi	r26, 0x0C	; 12
    3972:	55 95       	asr	r21
    3974:	47 95       	ror	r20
    3976:	37 95       	ror	r19
    3978:	27 95       	ror	r18
    397a:	aa 95       	dec	r26
    397c:	d1 f7       	brne	.-12     	; 0x3972 <_ZN11GyverBME28011readTempIntEv.constprop.57+0x10e>
    397e:	a0 91 7c 06 	lds	r26, 0x067C	; 0x80067c <bme+0xc>
    3982:	b0 91 7d 06 	lds	r27, 0x067D	; 0x80067d <bme+0xd>
    3986:	0e 94 63 3b 	call	0x76c6	; 0x76c6 <__mulshisi3>
    398a:	be e0       	ldi	r27, 0x0E	; 14
    398c:	95 95       	asr	r25
    398e:	87 95       	ror	r24
    3990:	77 95       	ror	r23
    3992:	67 95       	ror	r22
    3994:	ba 95       	dec	r27
    3996:	d1 f7       	brne	.-12     	; 0x398c <_ZN11GyverBME28011readTempIntEv.constprop.57+0x128>
    3998:	68 0d       	add	r22, r8
    399a:	79 1d       	adc	r23, r9
    399c:	8a 1d       	adc	r24, r10
    399e:	9b 1d       	adc	r25, r11
    39a0:	ff 90       	pop	r15
    39a2:	ef 90       	pop	r14
    39a4:	df 90       	pop	r13
    39a6:	cf 90       	pop	r12
    39a8:	bf 90       	pop	r11
    39aa:	af 90       	pop	r10
    39ac:	9f 90       	pop	r9
    39ae:	8f 90       	pop	r8
    39b0:	08 95       	ret
    39b2:	80 e0       	ldi	r24, 0x00	; 0
    39b4:	90 e0       	ldi	r25, 0x00	; 0
    39b6:	a0 e8       	ldi	r26, 0x80	; 128
    39b8:	b0 e0       	ldi	r27, 0x00	; 0
    39ba:	9a cf       	rjmp	.-204    	; 0x38f0 <_ZN11GyverBME28011readTempIntEv.constprop.57+0x8c>
    39bc:	60 e0       	ldi	r22, 0x00	; 0
    39be:	70 e0       	ldi	r23, 0x00	; 0
    39c0:	cb 01       	movw	r24, r22
    39c2:	ee cf       	rjmp	.-36     	; 0x39a0 <_ZN11GyverBME28011readTempIntEv.constprop.57+0x13c>

000039c4 <_ZN11GyverBME28012readRegisterEh.constprop.46>:
    39c4:	90 91 70 06 	lds	r25, 0x0670	; 0x800670 <bme>
    39c8:	21 e0       	ldi	r18, 0x01	; 1
    39ca:	20 93 45 03 	sts	0x0345, r18	; 0x800345 <_ZN7TwoWire12transmittingE>
    39ce:	90 93 67 03 	sts	0x0367, r25	; 0x800367 <_ZN7TwoWire9txAddressE>
    39d2:	10 92 46 03 	sts	0x0346, r1	; 0x800346 <_ZN7TwoWire13txBufferIndexE>
    39d6:	10 92 68 03 	sts	0x0368, r1	; 0x800368 <_ZN7TwoWire14txBufferLengthE>
    39da:	68 2f       	mov	r22, r24
    39dc:	81 ef       	ldi	r24, 0xF1	; 241
    39de:	93 e0       	ldi	r25, 0x03	; 3
    39e0:	0e 94 2a 08 	call	0x1054	; 0x1054 <_ZN7TwoWire5writeEh>
    39e4:	0e 94 53 07 	call	0xea6	; 0xea6 <_ZN7TwoWire15endTransmissionEv.constprop.60>
    39e8:	81 11       	cpse	r24, r1
    39ea:	0b c0       	rjmp	.+22     	; 0x3a02 <_ZN11GyverBME28012readRegisterEh.constprop.46+0x3e>
    39ec:	61 e0       	ldi	r22, 0x01	; 1
    39ee:	70 e0       	ldi	r23, 0x00	; 0
    39f0:	80 91 70 06 	lds	r24, 0x0670	; 0x800670 <bme>
    39f4:	90 91 71 06 	lds	r25, 0x0671	; 0x800671 <bme+0x1>
    39f8:	0e 94 ef 1b 	call	0x37de	; 0x37de <_ZN7TwoWire11requestFromEii.constprop.63>
    39fc:	0e 94 40 07 	call	0xe80	; 0xe80 <_ZN7TwoWire4readEv.constprop.62>
    3a00:	08 95       	ret
    3a02:	80 e0       	ldi	r24, 0x00	; 0
    3a04:	08 95       	ret

00003a06 <attachInterrupt.constprop.29>:
    3a06:	89 e9       	ldi	r24, 0x99	; 153
    3a08:	9a e1       	ldi	r25, 0x1A	; 26
    3a0a:	90 93 04 01 	sts	0x0104, r25	; 0x800104 <intFunc+0x1>
    3a0e:	80 93 03 01 	sts	0x0103, r24	; 0x800103 <intFunc>
    3a12:	e9 e6       	ldi	r30, 0x69	; 105
    3a14:	f0 e0       	ldi	r31, 0x00	; 0
    3a16:	80 81       	ld	r24, Z
    3a18:	83 60       	ori	r24, 0x03	; 3
    3a1a:	80 83       	st	Z, r24
    3a1c:	e8 9a       	sbi	0x1d, 0	; 29
    3a1e:	08 95       	ret

00003a20 <_Z12storageStartv>:
    3a20:	ef 92       	push	r14
    3a22:	ff 92       	push	r15
    3a24:	0f 93       	push	r16
    3a26:	1f 93       	push	r17
    3a28:	cf 93       	push	r28
    3a2a:	df 93       	push	r29
    3a2c:	6b e0       	ldi	r22, 0x0B	; 11
    3a2e:	89 e0       	ldi	r24, 0x09	; 9
    3a30:	90 e0       	ldi	r25, 0x00	; 0
    3a32:	0e 94 0a 19 	call	0x3214	; 0x3214 <_Z3WDTjh>
    3a36:	10 92 e4 02 	sts	0x02E4, r1	; 0x8002e4 <oldTimer>
    3a3a:	10 92 e5 02 	sts	0x02E5, r1	; 0x8002e5 <oldTimer+0x1>
    3a3e:	10 92 e6 02 	sts	0x02E6, r1	; 0x8002e6 <oldTimer+0x2>
    3a42:	10 92 e7 02 	sts	0x02E7, r1	; 0x8002e7 <oldTimer+0x3>
    3a46:	0e 94 16 0b 	call	0x162c	; 0x162c <millis>
    3a4a:	60 93 eb 02 	sts	0x02EB, r22	; 0x8002eb <scaleTimer>
    3a4e:	70 93 ec 02 	sts	0x02EC, r23	; 0x8002ec <scaleTimer+0x1>
    3a52:	80 93 ed 02 	sts	0x02ED, r24	; 0x8002ed <scaleTimer+0x2>
    3a56:	90 93 ee 02 	sts	0x02EE, r25	; 0x8002ee <scaleTimer+0x3>
    3a5a:	8c e1       	ldi	r24, 0x1C	; 28
    3a5c:	95 e2       	ldi	r25, 0x25	; 37
    3a5e:	90 93 e9 02 	sts	0x02E9, r25	; 0x8002e9 <dimmer+0x1>
    3a62:	80 93 e8 02 	sts	0x02E8, r24	; 0x8002e8 <dimmer>
    3a66:	0e 94 03 1d 	call	0x3a06	; 0x3a06 <attachInterrupt.constprop.29>
    3a6a:	ef e6       	ldi	r30, 0x6F	; 111
    3a6c:	f0 e0       	ldi	r31, 0x00	; 0
    3a6e:	80 81       	ld	r24, Z
    3a70:	82 60       	ori	r24, 0x02	; 2
    3a72:	80 83       	st	Z, r24
    3a74:	84 e6       	ldi	r24, 0x64	; 100
    3a76:	90 e0       	ldi	r25, 0x00	; 0
    3a78:	0e 94 66 1a 	call	0x34cc	; 0x34cc <_Z4piiij>
    3a7c:	84 e0       	ldi	r24, 0x04	; 4
    3a7e:	90 e0       	ldi	r25, 0x00	; 0
    3a80:	90 93 02 01 	sts	0x0102, r25	; 0x800102 <state+0x1>
    3a84:	80 93 01 01 	sts	0x0101, r24	; 0x800101 <state>
    3a88:	ca e9       	ldi	r28, 0x9A	; 154
    3a8a:	d3 e0       	ldi	r29, 0x03	; 3
    3a8c:	81 e0       	ldi	r24, 0x01	; 1
    3a8e:	88 8f       	std	Y+24, r24	; 0x18
    3a90:	1a 8e       	std	Y+26, r1	; 0x1a
    3a92:	89 8f       	std	Y+25, r24	; 0x19
    3a94:	88 e6       	ldi	r24, 0x68	; 104
    3a96:	91 e0       	ldi	r25, 0x01	; 1
    3a98:	0e 94 18 3b 	call	0x7630	; 0x7630 <eeprom_read_word>
    3a9c:	8c 8b       	std	Y+20, r24	; 0x14
    3a9e:	8a e6       	ldi	r24, 0x6A	; 106
    3aa0:	91 e0       	ldi	r25, 0x01	; 1
    3aa2:	0e 94 18 3b 	call	0x7630	; 0x7630 <eeprom_read_word>
    3aa6:	8d 8b       	std	Y+21, r24	; 0x15
    3aa8:	ec a0       	ldd	r14, Y+36	; 0x24
    3aaa:	fd a0       	ldd	r15, Y+37	; 0x25
    3aac:	0e a1       	ldd	r16, Y+38	; 0x26
    3aae:	1f a1       	ldd	r17, Y+39	; 0x27
    3ab0:	28 a1       	ldd	r18, Y+32	; 0x20
    3ab2:	39 a1       	ldd	r19, Y+33	; 0x21
    3ab4:	4a a1       	ldd	r20, Y+34	; 0x22
    3ab6:	5b a1       	ldd	r21, Y+35	; 0x23
    3ab8:	6c 8d       	ldd	r22, Y+28	; 0x1c
    3aba:	7d 8d       	ldd	r23, Y+29	; 0x1d
    3abc:	8e 8d       	ldd	r24, Y+30	; 0x1e
    3abe:	9f 8d       	ldd	r25, Y+31	; 0x1f
    3ac0:	0e 94 da 04 	call	0x9b4	; 0x9b4 <_ZN3PID10SetTuningsEdddi.constprop.72>
    3ac4:	88 a5       	ldd	r24, Y+40	; 0x28
    3ac6:	99 a5       	ldd	r25, Y+41	; 0x29
    3ac8:	0e 94 cc 06 	call	0xd98	; 0xd98 <_ZN3PID13SetSampleTimeEi.constprop.74>
    3acc:	0e 94 9a 19 	call	0x3334	; 0x3334 <_ZN5servo4testEv.constprop.109>
    3ad0:	df 91       	pop	r29
    3ad2:	cf 91       	pop	r28
    3ad4:	1f 91       	pop	r17
    3ad6:	0f 91       	pop	r16
    3ad8:	ff 90       	pop	r15
    3ada:	ef 90       	pop	r14
    3adc:	0c 94 fd 18 	jmp	0x31fa	; 0x31fa <_Z11WDT_DISABLEv>

00003ae0 <_Z8dryStartv>:
    3ae0:	ef 92       	push	r14
    3ae2:	ff 92       	push	r15
    3ae4:	0f 93       	push	r16
    3ae6:	1f 93       	push	r17
    3ae8:	cf 93       	push	r28
    3aea:	df 93       	push	r29
    3aec:	6a e0       	ldi	r22, 0x0A	; 10
    3aee:	89 e0       	ldi	r24, 0x09	; 9
    3af0:	90 e0       	ldi	r25, 0x00	; 0
    3af2:	0e 94 0a 19 	call	0x3214	; 0x3214 <_Z3WDTjh>
    3af6:	10 92 e4 02 	sts	0x02E4, r1	; 0x8002e4 <oldTimer>
    3afa:	10 92 e5 02 	sts	0x02E5, r1	; 0x8002e5 <oldTimer+0x1>
    3afe:	10 92 e6 02 	sts	0x02E6, r1	; 0x8002e6 <oldTimer+0x2>
    3b02:	10 92 e7 02 	sts	0x02E7, r1	; 0x8002e7 <oldTimer+0x3>
    3b06:	0e 94 16 0b 	call	0x162c	; 0x162c <millis>
    3b0a:	60 93 eb 02 	sts	0x02EB, r22	; 0x8002eb <scaleTimer>
    3b0e:	70 93 ec 02 	sts	0x02EC, r23	; 0x8002ec <scaleTimer+0x1>
    3b12:	80 93 ed 02 	sts	0x02ED, r24	; 0x8002ed <scaleTimer+0x2>
    3b16:	90 93 ee 02 	sts	0x02EE, r25	; 0x8002ee <scaleTimer+0x3>
    3b1a:	8c e1       	ldi	r24, 0x1C	; 28
    3b1c:	95 e2       	ldi	r25, 0x25	; 37
    3b1e:	90 93 e9 02 	sts	0x02E9, r25	; 0x8002e9 <dimmer+0x1>
    3b22:	80 93 e8 02 	sts	0x02E8, r24	; 0x8002e8 <dimmer>
    3b26:	0e 94 03 1d 	call	0x3a06	; 0x3a06 <attachInterrupt.constprop.29>
    3b2a:	ef e6       	ldi	r30, 0x6F	; 111
    3b2c:	f0 e0       	ldi	r31, 0x00	; 0
    3b2e:	80 81       	ld	r24, Z
    3b30:	82 60       	ori	r24, 0x02	; 2
    3b32:	80 83       	st	Z, r24
    3b34:	84 e6       	ldi	r24, 0x64	; 100
    3b36:	90 e0       	ldi	r25, 0x00	; 0
    3b38:	0e 94 66 1a 	call	0x34cc	; 0x34cc <_Z4piiij>
    3b3c:	83 e0       	ldi	r24, 0x03	; 3
    3b3e:	90 e0       	ldi	r25, 0x00	; 0
    3b40:	90 93 02 01 	sts	0x0102, r25	; 0x800102 <state+0x1>
    3b44:	80 93 01 01 	sts	0x0101, r24	; 0x800101 <state>
    3b48:	ca e9       	ldi	r28, 0x9A	; 154
    3b4a:	d3 e0       	ldi	r29, 0x03	; 3
    3b4c:	81 e0       	ldi	r24, 0x01	; 1
    3b4e:	88 8f       	std	Y+24, r24	; 0x18
    3b50:	1a 8e       	std	Y+26, r1	; 0x1a
    3b52:	89 8f       	std	Y+25, r24	; 0x19
    3b54:	ec a0       	ldd	r14, Y+36	; 0x24
    3b56:	fd a0       	ldd	r15, Y+37	; 0x25
    3b58:	0e a1       	ldd	r16, Y+38	; 0x26
    3b5a:	1f a1       	ldd	r17, Y+39	; 0x27
    3b5c:	28 a1       	ldd	r18, Y+32	; 0x20
    3b5e:	39 a1       	ldd	r19, Y+33	; 0x21
    3b60:	4a a1       	ldd	r20, Y+34	; 0x22
    3b62:	5b a1       	ldd	r21, Y+35	; 0x23
    3b64:	6c 8d       	ldd	r22, Y+28	; 0x1c
    3b66:	7d 8d       	ldd	r23, Y+29	; 0x1d
    3b68:	8e 8d       	ldd	r24, Y+30	; 0x1e
    3b6a:	9f 8d       	ldd	r25, Y+31	; 0x1f
    3b6c:	0e 94 da 04 	call	0x9b4	; 0x9b4 <_ZN3PID10SetTuningsEdddi.constprop.72>
    3b70:	88 a5       	ldd	r24, Y+40	; 0x28
    3b72:	99 a5       	ldd	r25, Y+41	; 0x29
    3b74:	0e 94 cc 06 	call	0xd98	; 0xd98 <_ZN3PID13SetSampleTimeEi.constprop.74>
    3b78:	0e 94 16 0b 	call	0x162c	; 0x162c <millis>
    3b7c:	6c 87       	std	Y+12, r22	; 0x0c
    3b7e:	7d 87       	std	Y+13, r23	; 0x0d
    3b80:	8e 87       	std	Y+14, r24	; 0x0e
    3b82:	9f 87       	std	Y+15, r25	; 0x0f
    3b84:	0e 94 9a 19 	call	0x3334	; 0x3334 <_ZN5servo4testEv.constprop.109>
    3b88:	df 91       	pop	r29
    3b8a:	cf 91       	pop	r28
    3b8c:	1f 91       	pop	r17
    3b8e:	0f 91       	pop	r16
    3b90:	ff 90       	pop	r15
    3b92:	ef 90       	pop	r14
    3b94:	0c 94 fd 18 	jmp	0x31fa	; 0x31fa <_Z11WDT_DISABLEv>

00003b98 <_Z11absDryStartv>:
    3b98:	cf 93       	push	r28
    3b9a:	df 93       	push	r29
    3b9c:	82 e8       	ldi	r24, 0x82	; 130
    3b9e:	91 e0       	ldi	r25, 0x01	; 1
    3ba0:	0e 94 18 3b 	call	0x7630	; 0x7630 <eeprom_read_word>
    3ba4:	ca e9       	ldi	r28, 0x9A	; 154
    3ba6:	d3 e0       	ldi	r29, 0x03	; 3
    3ba8:	8c 8b       	std	Y+20, r24	; 0x14
    3baa:	84 e8       	ldi	r24, 0x84	; 132
    3bac:	91 e0       	ldi	r25, 0x01	; 1
    3bae:	0e 94 18 3b 	call	0x7630	; 0x7630 <eeprom_read_word>
    3bb2:	9f 8b       	std	Y+23, r25	; 0x17
    3bb4:	8e 8b       	std	Y+22, r24	; 0x16
    3bb6:	df 91       	pop	r29
    3bb8:	cf 91       	pop	r28
    3bba:	0c 94 70 1d 	jmp	0x3ae0	; 0x3ae0 <_Z8dryStartv>

00003bbe <_Z12petgDryStartv>:
    3bbe:	cf 93       	push	r28
    3bc0:	df 93       	push	r29
    3bc2:	8a e7       	ldi	r24, 0x7A	; 122
    3bc4:	91 e0       	ldi	r25, 0x01	; 1
    3bc6:	0e 94 18 3b 	call	0x7630	; 0x7630 <eeprom_read_word>
    3bca:	ca e9       	ldi	r28, 0x9A	; 154
    3bcc:	d3 e0       	ldi	r29, 0x03	; 3
    3bce:	8c 8b       	std	Y+20, r24	; 0x14
    3bd0:	8c e7       	ldi	r24, 0x7C	; 124
    3bd2:	91 e0       	ldi	r25, 0x01	; 1
    3bd4:	0e 94 18 3b 	call	0x7630	; 0x7630 <eeprom_read_word>
    3bd8:	9f 8b       	std	Y+23, r25	; 0x17
    3bda:	8e 8b       	std	Y+22, r24	; 0x16
    3bdc:	df 91       	pop	r29
    3bde:	cf 91       	pop	r28
    3be0:	0c 94 70 1d 	jmp	0x3ae0	; 0x3ae0 <_Z8dryStartv>

00003be4 <_Z11plaDryStartv>:
    3be4:	cf 93       	push	r28
    3be6:	df 93       	push	r29
    3be8:	82 e7       	ldi	r24, 0x72	; 114
    3bea:	91 e0       	ldi	r25, 0x01	; 1
    3bec:	0e 94 18 3b 	call	0x7630	; 0x7630 <eeprom_read_word>
    3bf0:	ca e9       	ldi	r28, 0x9A	; 154
    3bf2:	d3 e0       	ldi	r29, 0x03	; 3
    3bf4:	8c 8b       	std	Y+20, r24	; 0x14
    3bf6:	84 e7       	ldi	r24, 0x74	; 116
    3bf8:	91 e0       	ldi	r25, 0x01	; 1
    3bfa:	0e 94 18 3b 	call	0x7630	; 0x7630 <eeprom_read_word>
    3bfe:	9f 8b       	std	Y+23, r25	; 0x17
    3c00:	8e 8b       	std	Y+22, r24	; 0x16
    3c02:	df 91       	pop	r29
    3c04:	cf 91       	pop	r28
    3c06:	0c 94 70 1d 	jmp	0x3ae0	; 0x3ae0 <_Z8dryStartv>

00003c0a <_Z12mainDryStartv>:
    3c0a:	cf 93       	push	r28
    3c0c:	df 93       	push	r29
    3c0e:	80 e6       	ldi	r24, 0x60	; 96
    3c10:	91 e0       	ldi	r25, 0x01	; 1
    3c12:	0e 94 18 3b 	call	0x7630	; 0x7630 <eeprom_read_word>
    3c16:	ca e9       	ldi	r28, 0x9A	; 154
    3c18:	d3 e0       	ldi	r29, 0x03	; 3
    3c1a:	8c 8b       	std	Y+20, r24	; 0x14
    3c1c:	82 e6       	ldi	r24, 0x62	; 98
    3c1e:	91 e0       	ldi	r25, 0x01	; 1
    3c20:	0e 94 18 3b 	call	0x7630	; 0x7630 <eeprom_read_word>
    3c24:	9f 8b       	std	Y+23, r25	; 0x17
    3c26:	8e 8b       	std	Y+22, r24	; 0x16
    3c28:	df 91       	pop	r29
    3c2a:	cf 91       	pop	r28
    3c2c:	0c 94 70 1d 	jmp	0x3ae0	; 0x3ae0 <_Z8dryStartv>

00003c30 <_ZN5HX7114readEv>:
    3c30:	6f 92       	push	r6
    3c32:	7f 92       	push	r7
    3c34:	8f 92       	push	r8
    3c36:	9f 92       	push	r9
    3c38:	af 92       	push	r10
    3c3a:	bf 92       	push	r11
    3c3c:	cf 92       	push	r12
    3c3e:	df 92       	push	r13
    3c40:	ef 92       	push	r14
    3c42:	ff 92       	push	r15
    3c44:	0f 93       	push	r16
    3c46:	1f 93       	push	r17
    3c48:	cf 93       	push	r28
    3c4a:	df 93       	push	r29
    3c4c:	00 d0       	rcall	.+0      	; 0x3c4e <_ZN5HX7114readEv+0x1e>
    3c4e:	1f 92       	push	r1
    3c50:	cd b7       	in	r28, 0x3d	; 61
    3c52:	de b7       	in	r29, 0x3e	; 62
    3c54:	8c 01       	movw	r16, r24
    3c56:	f8 01       	movw	r30, r16
    3c58:	85 81       	ldd	r24, Z+5	; 0x05
    3c5a:	81 11       	cpse	r24, r1
    3c5c:	0c c0       	rjmp	.+24     	; 0x3c76 <_ZN5HX7114readEv+0x46>
    3c5e:	61 e0       	ldi	r22, 0x01	; 1
    3c60:	82 81       	ldd	r24, Z+2	; 0x02
    3c62:	0e 94 0a 0a 	call	0x1414	; 0x1414 <pinMode>
    3c66:	60 e0       	ldi	r22, 0x00	; 0
    3c68:	f8 01       	movw	r30, r16
    3c6a:	83 81       	ldd	r24, Z+3	; 0x03
    3c6c:	0e 94 0a 0a 	call	0x1414	; 0x1414 <pinMode>
    3c70:	81 e0       	ldi	r24, 0x01	; 1
    3c72:	f8 01       	movw	r30, r16
    3c74:	85 83       	std	Z+5, r24	; 0x05
    3c76:	f8 01       	movw	r30, r16
    3c78:	83 81       	ldd	r24, Z+3	; 0x03
    3c7a:	0e 94 81 09 	call	0x1302	; 0x1302 <digitalRead>
    3c7e:	7c 01       	movw	r14, r24
    3c80:	89 2b       	or	r24, r25
    3c82:	49 f7       	brne	.-46     	; 0x3c56 <_ZN5HX7114readEv+0x26>
    3c84:	93 e0       	ldi	r25, 0x03	; 3
    3c86:	d9 2e       	mov	r13, r25
    3c88:	da 94       	dec	r13
    3c8a:	ff ef       	ldi	r31, 0xFF	; 255
    3c8c:	df 16       	cp	r13, r31
    3c8e:	31 f1       	breq	.+76     	; 0x3cdc <_ZN5HX7114readEv+0xac>
    3c90:	f8 01       	movw	r30, r16
    3c92:	72 80       	ldd	r7, Z+2	; 0x02
    3c94:	63 80       	ldd	r6, Z+3	; 0x03
    3c96:	8d 2c       	mov	r8, r13
    3c98:	91 2c       	mov	r9, r1
    3c9a:	87 e0       	ldi	r24, 0x07	; 7
    3c9c:	a8 2e       	mov	r10, r24
    3c9e:	b1 2c       	mov	r11, r1
    3ca0:	c1 2c       	mov	r12, r1
    3ca2:	61 e0       	ldi	r22, 0x01	; 1
    3ca4:	87 2d       	mov	r24, r7
    3ca6:	0e 94 aa 09 	call	0x1354	; 0x1354 <digitalWrite>
    3caa:	86 2d       	mov	r24, r6
    3cac:	0e 94 81 09 	call	0x1302	; 0x1302 <digitalRead>
    3cb0:	0a 2c       	mov	r0, r10
    3cb2:	01 c0       	rjmp	.+2      	; 0x3cb6 <_ZN5HX7114readEv+0x86>
    3cb4:	88 0f       	add	r24, r24
    3cb6:	0a 94       	dec	r0
    3cb8:	ea f7       	brpl	.-6      	; 0x3cb4 <_ZN5HX7114readEv+0x84>
    3cba:	c8 2a       	or	r12, r24
    3cbc:	60 e0       	ldi	r22, 0x00	; 0
    3cbe:	87 2d       	mov	r24, r7
    3cc0:	0e 94 aa 09 	call	0x1354	; 0x1354 <digitalWrite>
    3cc4:	f1 e0       	ldi	r31, 0x01	; 1
    3cc6:	af 1a       	sub	r10, r31
    3cc8:	b1 08       	sbc	r11, r1
    3cca:	58 f7       	brcc	.-42     	; 0x3ca2 <_ZN5HX7114readEv+0x72>
    3ccc:	e1 e0       	ldi	r30, 0x01	; 1
    3cce:	f0 e0       	ldi	r31, 0x00	; 0
    3cd0:	ec 0f       	add	r30, r28
    3cd2:	fd 1f       	adc	r31, r29
    3cd4:	e8 0d       	add	r30, r8
    3cd6:	f9 1d       	adc	r31, r9
    3cd8:	c0 82       	st	Z, r12
    3cda:	d6 cf       	rjmp	.-84     	; 0x3c88 <_ZN5HX7114readEv+0x58>
    3cdc:	f8 01       	movw	r30, r16
    3cde:	84 81       	ldd	r24, Z+4	; 0x04
    3ce0:	8e 15       	cp	r24, r14
    3ce2:	1f 04       	cpc	r1, r15
    3ce4:	71 f0       	breq	.+28     	; 0x3d02 <_ZN5HX7114readEv+0xd2>
    3ce6:	6c f0       	brlt	.+26     	; 0x3d02 <_ZN5HX7114readEv+0xd2>
    3ce8:	61 e0       	ldi	r22, 0x01	; 1
    3cea:	82 81       	ldd	r24, Z+2	; 0x02
    3cec:	0e 94 aa 09 	call	0x1354	; 0x1354 <digitalWrite>
    3cf0:	60 e0       	ldi	r22, 0x00	; 0
    3cf2:	f8 01       	movw	r30, r16
    3cf4:	82 81       	ldd	r24, Z+2	; 0x02
    3cf6:	0e 94 aa 09 	call	0x1354	; 0x1354 <digitalWrite>
    3cfa:	ff ef       	ldi	r31, 0xFF	; 255
    3cfc:	ef 1a       	sub	r14, r31
    3cfe:	ff 0a       	sbc	r15, r31
    3d00:	ed cf       	rjmp	.-38     	; 0x3cdc <_ZN5HX7114readEv+0xac>
    3d02:	2b 81       	ldd	r18, Y+3	; 0x03
    3d04:	20 58       	subi	r18, 0x80	; 128
    3d06:	69 81       	ldd	r22, Y+1	; 0x01
    3d08:	7a 81       	ldd	r23, Y+2	; 0x02
    3d0a:	90 e0       	ldi	r25, 0x00	; 0
    3d0c:	82 2f       	mov	r24, r18
    3d0e:	0f 90       	pop	r0
    3d10:	0f 90       	pop	r0
    3d12:	0f 90       	pop	r0
    3d14:	df 91       	pop	r29
    3d16:	cf 91       	pop	r28
    3d18:	1f 91       	pop	r17
    3d1a:	0f 91       	pop	r16
    3d1c:	ff 90       	pop	r15
    3d1e:	ef 90       	pop	r14
    3d20:	df 90       	pop	r13
    3d22:	cf 90       	pop	r12
    3d24:	bf 90       	pop	r11
    3d26:	af 90       	pop	r10
    3d28:	9f 90       	pop	r9
    3d2a:	8f 90       	pop	r8
    3d2c:	7f 90       	pop	r7
    3d2e:	6f 90       	pop	r6
    3d30:	08 95       	ret

00003d32 <_Z6screenP7subMenu.constprop.71>:
    3d32:	cf 93       	push	r28
    3d34:	df 93       	push	r29
    3d36:	66 e0       	ldi	r22, 0x06	; 6
    3d38:	84 e0       	ldi	r24, 0x04	; 4
    3d3a:	90 e0       	ldi	r25, 0x00	; 0
    3d3c:	0e 94 0a 19 	call	0x3214	; 0x3214 <_Z3WDTjh>
    3d40:	90 91 a4 06 	lds	r25, 0x06A4	; 0x8006a4 <subMenuM+0x7>
    3d44:	94 30       	cpi	r25, 0x04	; 4
    3d46:	08 f0       	brcs	.+2      	; 0x3d4a <_Z6screenP7subMenu.constprop.71+0x18>
    3d48:	93 e0       	ldi	r25, 0x03	; 3
    3d4a:	91 50       	subi	r25, 0x01	; 1
    3d4c:	80 91 c1 06 	lds	r24, 0x06C1	; 0x8006c1 <subMenuM+0x24>
    3d50:	48 2f       	mov	r20, r24
    3d52:	08 2e       	mov	r0, r24
    3d54:	00 0c       	add	r0, r0
    3d56:	55 0b       	sbc	r21, r21
    3d58:	29 2f       	mov	r18, r25
    3d5a:	30 e0       	ldi	r19, 0x00	; 0
    3d5c:	70 e0       	ldi	r23, 0x00	; 0
    3d5e:	60 e0       	ldi	r22, 0x00	; 0
    3d60:	57 fd       	sbrc	r21, 7
    3d62:	05 c0       	rjmp	.+10     	; 0x3d6e <_Z6screenP7subMenu.constprop.71+0x3c>
    3d64:	b9 01       	movw	r22, r18
    3d66:	42 17       	cp	r20, r18
    3d68:	53 07       	cpc	r21, r19
    3d6a:	0c f4       	brge	.+2      	; 0x3d6e <_Z6screenP7subMenu.constprop.71+0x3c>
    3d6c:	ba 01       	movw	r22, r20
    3d6e:	82 30       	cpi	r24, 0x02	; 2
    3d70:	14 f1       	brlt	.+68     	; 0x3db6 <_Z6screenP7subMenu.constprop.71+0x84>
    3d72:	89 1b       	sub	r24, r25
    3d74:	ee eb       	ldi	r30, 0xBE	; 190
    3d76:	f6 e0       	ldi	r31, 0x06	; 6
    3d78:	93 e0       	ldi	r25, 0x03	; 3
    3d7a:	df 01       	movw	r26, r30
    3d7c:	1d 92       	st	X+, r1
    3d7e:	9a 95       	dec	r25
    3d80:	e9 f7       	brne	.-6      	; 0x3d7c <_Z6screenP7subMenu.constprop.71+0x4a>
    3d82:	e0 91 c2 06 	lds	r30, 0x06C2	; 0x8006c2 <subMenuM+0x25>
    3d86:	98 2f       	mov	r25, r24
    3d88:	a8 2f       	mov	r26, r24
    3d8a:	b0 e0       	ldi	r27, 0x00	; 0
    3d8c:	a9 01       	movw	r20, r18
    3d8e:	4a 0f       	add	r20, r26
    3d90:	5b 1f       	adc	r21, r27
    3d92:	29 2f       	mov	r18, r25
    3d94:	30 e0       	ldi	r19, 0x00	; 0
    3d96:	42 17       	cp	r20, r18
    3d98:	53 07       	cpc	r21, r19
    3d9a:	7c f0       	brlt	.+30     	; 0x3dba <_Z6screenP7subMenu.constprop.71+0x88>
    3d9c:	2a 1b       	sub	r18, r26
    3d9e:	3b 0b       	sbc	r19, r27
    3da0:	26 17       	cp	r18, r22
    3da2:	37 07       	cpc	r19, r23
    3da4:	11 f4       	brne	.+4      	; 0x3daa <_Z6screenP7subMenu.constprop.71+0x78>
    3da6:	e9 2f       	mov	r30, r25
    3da8:	e8 1b       	sub	r30, r24
    3daa:	23 56       	subi	r18, 0x63	; 99
    3dac:	39 4f       	sbci	r19, 0xF9	; 249
    3dae:	e9 01       	movw	r28, r18
    3db0:	99 a3       	std	Y+33, r25	; 0x21
    3db2:	9f 5f       	subi	r25, 0xFF	; 255
    3db4:	ee cf       	rjmp	.-36     	; 0x3d92 <_Z6screenP7subMenu.constprop.71+0x60>
    3db6:	80 e0       	ldi	r24, 0x00	; 0
    3db8:	dd cf       	rjmp	.-70     	; 0x3d74 <_Z6screenP7subMenu.constprop.71+0x42>
    3dba:	e0 93 c2 06 	sts	0x06C2, r30	; 0x8006c2 <subMenuM+0x25>
    3dbe:	10 92 9e 06 	sts	0x069E, r1	; 0x80069e <subMenuM+0x1>
    3dc2:	df 91       	pop	r29
    3dc4:	cf 91       	pop	r28
    3dc6:	0c 94 fd 18 	jmp	0x31fa	; 0x31fa <_Z11WDT_DISABLEv>

00003dca <u8g2_ClearBuffer>:
    3dca:	fc 01       	movw	r30, r24
    3dcc:	a0 81       	ld	r26, Z
    3dce:	b1 81       	ldd	r27, Z+1	; 0x01
    3dd0:	50 96       	adiw	r26, 0x10	; 16
    3dd2:	2c 91       	ld	r18, X
    3dd4:	82 ad       	ldd	r24, Z+58	; 0x3a
    3dd6:	38 e0       	ldi	r19, 0x08	; 8
    3dd8:	83 9f       	mul	r24, r19
    3dda:	c0 01       	movw	r24, r0
    3ddc:	11 24       	eor	r1, r1
    3dde:	28 9f       	mul	r18, r24
    3de0:	a0 01       	movw	r20, r0
    3de2:	29 9f       	mul	r18, r25
    3de4:	50 0d       	add	r21, r0
    3de6:	11 24       	eor	r1, r1
    3de8:	70 e0       	ldi	r23, 0x00	; 0
    3dea:	60 e0       	ldi	r22, 0x00	; 0
    3dec:	80 ad       	ldd	r24, Z+56	; 0x38
    3dee:	91 ad       	ldd	r25, Z+57	; 0x39
    3df0:	0c 94 5f 3f 	jmp	0x7ebe	; 0x7ebe <memset>

00003df4 <u8g2_NextPage>:
    3df4:	1f 93       	push	r17
    3df6:	cf 93       	push	r28
    3df8:	df 93       	push	r29
    3dfa:	ec 01       	movw	r28, r24
    3dfc:	0e 94 af 17 	call	0x2f5e	; 0x2f5e <u8g2_send_buffer>
    3e00:	1b ad       	ldd	r17, Y+59	; 0x3b
    3e02:	8a ad       	ldd	r24, Y+58	; 0x3a
    3e04:	18 0f       	add	r17, r24
    3e06:	e8 81       	ld	r30, Y
    3e08:	f9 81       	ldd	r31, Y+1	; 0x01
    3e0a:	81 89       	ldd	r24, Z+17	; 0x11
    3e0c:	18 17       	cp	r17, r24
    3e0e:	68 f0       	brcs	.+26     	; 0x3e2a <u8g2_NextPage+0x36>
    3e10:	ec 81       	ldd	r30, Y+4	; 0x04
    3e12:	fd 81       	ldd	r31, Y+5	; 0x05
    3e14:	30 e0       	ldi	r19, 0x00	; 0
    3e16:	20 e0       	ldi	r18, 0x00	; 0
    3e18:	40 e0       	ldi	r20, 0x00	; 0
    3e1a:	60 e1       	ldi	r22, 0x10	; 16
    3e1c:	ce 01       	movw	r24, r28
    3e1e:	09 95       	icall
    3e20:	80 e0       	ldi	r24, 0x00	; 0
    3e22:	df 91       	pop	r29
    3e24:	cf 91       	pop	r28
    3e26:	1f 91       	pop	r17
    3e28:	08 95       	ret
    3e2a:	fe 01       	movw	r30, r28
    3e2c:	e5 57       	subi	r30, 0x75	; 117
    3e2e:	ff 4f       	sbci	r31, 0xFF	; 255
    3e30:	80 81       	ld	r24, Z
    3e32:	88 23       	and	r24, r24
    3e34:	19 f0       	breq	.+6      	; 0x3e3c <u8g2_NextPage+0x48>
    3e36:	ce 01       	movw	r24, r28
    3e38:	0e 94 e5 1e 	call	0x3dca	; 0x3dca <u8g2_ClearBuffer>
    3e3c:	61 2f       	mov	r22, r17
    3e3e:	ce 01       	movw	r24, r28
    3e40:	0e 94 9c 17 	call	0x2f38	; 0x2f38 <u8g2_SetBufferCurrTileRow>
    3e44:	81 e0       	ldi	r24, 0x01	; 1
    3e46:	ed cf       	rjmp	.-38     	; 0x3e22 <u8g2_NextPage+0x2e>

00003e48 <u8g2_FirstPage>:
    3e48:	cf 93       	push	r28
    3e4a:	df 93       	push	r29
    3e4c:	ec 01       	movw	r28, r24
    3e4e:	fc 01       	movw	r30, r24
    3e50:	e5 57       	subi	r30, 0x75	; 117
    3e52:	ff 4f       	sbci	r31, 0xFF	; 255
    3e54:	80 81       	ld	r24, Z
    3e56:	88 23       	and	r24, r24
    3e58:	19 f0       	breq	.+6      	; 0x3e60 <u8g2_FirstPage+0x18>
    3e5a:	ce 01       	movw	r24, r28
    3e5c:	0e 94 e5 1e 	call	0x3dca	; 0x3dca <u8g2_ClearBuffer>
    3e60:	60 e0       	ldi	r22, 0x00	; 0
    3e62:	ce 01       	movw	r24, r28
    3e64:	df 91       	pop	r29
    3e66:	cf 91       	pop	r28
    3e68:	0c 94 9c 17 	jmp	0x2f38	; 0x2f38 <u8g2_SetBufferCurrTileRow>

00003e6c <u8g2_ClearDisplay.constprop.149>:
    3e6c:	8e ed       	ldi	r24, 0xDE	; 222
    3e6e:	95 e0       	ldi	r25, 0x05	; 5
    3e70:	0e 94 24 1f 	call	0x3e48	; 0x3e48 <u8g2_FirstPage>
    3e74:	8e ed       	ldi	r24, 0xDE	; 222
    3e76:	95 e0       	ldi	r25, 0x05	; 5
    3e78:	0e 94 fa 1e 	call	0x3df4	; 0x3df4 <u8g2_NextPage>
    3e7c:	81 11       	cpse	r24, r1
    3e7e:	fa cf       	rjmp	.-12     	; 0x3e74 <u8g2_ClearDisplay.constprop.149+0x8>
    3e80:	60 e0       	ldi	r22, 0x00	; 0
    3e82:	8e ed       	ldi	r24, 0xDE	; 222
    3e84:	95 e0       	ldi	r25, 0x05	; 5
    3e86:	0c 94 9c 17 	jmp	0x2f38	; 0x2f38 <u8g2_SetBufferCurrTileRow>

00003e8a <_Z12displayPrintP7subMenu.constprop.86>:
    3e8a:	2f 92       	push	r2
    3e8c:	3f 92       	push	r3
    3e8e:	4f 92       	push	r4
    3e90:	5f 92       	push	r5
    3e92:	6f 92       	push	r6
    3e94:	7f 92       	push	r7
    3e96:	8f 92       	push	r8
    3e98:	9f 92       	push	r9
    3e9a:	af 92       	push	r10
    3e9c:	bf 92       	push	r11
    3e9e:	cf 92       	push	r12
    3ea0:	df 92       	push	r13
    3ea2:	ef 92       	push	r14
    3ea4:	ff 92       	push	r15
    3ea6:	0f 93       	push	r16
    3ea8:	1f 93       	push	r17
    3eaa:	cf 93       	push	r28
    3eac:	df 93       	push	r29
    3eae:	00 d0       	rcall	.+0      	; 0x3eb0 <_Z12displayPrintP7subMenu.constprop.86+0x26>
    3eb0:	00 d0       	rcall	.+0      	; 0x3eb2 <_Z12displayPrintP7subMenu.constprop.86+0x28>
    3eb2:	00 d0       	rcall	.+0      	; 0x3eb4 <_Z12displayPrintP7subMenu.constprop.86+0x2a>
    3eb4:	1f 92       	push	r1
    3eb6:	cd b7       	in	r28, 0x3d	; 61
    3eb8:	de b7       	in	r29, 0x3e	; 62
    3eba:	60 e1       	ldi	r22, 0x10	; 16
    3ebc:	88 e0       	ldi	r24, 0x08	; 8
    3ebe:	90 e0       	ldi	r25, 0x00	; 0
    3ec0:	0e 94 0a 19 	call	0x3214	; 0x3214 <_Z3WDTjh>
    3ec4:	8e ed       	ldi	r24, 0xDE	; 222
    3ec6:	95 e0       	ldi	r25, 0x05	; 5
    3ec8:	0e 94 24 1f 	call	0x3e48	; 0x3e48 <u8g2_FirstPage>
    3ecc:	ec e1       	ldi	r30, 0x1C	; 28
    3ece:	6e 2e       	mov	r6, r30
    3ed0:	e2 e0       	ldi	r30, 0x02	; 2
    3ed2:	7e 2e       	mov	r7, r30
    3ed4:	8e 01       	movw	r16, r28
    3ed6:	0f 5f       	subi	r16, 0xFF	; 255
    3ed8:	1f 4f       	sbci	r17, 0xFF	; 255
    3eda:	f1 e2       	ldi	r31, 0x21	; 33
    3edc:	af 2e       	mov	r10, r31
    3ede:	f2 e0       	ldi	r31, 0x02	; 2
    3ee0:	bf 2e       	mov	r11, r31
    3ee2:	a6 e2       	ldi	r26, 0x26	; 38
    3ee4:	2a 2e       	mov	r2, r26
    3ee6:	a2 e0       	ldi	r26, 0x02	; 2
    3ee8:	3a 2e       	mov	r3, r26
    3eea:	0e 94 f1 13 	call	0x27e2	; 0x27e2 <u8g2_SetFont.constprop.87>
    3eee:	20 91 a4 06 	lds	r18, 0x06A4	; 0x8006a4 <subMenuM+0x7>
    3ef2:	2f 83       	std	Y+7, r18	; 0x07
    3ef4:	24 30       	cpi	r18, 0x04	; 4
    3ef6:	10 f0       	brcs	.+4      	; 0x3efc <_Z12displayPrintP7subMenu.constprop.86+0x72>
    3ef8:	33 e0       	ldi	r19, 0x03	; 3
    3efa:	3f 83       	std	Y+7, r19	; 0x07
    3efc:	80 91 a3 06 	lds	r24, 0x06A3	; 0x8006a3 <subMenuM+0x6>
    3f00:	88 0f       	add	r24, r24
    3f02:	99 0b       	sbc	r25, r25
    3f04:	85 56       	subi	r24, 0x65	; 101
    3f06:	9b 4f       	sbci	r25, 0xFB	; 251
    3f08:	0e 94 86 1a 	call	0x350c	; 0x350c <_Z13printMenuItemPKPKc>
    3f0c:	7c 01       	movw	r14, r24
    3f0e:	80 91 a3 06 	lds	r24, 0x06A3	; 0x8006a3 <subMenuM+0x6>
    3f12:	88 0f       	add	r24, r24
    3f14:	99 0b       	sbc	r25, r25
    3f16:	85 56       	subi	r24, 0x65	; 101
    3f18:	9b 4f       	sbci	r25, 0xFB	; 251
    3f1a:	0e 94 86 1a 	call	0x350c	; 0x350c <_Z13printMenuItemPKPKc>
    3f1e:	0e 94 84 15 	call	0x2b08	; 0x2b08 <u8g2_GetUTF8Width.constprop.95>
    3f22:	a0 e8       	ldi	r26, 0x80	; 128
    3f24:	b0 e0       	ldi	r27, 0x00	; 0
    3f26:	a8 1b       	sub	r26, r24
    3f28:	b9 0b       	sbc	r27, r25
    3f2a:	cd 01       	movw	r24, r26
    3f2c:	96 95       	lsr	r25
    3f2e:	87 95       	ror	r24
    3f30:	a7 01       	movw	r20, r14
    3f32:	60 e1       	ldi	r22, 0x10	; 16
    3f34:	70 e0       	ldi	r23, 0x00	; 0
    3f36:	0a 97       	sbiw	r24, 0x0a	; 10
    3f38:	0e 94 8f 17 	call	0x2f1e	; 0x2f1e <_ZN4U8G28drawUTF8EjjPKc.constprop.146>
    3f3c:	80 91 a3 06 	lds	r24, 0x06A3	; 0x8006a3 <subMenuM+0x6>
    3f40:	81 11       	cpse	r24, r1
    3f42:	43 c0       	rjmp	.+134    	; 0x3fca <_Z12displayPrintP7subMenu.constprop.86+0x140>
    3f44:	60 91 9e 03 	lds	r22, 0x039E	; 0x80039e <iDryer+0x4>
    3f48:	70 91 9f 03 	lds	r23, 0x039F	; 0x80039f <iDryer+0x5>
    3f4c:	80 91 a0 03 	lds	r24, 0x03A0	; 0x8003a0 <iDryer+0x6>
    3f50:	90 91 a1 03 	lds	r25, 0x03A1	; 0x8003a1 <iDryer+0x7>
    3f54:	0e 94 e7 3c 	call	0x79ce	; 0x79ce <__fixunssfsi>
    3f58:	7f 93       	push	r23
    3f5a:	6f 93       	push	r22
    3f5c:	60 91 a2 03 	lds	r22, 0x03A2	; 0x8003a2 <iDryer+0x8>
    3f60:	70 91 a3 03 	lds	r23, 0x03A3	; 0x8003a3 <iDryer+0x9>
    3f64:	80 91 a4 03 	lds	r24, 0x03A4	; 0x8003a4 <iDryer+0xa>
    3f68:	90 91 a5 03 	lds	r25, 0x03A5	; 0x8003a5 <iDryer+0xb>
    3f6c:	0e 94 e7 3c 	call	0x79ce	; 0x79ce <__fixunssfsi>
    3f70:	7f 93       	push	r23
    3f72:	6f 93       	push	r22
    3f74:	7f 92       	push	r7
    3f76:	6f 92       	push	r6
    3f78:	1f 93       	push	r17
    3f7a:	0f 93       	push	r16
    3f7c:	0e 94 6d 3f 	call	0x7eda	; 0x7eda <sprintf>
    3f80:	a8 01       	movw	r20, r16
    3f82:	60 e1       	ldi	r22, 0x10	; 16
    3f84:	70 e0       	ldi	r23, 0x00	; 0
    3f86:	88 e5       	ldi	r24, 0x58	; 88
    3f88:	90 e0       	ldi	r25, 0x00	; 0
    3f8a:	0e 94 8f 17 	call	0x2f1e	; 0x2f1e <_ZN4U8G28drawUTF8EjjPKc.constprop.146>
    3f8e:	60 91 9a 03 	lds	r22, 0x039A	; 0x80039a <iDryer>
    3f92:	70 91 9b 03 	lds	r23, 0x039B	; 0x80039b <iDryer+0x1>
    3f96:	80 91 9c 03 	lds	r24, 0x039C	; 0x80039c <iDryer+0x2>
    3f9a:	90 91 9d 03 	lds	r25, 0x039D	; 0x80039d <iDryer+0x3>
    3f9e:	0e 94 e7 3c 	call	0x79ce	; 0x79ce <__fixunssfsi>
    3fa2:	7f 93       	push	r23
    3fa4:	6f 93       	push	r22
    3fa6:	bf 92       	push	r11
    3fa8:	af 92       	push	r10
    3faa:	1f 93       	push	r17
    3fac:	0f 93       	push	r16
    3fae:	0e 94 6d 3f 	call	0x7eda	; 0x7eda <sprintf>
    3fb2:	a8 01       	movw	r20, r16
    3fb4:	60 e1       	ldi	r22, 0x10	; 16
    3fb6:	70 e0       	ldi	r23, 0x00	; 0
    3fb8:	90 e0       	ldi	r25, 0x00	; 0
    3fba:	80 e0       	ldi	r24, 0x00	; 0
    3fbc:	0e 94 8f 17 	call	0x2f1e	; 0x2f1e <_ZN4U8G28drawUTF8EjjPKc.constprop.146>
    3fc0:	0f b6       	in	r0, 0x3f	; 63
    3fc2:	f8 94       	cli
    3fc4:	de bf       	out	0x3e, r29	; 62
    3fc6:	0f be       	out	0x3f, r0	; 63
    3fc8:	cd bf       	out	0x3d, r28	; 61
    3fca:	f1 2c       	mov	r15, r1
    3fcc:	e1 2c       	mov	r14, r1
    3fce:	62 e1       	ldi	r22, 0x12	; 18
    3fd0:	70 e0       	ldi	r23, 0x00	; 0
    3fd2:	c7 01       	movw	r24, r14
    3fd4:	0e 94 c9 12 	call	0x2592	; 0x2592 <u8g2_DrawPixel.constprop.92>
    3fd8:	ff ef       	ldi	r31, 0xFF	; 255
    3fda:	ef 1a       	sub	r14, r31
    3fdc:	ff 0a       	sbc	r15, r31
    3fde:	21 e8       	ldi	r18, 0x81	; 129
    3fe0:	e2 16       	cp	r14, r18
    3fe2:	f1 04       	cpc	r15, r1
    3fe4:	a1 f7       	brne	.-24     	; 0x3fce <_Z12displayPrintP7subMenu.constprop.86+0x144>
    3fe6:	5d e9       	ldi	r21, 0x9D	; 157
    3fe8:	c5 2e       	mov	r12, r21
    3fea:	56 e0       	ldi	r21, 0x06	; 6
    3fec:	d5 2e       	mov	r13, r21
    3fee:	60 e2       	ldi	r22, 0x20	; 32
    3ff0:	e6 2e       	mov	r14, r22
    3ff2:	f1 2c       	mov	r15, r1
    3ff4:	41 2c       	mov	r4, r1
    3ff6:	3f 81       	ldd	r19, Y+7	; 0x07
    3ff8:	34 15       	cp	r19, r4
    3ffa:	09 f4       	brne	.+2      	; 0x3ffe <_Z12displayPrintP7subMenu.constprop.86+0x174>
    3ffc:	7f c0       	rjmp	.+254    	; 0x40fc <_Z12displayPrintP7subMenu.constprop.86+0x272>
    3ffe:	d6 01       	movw	r26, r12
    4000:	91 96       	adiw	r26, 0x21	; 33
    4002:	ec 91       	ld	r30, X
    4004:	f0 e0       	ldi	r31, 0x00	; 0
    4006:	e3 56       	subi	r30, 0x63	; 99
    4008:	f9 4f       	sbci	r31, 0xF9	; 249
    400a:	80 85       	ldd	r24, Z+8	; 0x08
    400c:	90 e0       	ldi	r25, 0x00	; 0
    400e:	88 0f       	add	r24, r24
    4010:	99 1f       	adc	r25, r25
    4012:	85 56       	subi	r24, 0x65	; 101
    4014:	9b 4f       	sbci	r25, 0xFB	; 251
    4016:	0e 94 86 1a 	call	0x350c	; 0x350c <_Z13printMenuItemPKPKc>
    401a:	ac 01       	movw	r20, r24
    401c:	b7 01       	movw	r22, r14
    401e:	90 e0       	ldi	r25, 0x00	; 0
    4020:	80 e0       	ldi	r24, 0x00	; 0
    4022:	0e 94 8f 17 	call	0x2f1e	; 0x2f1e <_ZN4U8G28drawUTF8EjjPKc.constprop.146>
    4026:	d6 01       	movw	r26, r12
    4028:	91 96       	adiw	r26, 0x21	; 33
    402a:	ec 91       	ld	r30, X
    402c:	f0 e0       	ldi	r31, 0x00	; 0
    402e:	e3 56       	subi	r30, 0x63	; 99
    4030:	f9 4f       	sbci	r31, 0xF9	; 249
    4032:	60 85       	ldd	r22, Z+8	; 0x08
    4034:	b6 e0       	ldi	r27, 0x06	; 6
    4036:	6b 9f       	mul	r22, r27
    4038:	b0 01       	movw	r22, r0
    403a:	11 24       	eor	r1, r1
    403c:	6c 5f       	subi	r22, 0xFC	; 252
    403e:	7f 4f       	sbci	r23, 0xFF	; 255
    4040:	46 e0       	ldi	r20, 0x06	; 6
    4042:	50 e0       	ldi	r21, 0x00	; 0
    4044:	84 e9       	ldi	r24, 0x94	; 148
    4046:	93 e0       	ldi	r25, 0x03	; 3
    4048:	0e 94 02 3b 	call	0x7604	; 0x7604 <eeprom_read_block>
    404c:	80 91 96 03 	lds	r24, 0x0396	; 0x800396 <menu+0x2>
    4050:	90 91 97 03 	lds	r25, 0x0397	; 0x800397 <menu+0x3>
    4054:	f6 01       	movw	r30, r12
    4056:	51 a0       	ldd	r5, Z+33	; 0x21
    4058:	89 2b       	or	r24, r25
    405a:	a1 f4       	brne	.+40     	; 0x4084 <_Z12displayPrintP7subMenu.constprop.86+0x1fa>
    405c:	80 90 98 03 	lds	r8, 0x0398	; 0x800398 <menu+0x4>
    4060:	90 90 99 03 	lds	r9, 0x0399	; 0x800399 <menu+0x5>
    4064:	e5 2d       	mov	r30, r5
    4066:	f0 e0       	ldi	r31, 0x00	; 0
    4068:	e3 56       	subi	r30, 0x63	; 99
    406a:	f9 4f       	sbci	r31, 0xF9	; 249
    406c:	80 85       	ldd	r24, Z+8	; 0x08
    406e:	90 e0       	ldi	r25, 0x00	; 0
    4070:	88 0f       	add	r24, r24
    4072:	99 1f       	adc	r25, r25
    4074:	84 5a       	subi	r24, 0xA4	; 164
    4076:	9e 4f       	sbci	r25, 0xFE	; 254
    4078:	0e 94 18 3b 	call	0x7630	; 0x7630 <eeprom_read_word>
    407c:	89 28       	or	r8, r9
    407e:	11 f4       	brne	.+4      	; 0x4084 <_Z12displayPrintP7subMenu.constprop.86+0x1fa>
    4080:	89 2b       	or	r24, r25
    4082:	01 f1       	breq	.+64     	; 0x40c4 <_Z12displayPrintP7subMenu.constprop.86+0x23a>
    4084:	e5 2d       	mov	r30, r5
    4086:	f0 e0       	ldi	r31, 0x00	; 0
    4088:	e3 56       	subi	r30, 0x63	; 99
    408a:	f9 4f       	sbci	r31, 0xF9	; 249
    408c:	80 85       	ldd	r24, Z+8	; 0x08
    408e:	90 e0       	ldi	r25, 0x00	; 0
    4090:	88 0f       	add	r24, r24
    4092:	99 1f       	adc	r25, r25
    4094:	84 5a       	subi	r24, 0xA4	; 164
    4096:	9e 4f       	sbci	r25, 0xFE	; 254
    4098:	0e 94 18 3b 	call	0x7630	; 0x7630 <eeprom_read_word>
    409c:	9f 93       	push	r25
    409e:	8f 93       	push	r24
    40a0:	3f 92       	push	r3
    40a2:	2f 92       	push	r2
    40a4:	1f 93       	push	r17
    40a6:	0f 93       	push	r16
    40a8:	0e 94 6d 3f 	call	0x7eda	; 0x7eda <sprintf>
    40ac:	a8 01       	movw	r20, r16
    40ae:	b7 01       	movw	r22, r14
    40b0:	8f e5       	ldi	r24, 0x5F	; 95
    40b2:	90 e0       	ldi	r25, 0x00	; 0
    40b4:	0e 94 8f 17 	call	0x2f1e	; 0x2f1e <_ZN4U8G28drawUTF8EjjPKc.constprop.146>
    40b8:	0f 90       	pop	r0
    40ba:	0f 90       	pop	r0
    40bc:	0f 90       	pop	r0
    40be:	0f 90       	pop	r0
    40c0:	0f 90       	pop	r0
    40c2:	0f 90       	pop	r0
    40c4:	80 91 c2 06 	lds	r24, 0x06C2	; 0x8006c2 <subMenuM+0x25>
    40c8:	48 12       	cpse	r4, r24
    40ca:	0d c0       	rjmp	.+26     	; 0x40e6 <_Z12displayPrintP7subMenu.constprop.86+0x25c>
    40cc:	80 91 9d 06 	lds	r24, 0x069D	; 0x80069d <subMenuM>
    40d0:	30 e0       	ldi	r19, 0x00	; 0
    40d2:	20 e0       	ldi	r18, 0x00	; 0
    40d4:	50 e0       	ldi	r21, 0x00	; 0
    40d6:	40 e0       	ldi	r20, 0x00	; 0
    40d8:	b7 01       	movw	r22, r14
    40da:	81 11       	cpse	r24, r1
    40dc:	0c c0       	rjmp	.+24     	; 0x40f6 <_Z12displayPrintP7subMenu.constprop.86+0x26c>
    40de:	90 e0       	ldi	r25, 0x00	; 0
    40e0:	80 e0       	ldi	r24, 0x00	; 0
    40e2:	0e 94 0d 17 	call	0x2e1a	; 0x2e1a <u8g2_DrawButtonUTF8.constprop.94>
    40e6:	43 94       	inc	r4
    40e8:	f0 e1       	ldi	r31, 0x10	; 16
    40ea:	ef 0e       	add	r14, r31
    40ec:	f1 1c       	adc	r15, r1
    40ee:	2f ef       	ldi	r18, 0xFF	; 255
    40f0:	c2 1a       	sub	r12, r18
    40f2:	d2 0a       	sbc	r13, r18
    40f4:	80 cf       	rjmp	.-256    	; 0x3ff6 <_Z12displayPrintP7subMenu.constprop.86+0x16c>
    40f6:	80 e6       	ldi	r24, 0x60	; 96
    40f8:	90 e0       	ldi	r25, 0x00	; 0
    40fa:	f3 cf       	rjmp	.-26     	; 0x40e2 <_Z12displayPrintP7subMenu.constprop.86+0x258>
    40fc:	8e ed       	ldi	r24, 0xDE	; 222
    40fe:	95 e0       	ldi	r25, 0x05	; 5
    4100:	0e 94 fa 1e 	call	0x3df4	; 0x3df4 <u8g2_NextPage>
    4104:	81 11       	cpse	r24, r1
    4106:	f1 ce       	rjmp	.-542    	; 0x3eea <_Z12displayPrintP7subMenu.constprop.86+0x60>
    4108:	10 92 b3 03 	sts	0x03B3, r1	; 0x8003b3 <iDryer+0x19>
    410c:	0e 94 fd 18 	call	0x31fa	; 0x31fa <_Z11WDT_DISABLEv>
    4110:	27 96       	adiw	r28, 0x07	; 7
    4112:	0f b6       	in	r0, 0x3f	; 63
    4114:	f8 94       	cli
    4116:	de bf       	out	0x3e, r29	; 62
    4118:	0f be       	out	0x3f, r0	; 63
    411a:	cd bf       	out	0x3d, r28	; 61
    411c:	df 91       	pop	r29
    411e:	cf 91       	pop	r28
    4120:	1f 91       	pop	r17
    4122:	0f 91       	pop	r16
    4124:	ff 90       	pop	r15
    4126:	ef 90       	pop	r14
    4128:	df 90       	pop	r13
    412a:	cf 90       	pop	r12
    412c:	bf 90       	pop	r11
    412e:	af 90       	pop	r10
    4130:	9f 90       	pop	r9
    4132:	8f 90       	pop	r8
    4134:	7f 90       	pop	r7
    4136:	6f 90       	pop	r6
    4138:	5f 90       	pop	r5
    413a:	4f 90       	pop	r4
    413c:	3f 90       	pop	r3
    413e:	2f 90       	pop	r2
    4140:	08 95       	ret

00004142 <_Z9scaleShowv>:
    4142:	6f 92       	push	r6
    4144:	7f 92       	push	r7
    4146:	8f 92       	push	r8
    4148:	9f 92       	push	r9
    414a:	af 92       	push	r10
    414c:	bf 92       	push	r11
    414e:	cf 92       	push	r12
    4150:	df 92       	push	r13
    4152:	ef 92       	push	r14
    4154:	ff 92       	push	r15
    4156:	0f 93       	push	r16
    4158:	1f 93       	push	r17
    415a:	cf 93       	push	r28
    415c:	df 93       	push	r29
    415e:	8e ed       	ldi	r24, 0xDE	; 222
    4160:	95 e0       	ldi	r25, 0x05	; 5
    4162:	0e 94 24 1f 	call	0x3e48	; 0x3e48 <u8g2_FirstPage>
    4166:	4b e2       	ldi	r20, 0x2B	; 43
    4168:	e4 2e       	mov	r14, r20
    416a:	42 e0       	ldi	r20, 0x02	; 2
    416c:	f4 2e       	mov	r15, r20
    416e:	56 ea       	ldi	r21, 0xA6	; 166
    4170:	c5 2e       	mov	r12, r21
    4172:	52 e0       	ldi	r21, 0x02	; 2
    4174:	d5 2e       	mov	r13, r21
    4176:	60 e8       	ldi	r22, 0x80	; 128
    4178:	a6 2e       	mov	r10, r22
    417a:	b1 2c       	mov	r11, r1
    417c:	0e 94 f1 13 	call	0x27e2	; 0x27e2 <u8g2_SetFont.constprop.87>
    4180:	3d e6       	ldi	r19, 0x6D	; 109
    4182:	83 2e       	mov	r8, r19
    4184:	35 e0       	ldi	r19, 0x05	; 5
    4186:	93 2e       	mov	r9, r19
    4188:	0b ee       	ldi	r16, 0xEB	; 235
    418a:	14 e0       	ldi	r17, 0x04	; 4
    418c:	c0 e1       	ldi	r28, 0x10	; 16
    418e:	d0 e0       	ldi	r29, 0x00	; 0
    4190:	f4 01       	movw	r30, r8
    4192:	60 89       	ldd	r22, Z+16	; 0x10
    4194:	71 89       	ldd	r23, Z+17	; 0x11
    4196:	82 89       	ldd	r24, Z+18	; 0x12
    4198:	93 89       	ldd	r25, Z+19	; 0x13
    419a:	0e 94 e7 3c 	call	0x79ce	; 0x79ce <__fixunssfsi>
    419e:	76 2e       	mov	r7, r22
    41a0:	67 2e       	mov	r6, r23
    41a2:	c8 01       	movw	r24, r16
    41a4:	0e 94 86 1a 	call	0x350c	; 0x350c <_Z13printMenuItemPKPKc>
    41a8:	6f 92       	push	r6
    41aa:	7f 92       	push	r7
    41ac:	9f 93       	push	r25
    41ae:	8f 93       	push	r24
    41b0:	ff 92       	push	r15
    41b2:	ef 92       	push	r14
    41b4:	df 92       	push	r13
    41b6:	cf 92       	push	r12
    41b8:	0e 94 6d 3f 	call	0x7eda	; 0x7eda <sprintf>
    41bc:	86 ea       	ldi	r24, 0xA6	; 166
    41be:	92 e0       	ldi	r25, 0x02	; 2
    41c0:	0e 94 84 15 	call	0x2b08	; 0x2b08 <u8g2_GetUTF8Width.constprop.95>
    41c4:	95 01       	movw	r18, r10
    41c6:	28 1b       	sub	r18, r24
    41c8:	39 0b       	sbc	r19, r25
    41ca:	c9 01       	movw	r24, r18
    41cc:	46 ea       	ldi	r20, 0xA6	; 166
    41ce:	52 e0       	ldi	r21, 0x02	; 2
    41d0:	be 01       	movw	r22, r28
    41d2:	96 95       	lsr	r25
    41d4:	87 95       	ror	r24
    41d6:	0e 94 8f 17 	call	0x2f1e	; 0x2f1e <_ZN4U8G28drawUTF8EjjPKc.constprop.146>
    41da:	34 e1       	ldi	r19, 0x14	; 20
    41dc:	83 0e       	add	r8, r19
    41de:	91 1c       	adc	r9, r1
    41e0:	0a 5f       	subi	r16, 0xFA	; 250
    41e2:	1f 4f       	sbci	r17, 0xFF	; 255
    41e4:	60 96       	adiw	r28, 0x10	; 16
    41e6:	8d b7       	in	r24, 0x3d	; 61
    41e8:	9e b7       	in	r25, 0x3e	; 62
    41ea:	08 96       	adiw	r24, 0x08	; 8
    41ec:	0f b6       	in	r0, 0x3f	; 63
    41ee:	f8 94       	cli
    41f0:	9e bf       	out	0x3e, r25	; 62
    41f2:	0f be       	out	0x3f, r0	; 63
    41f4:	8d bf       	out	0x3d, r24	; 61
    41f6:	c0 35       	cpi	r28, 0x50	; 80
    41f8:	d1 05       	cpc	r29, r1
    41fa:	51 f6       	brne	.-108    	; 0x4190 <_Z9scaleShowv+0x4e>
    41fc:	8e ed       	ldi	r24, 0xDE	; 222
    41fe:	95 e0       	ldi	r25, 0x05	; 5
    4200:	0e 94 fa 1e 	call	0x3df4	; 0x3df4 <u8g2_NextPage>
    4204:	81 11       	cpse	r24, r1
    4206:	ba cf       	rjmp	.-140    	; 0x417c <_Z9scaleShowv+0x3a>
    4208:	df 91       	pop	r29
    420a:	cf 91       	pop	r28
    420c:	1f 91       	pop	r17
    420e:	0f 91       	pop	r16
    4210:	ff 90       	pop	r15
    4212:	ef 90       	pop	r14
    4214:	df 90       	pop	r13
    4216:	cf 90       	pop	r12
    4218:	bf 90       	pop	r11
    421a:	af 90       	pop	r10
    421c:	9f 90       	pop	r9
    421e:	8f 90       	pop	r8
    4220:	7f 90       	pop	r7
    4222:	6f 90       	pop	r6
    4224:	08 95       	ret

00004226 <_Z7saveAllv>:
    4226:	0f 93       	push	r16
    4228:	1f 93       	push	r17
    422a:	cf 93       	push	r28
    422c:	df 93       	push	r29
    422e:	0e 94 48 1b 	call	0x3690	; 0x3690 <_Z15updateIDyerDatav>
    4232:	8e ed       	ldi	r24, 0xDE	; 222
    4234:	95 e0       	ldi	r25, 0x05	; 5
    4236:	0e 94 24 1f 	call	0x3e48	; 0x3e48 <u8g2_FirstPage>
    423a:	00 e8       	ldi	r16, 0x80	; 128
    423c:	10 e0       	ldi	r17, 0x00	; 0
    423e:	84 e1       	ldi	r24, 0x14	; 20
    4240:	94 e0       	ldi	r25, 0x04	; 4
    4242:	0e 94 86 1a 	call	0x350c	; 0x350c <_Z13printMenuItemPKPKc>
    4246:	ec 01       	movw	r28, r24
    4248:	84 e1       	ldi	r24, 0x14	; 20
    424a:	94 e0       	ldi	r25, 0x04	; 4
    424c:	0e 94 86 1a 	call	0x350c	; 0x350c <_Z13printMenuItemPKPKc>
    4250:	0e 94 84 15 	call	0x2b08	; 0x2b08 <u8g2_GetUTF8Width.constprop.95>
    4254:	98 01       	movw	r18, r16
    4256:	28 1b       	sub	r18, r24
    4258:	39 0b       	sbc	r19, r25
    425a:	c9 01       	movw	r24, r18
    425c:	ae 01       	movw	r20, r28
    425e:	60 e3       	ldi	r22, 0x30	; 48
    4260:	70 e0       	ldi	r23, 0x00	; 0
    4262:	96 95       	lsr	r25
    4264:	87 95       	ror	r24
    4266:	0e 94 8f 17 	call	0x2f1e	; 0x2f1e <_ZN4U8G28drawUTF8EjjPKc.constprop.146>
    426a:	8e ed       	ldi	r24, 0xDE	; 222
    426c:	95 e0       	ldi	r25, 0x05	; 5
    426e:	0e 94 fa 1e 	call	0x3df4	; 0x3df4 <u8g2_NextPage>
    4272:	81 11       	cpse	r24, r1
    4274:	e4 cf       	rjmp	.-56     	; 0x423e <_Z7saveAllv+0x18>
    4276:	64 ef       	ldi	r22, 0xF4	; 244
    4278:	71 e0       	ldi	r23, 0x01	; 1
    427a:	80 e0       	ldi	r24, 0x00	; 0
    427c:	90 e0       	ldi	r25, 0x00	; 0
    427e:	0e 94 e3 0a 	call	0x15c6	; 0x15c6 <delay>
    4282:	81 e0       	ldi	r24, 0x01	; 1
    4284:	80 93 9e 06 	sts	0x069E, r24	; 0x80069e <subMenuM+0x1>
    4288:	df 91       	pop	r29
    428a:	cf 91       	pop	r28
    428c:	1f 91       	pop	r17
    428e:	0f 91       	pop	r16
    4290:	08 95       	ret

00004292 <_Z8setErrorh>:
    4292:	41 e0       	ldi	r20, 0x01	; 1
    4294:	50 e0       	ldi	r21, 0x00	; 0
    4296:	60 e0       	ldi	r22, 0x00	; 0
    4298:	70 e0       	ldi	r23, 0x00	; 0
    429a:	04 c0       	rjmp	.+8      	; 0x42a4 <_Z8setErrorh+0x12>
    429c:	44 0f       	add	r20, r20
    429e:	55 1f       	adc	r21, r21
    42a0:	66 1f       	adc	r22, r22
    42a2:	77 1f       	adc	r23, r23
    42a4:	8a 95       	dec	r24
    42a6:	d2 f7       	brpl	.-12     	; 0x429c <_Z8setErrorh+0xa>
    42a8:	80 91 a0 02 	lds	r24, 0x02A0	; 0x8002a0 <WDT_ERROR>
    42ac:	90 91 a1 02 	lds	r25, 0x02A1	; 0x8002a1 <WDT_ERROR+0x1>
    42b0:	a0 91 a2 02 	lds	r26, 0x02A2	; 0x8002a2 <WDT_ERROR+0x2>
    42b4:	b0 91 a3 02 	lds	r27, 0x02A3	; 0x8002a3 <WDT_ERROR+0x3>
    42b8:	48 2b       	or	r20, r24
    42ba:	59 2b       	or	r21, r25
    42bc:	6a 2b       	or	r22, r26
    42be:	7b 2b       	or	r23, r27
    42c0:	40 93 a0 02 	sts	0x02A0, r20	; 0x8002a0 <WDT_ERROR>
    42c4:	50 93 a1 02 	sts	0x02A1, r21	; 0x8002a1 <WDT_ERROR+0x1>
    42c8:	60 93 a2 02 	sts	0x02A2, r22	; 0x8002a2 <WDT_ERROR+0x2>
    42cc:	70 93 a3 02 	sts	0x02A3, r23	; 0x8002a3 <WDT_ERROR+0x3>
    42d0:	80 e0       	ldi	r24, 0x00	; 0
    42d2:	90 e0       	ldi	r25, 0x00	; 0
    42d4:	0e 94 1e 3b 	call	0x763c	; 0x763c <eeprom_write_dword>
    42d8:	81 e0       	ldi	r24, 0x01	; 1
    42da:	08 95       	ret

000042dc <_ZN6iDryer7getDataEv.constprop.51>:
    42dc:	4f 92       	push	r4
    42de:	5f 92       	push	r5
    42e0:	6f 92       	push	r6
    42e2:	7f 92       	push	r7
    42e4:	8f 92       	push	r8
    42e6:	9f 92       	push	r9
    42e8:	af 92       	push	r10
    42ea:	bf 92       	push	r11
    42ec:	cf 92       	push	r12
    42ee:	df 92       	push	r13
    42f0:	ef 92       	push	r14
    42f2:	ff 92       	push	r15
    42f4:	0f 93       	push	r16
    42f6:	1f 93       	push	r17
    42f8:	cf 93       	push	r28
    42fa:	df 93       	push	r29
    42fc:	c0 e1       	ldi	r28, 0x10	; 16
    42fe:	d0 e0       	ldi	r29, 0x00	; 0
    4300:	f1 2c       	mov	r15, r1
    4302:	e1 2c       	mov	r14, r1
    4304:	80 91 99 06 	lds	r24, 0x0699	; 0x800699 <ntc>
    4308:	0e 94 9e 0a 	call	0x153c	; 0x153c <analogRead>
    430c:	e8 0e       	add	r14, r24
    430e:	f9 1e       	adc	r15, r25
    4310:	21 97       	sbiw	r28, 0x01	; 1
    4312:	c1 f7       	brne	.-16     	; 0x4304 <_ZN6iDryer7getDataEv.constprop.51+0x28>
    4314:	24 e0       	ldi	r18, 0x04	; 4
    4316:	30 e0       	ldi	r19, 0x00	; 0
    4318:	41 e0       	ldi	r20, 0x01	; 1
    431a:	50 e0       	ldi	r21, 0x00	; 0
    431c:	ca 01       	movw	r24, r20
    431e:	28 39       	cpi	r18, 0x98	; 152
    4320:	31 05       	cpc	r19, r1
    4322:	09 f4       	brne	.+2      	; 0x4326 <_ZN6iDryer7getDataEv.constprop.51+0x4a>
    4324:	95 c1       	rjmp	.+810    	; 0x4650 <_ZN6iDryer7getDataEv.constprop.51+0x374>
    4326:	b9 01       	movw	r22, r18
    4328:	6c 57       	subi	r22, 0x7C	; 124
    432a:	7e 4f       	sbci	r23, 0xFE	; 254
    432c:	fb 01       	movw	r30, r22
    432e:	a5 91       	lpm	r26, Z+
    4330:	b4 91       	lpm	r27, Z
    4332:	4f 5f       	subi	r20, 0xFF	; 255
    4334:	5f 4f       	sbci	r21, 0xFF	; 255
    4336:	f9 01       	movw	r30, r18
    4338:	34 96       	adiw	r30, 0x04	; 4
    433a:	ea 16       	cp	r14, r26
    433c:	fb 06       	cpc	r15, r27
    433e:	0c f0       	brlt	.+2      	; 0x4342 <_ZN6iDryer7getDataEv.constprop.51+0x66>
    4340:	85 c1       	rjmp	.+778    	; 0x464c <_ZN6iDryer7getDataEv.constprop.51+0x370>
    4342:	01 97       	sbiw	r24, 0x01	; 1
    4344:	88 0f       	add	r24, r24
    4346:	99 1f       	adc	r25, r25
    4348:	88 0f       	add	r24, r24
    434a:	99 1f       	adc	r25, r25
    434c:	dc 01       	movw	r26, r24
    434e:	aa 57       	subi	r26, 0x7A	; 122
    4350:	be 4f       	sbci	r27, 0xFE	; 254
    4352:	fd 01       	movw	r30, r26
    4354:	85 90       	lpm	r8, Z+
    4356:	94 90       	lpm	r9, Z
    4358:	8c 57       	subi	r24, 0x7C	; 124
    435a:	9e 4f       	sbci	r25, 0xFE	; 254
    435c:	fc 01       	movw	r30, r24
    435e:	45 91       	lpm	r20, Z+
    4360:	54 91       	lpm	r21, Z
    4362:	f9 01       	movw	r30, r18
    4364:	ea 57       	subi	r30, 0x7A	; 122
    4366:	fe 4f       	sbci	r31, 0xFE	; 254
    4368:	a5 90       	lpm	r10, Z+
    436a:	b4 90       	lpm	r11, Z
    436c:	fd 01       	movw	r30, r26
    436e:	c5 91       	lpm	r28, Z+
    4370:	d4 91       	lpm	r29, Z
    4372:	fb 01       	movw	r30, r22
    4374:	c5 90       	lpm	r12, Z+
    4376:	d4 90       	lpm	r13, Z
    4378:	fc 01       	movw	r30, r24
    437a:	05 91       	lpm	r16, Z+
    437c:	14 91       	lpm	r17, Z
    437e:	b7 01       	movw	r22, r14
    4380:	64 1b       	sub	r22, r20
    4382:	75 0b       	sbc	r23, r21
    4384:	07 2e       	mov	r0, r23
    4386:	00 0c       	add	r0, r0
    4388:	88 0b       	sbc	r24, r24
    438a:	99 0b       	sbc	r25, r25
    438c:	0e 94 18 3d 	call	0x7a30	; 0x7a30 <__floatsisf>
    4390:	2b 01       	movw	r4, r22
    4392:	3c 01       	movw	r6, r24
    4394:	b5 01       	movw	r22, r10
    4396:	6c 1b       	sub	r22, r28
    4398:	7d 0b       	sbc	r23, r29
    439a:	07 2e       	mov	r0, r23
    439c:	00 0c       	add	r0, r0
    439e:	88 0b       	sbc	r24, r24
    43a0:	99 0b       	sbc	r25, r25
    43a2:	0e 94 18 3d 	call	0x7a30	; 0x7a30 <__floatsisf>
    43a6:	9b 01       	movw	r18, r22
    43a8:	ac 01       	movw	r20, r24
    43aa:	c3 01       	movw	r24, r6
    43ac:	b2 01       	movw	r22, r4
    43ae:	0e 94 cd 3d 	call	0x7b9a	; 0x7b9a <__mulsf3>
    43b2:	2b 01       	movw	r4, r22
    43b4:	3c 01       	movw	r6, r24
    43b6:	b6 01       	movw	r22, r12
    43b8:	60 1b       	sub	r22, r16
    43ba:	71 0b       	sbc	r23, r17
    43bc:	07 2e       	mov	r0, r23
    43be:	00 0c       	add	r0, r0
    43c0:	88 0b       	sbc	r24, r24
    43c2:	99 0b       	sbc	r25, r25
    43c4:	0e 94 18 3d 	call	0x7a30	; 0x7a30 <__floatsisf>
    43c8:	9b 01       	movw	r18, r22
    43ca:	ac 01       	movw	r20, r24
    43cc:	c3 01       	movw	r24, r6
    43ce:	b2 01       	movw	r22, r4
    43d0:	0e 94 6e 3c 	call	0x78dc	; 0x78dc <__divsf3>
    43d4:	6b 01       	movw	r12, r22
    43d6:	7c 01       	movw	r14, r24
    43d8:	b4 01       	movw	r22, r8
    43da:	99 0c       	add	r9, r9
    43dc:	88 0b       	sbc	r24, r24
    43de:	99 0b       	sbc	r25, r25
    43e0:	0e 94 18 3d 	call	0x7a30	; 0x7a30 <__floatsisf>
    43e4:	9b 01       	movw	r18, r22
    43e6:	ac 01       	movw	r20, r24
    43e8:	c7 01       	movw	r24, r14
    43ea:	b6 01       	movw	r22, r12
    43ec:	0e 94 fd 3b 	call	0x77fa	; 0x77fa <__addsf3>
    43f0:	20 91 9a 03 	lds	r18, 0x039A	; 0x80039a <iDryer>
    43f4:	30 91 9b 03 	lds	r19, 0x039B	; 0x80039b <iDryer+0x1>
    43f8:	40 91 9c 03 	lds	r20, 0x039C	; 0x80039c <iDryer+0x2>
    43fc:	50 91 9d 03 	lds	r21, 0x039D	; 0x80039d <iDryer+0x3>
    4400:	0e 94 fd 3b 	call	0x77fa	; 0x77fa <__addsf3>
    4404:	20 e0       	ldi	r18, 0x00	; 0
    4406:	30 e0       	ldi	r19, 0x00	; 0
    4408:	40 e0       	ldi	r20, 0x00	; 0
    440a:	5f e3       	ldi	r21, 0x3F	; 63
    440c:	0e 94 cd 3d 	call	0x7b9a	; 0x7b9a <__mulsf3>
    4410:	60 93 9a 03 	sts	0x039A, r22	; 0x80039a <iDryer>
    4414:	70 93 9b 03 	sts	0x039B, r23	; 0x80039b <iDryer+0x1>
    4418:	80 93 9c 03 	sts	0x039C, r24	; 0x80039c <iDryer+0x2>
    441c:	90 93 9d 03 	sts	0x039D, r25	; 0x80039d <iDryer+0x3>
    4420:	0e 94 32 1c 	call	0x3864	; 0x3864 <_ZN11GyverBME28011readTempIntEv.constprop.57>
    4424:	9b 01       	movw	r18, r22
    4426:	ac 01       	movw	r20, r24
    4428:	a5 e0       	ldi	r26, 0x05	; 5
    442a:	b0 e0       	ldi	r27, 0x00	; 0
    442c:	0e 94 58 3b 	call	0x76b0	; 0x76b0 <__muluhisi3>
    4430:	60 58       	subi	r22, 0x80	; 128
    4432:	7f 4f       	sbci	r23, 0xFF	; 255
    4434:	8f 4f       	sbci	r24, 0xFF	; 255
    4436:	9f 4f       	sbci	r25, 0xFF	; 255
    4438:	67 2f       	mov	r22, r23
    443a:	78 2f       	mov	r23, r24
    443c:	89 2f       	mov	r24, r25
    443e:	99 27       	eor	r25, r25
    4440:	87 fd       	sbrc	r24, 7
    4442:	9a 95       	dec	r25
    4444:	0e 94 18 3d 	call	0x7a30	; 0x7a30 <__floatsisf>
    4448:	20 e0       	ldi	r18, 0x00	; 0
    444a:	30 e0       	ldi	r19, 0x00	; 0
    444c:	48 ec       	ldi	r20, 0xC8	; 200
    444e:	52 e4       	ldi	r21, 0x42	; 66
    4450:	0e 94 6e 3c 	call	0x78dc	; 0x78dc <__divsf3>
    4454:	20 91 9e 03 	lds	r18, 0x039E	; 0x80039e <iDryer+0x4>
    4458:	30 91 9f 03 	lds	r19, 0x039F	; 0x80039f <iDryer+0x5>
    445c:	40 91 a0 03 	lds	r20, 0x03A0	; 0x8003a0 <iDryer+0x6>
    4460:	50 91 a1 03 	lds	r21, 0x03A1	; 0x8003a1 <iDryer+0x7>
    4464:	0e 94 fd 3b 	call	0x77fa	; 0x77fa <__addsf3>
    4468:	20 e0       	ldi	r18, 0x00	; 0
    446a:	30 e0       	ldi	r19, 0x00	; 0
    446c:	40 e0       	ldi	r20, 0x00	; 0
    446e:	5f e3       	ldi	r21, 0x3F	; 63
    4470:	0e 94 cd 3d 	call	0x7b9a	; 0x7b9a <__mulsf3>
    4474:	60 93 9e 03 	sts	0x039E, r22	; 0x80039e <iDryer+0x4>
    4478:	70 93 9f 03 	sts	0x039F, r23	; 0x80039f <iDryer+0x5>
    447c:	80 93 a0 03 	sts	0x03A0, r24	; 0x8003a0 <iDryer+0x6>
    4480:	90 93 a1 03 	sts	0x03A1, r25	; 0x8003a1 <iDryer+0x7>
    4484:	80 91 70 06 	lds	r24, 0x0670	; 0x800670 <bme>
    4488:	91 e0       	ldi	r25, 0x01	; 1
    448a:	90 93 45 03 	sts	0x0345, r25	; 0x800345 <_ZN7TwoWire12transmittingE>
    448e:	80 93 67 03 	sts	0x0367, r24	; 0x800367 <_ZN7TwoWire9txAddressE>
    4492:	10 92 46 03 	sts	0x0346, r1	; 0x800346 <_ZN7TwoWire13txBufferIndexE>
    4496:	10 92 68 03 	sts	0x0368, r1	; 0x800368 <_ZN7TwoWire14txBufferLengthE>
    449a:	6d ef       	ldi	r22, 0xFD	; 253
    449c:	81 ef       	ldi	r24, 0xF1	; 241
    449e:	93 e0       	ldi	r25, 0x03	; 3
    44a0:	0e 94 2a 08 	call	0x1054	; 0x1054 <_ZN7TwoWire5writeEh>
    44a4:	0e 94 53 07 	call	0xea6	; 0xea6 <_ZN7TwoWire15endTransmissionEv.constprop.60>
    44a8:	88 23       	and	r24, r24
    44aa:	09 f4       	brne	.+2      	; 0x44ae <_ZN6iDryer7getDataEv.constprop.51+0x1d2>
    44ac:	d9 c0       	rjmp	.+434    	; 0x4660 <_ZN6iDryer7getDataEv.constprop.51+0x384>
    44ae:	60 e0       	ldi	r22, 0x00	; 0
    44b0:	70 e0       	ldi	r23, 0x00	; 0
    44b2:	cb 01       	movw	r24, r22
    44b4:	20 91 a2 03 	lds	r18, 0x03A2	; 0x8003a2 <iDryer+0x8>
    44b8:	30 91 a3 03 	lds	r19, 0x03A3	; 0x8003a3 <iDryer+0x9>
    44bc:	40 91 a4 03 	lds	r20, 0x03A4	; 0x8003a4 <iDryer+0xa>
    44c0:	50 91 a5 03 	lds	r21, 0x03A5	; 0x8003a5 <iDryer+0xb>
    44c4:	0e 94 fd 3b 	call	0x77fa	; 0x77fa <__addsf3>
    44c8:	20 e0       	ldi	r18, 0x00	; 0
    44ca:	30 e0       	ldi	r19, 0x00	; 0
    44cc:	40 e0       	ldi	r20, 0x00	; 0
    44ce:	5f e3       	ldi	r21, 0x3F	; 63
    44d0:	0e 94 cd 3d 	call	0x7b9a	; 0x7b9a <__mulsf3>
    44d4:	6b 01       	movw	r12, r22
    44d6:	7c 01       	movw	r14, r24
    44d8:	c0 92 a2 03 	sts	0x03A2, r12	; 0x8003a2 <iDryer+0x8>
    44dc:	d0 92 a3 03 	sts	0x03A3, r13	; 0x8003a3 <iDryer+0x9>
    44e0:	e0 92 a4 03 	sts	0x03A4, r14	; 0x8003a4 <iDryer+0xa>
    44e4:	f0 92 a5 03 	sts	0x03A5, r15	; 0x8003a5 <iDryer+0xb>
    44e8:	60 91 9a 03 	lds	r22, 0x039A	; 0x80039a <iDryer>
    44ec:	70 91 9b 03 	lds	r23, 0x039B	; 0x80039b <iDryer+0x1>
    44f0:	80 91 9c 03 	lds	r24, 0x039C	; 0x80039c <iDryer+0x2>
    44f4:	90 91 9d 03 	lds	r25, 0x039D	; 0x80039d <iDryer+0x3>
    44f8:	0e 94 e0 3c 	call	0x79c0	; 0x79c0 <__fixsfsi>
    44fc:	eb 01       	movw	r28, r22
    44fe:	60 91 c5 03 	lds	r22, 0x03C5	; 0x8003c5 <iDryer+0x2b>
    4502:	70 91 c6 03 	lds	r23, 0x03C6	; 0x8003c6 <iDryer+0x2c>
    4506:	80 91 c7 03 	lds	r24, 0x03C7	; 0x8003c7 <iDryer+0x2d>
    450a:	90 91 c8 03 	lds	r25, 0x03C8	; 0x8003c8 <iDryer+0x2e>
    450e:	0e 94 e0 3c 	call	0x79c0	; 0x79c0 <__fixsfsi>
    4512:	c6 17       	cp	r28, r22
    4514:	d7 07       	cpc	r29, r23
    4516:	59 f5       	brne	.+86     	; 0x456e <_ZN6iDryer7getDataEv.constprop.51+0x292>
    4518:	60 91 9e 03 	lds	r22, 0x039E	; 0x80039e <iDryer+0x4>
    451c:	70 91 9f 03 	lds	r23, 0x039F	; 0x80039f <iDryer+0x5>
    4520:	80 91 a0 03 	lds	r24, 0x03A0	; 0x8003a0 <iDryer+0x6>
    4524:	90 91 a1 03 	lds	r25, 0x03A1	; 0x8003a1 <iDryer+0x7>
    4528:	0e 94 e0 3c 	call	0x79c0	; 0x79c0 <__fixsfsi>
    452c:	eb 01       	movw	r28, r22
    452e:	60 91 c9 03 	lds	r22, 0x03C9	; 0x8003c9 <iDryer+0x2f>
    4532:	70 91 ca 03 	lds	r23, 0x03CA	; 0x8003ca <iDryer+0x30>
    4536:	80 91 cb 03 	lds	r24, 0x03CB	; 0x8003cb <iDryer+0x31>
    453a:	90 91 cc 03 	lds	r25, 0x03CC	; 0x8003cc <iDryer+0x32>
    453e:	0e 94 e0 3c 	call	0x79c0	; 0x79c0 <__fixsfsi>
    4542:	c6 17       	cp	r28, r22
    4544:	d7 07       	cpc	r29, r23
    4546:	99 f4       	brne	.+38     	; 0x456e <_ZN6iDryer7getDataEv.constprop.51+0x292>
    4548:	c7 01       	movw	r24, r14
    454a:	b6 01       	movw	r22, r12
    454c:	0e 94 e0 3c 	call	0x79c0	; 0x79c0 <__fixsfsi>
    4550:	eb 01       	movw	r28, r22
    4552:	60 91 cd 03 	lds	r22, 0x03CD	; 0x8003cd <iDryer+0x33>
    4556:	70 91 ce 03 	lds	r23, 0x03CE	; 0x8003ce <iDryer+0x34>
    455a:	80 91 cf 03 	lds	r24, 0x03CF	; 0x8003cf <iDryer+0x35>
    455e:	90 91 d0 03 	lds	r25, 0x03D0	; 0x8003d0 <iDryer+0x36>
    4562:	0e 94 e0 3c 	call	0x79c0	; 0x79c0 <__fixsfsi>
    4566:	c6 17       	cp	r28, r22
    4568:	d7 07       	cpc	r29, r23
    456a:	09 f4       	brne	.+2      	; 0x456e <_ZN6iDryer7getDataEv.constprop.51+0x292>
    456c:	56 c1       	rjmp	.+684    	; 0x481a <_ZN6iDryer7getDataEv.constprop.51+0x53e>
    456e:	0e 94 16 0b 	call	0x162c	; 0x162c <millis>
    4572:	00 91 41 03 	lds	r16, 0x0341	; 0x800341 <screenTime>
    4576:	10 91 42 03 	lds	r17, 0x0342	; 0x800342 <screenTime+0x1>
    457a:	20 91 43 03 	lds	r18, 0x0343	; 0x800343 <screenTime+0x2>
    457e:	30 91 44 03 	lds	r19, 0x0344	; 0x800344 <screenTime+0x3>
    4582:	60 1b       	sub	r22, r16
    4584:	71 0b       	sbc	r23, r17
    4586:	82 0b       	sbc	r24, r18
    4588:	93 0b       	sbc	r25, r19
    458a:	69 38       	cpi	r22, 0x89	; 137
    458c:	73 41       	sbci	r23, 0x13	; 19
    458e:	81 05       	cpc	r24, r1
    4590:	91 05       	cpc	r25, r1
    4592:	08 f4       	brcc	.+2      	; 0x4596 <_ZN6iDryer7getDataEv.constprop.51+0x2ba>
    4594:	42 c1       	rjmp	.+644    	; 0x481a <_ZN6iDryer7getDataEv.constprop.51+0x53e>
    4596:	0e 94 16 0b 	call	0x162c	; 0x162c <millis>
    459a:	60 93 41 03 	sts	0x0341, r22	; 0x800341 <screenTime>
    459e:	70 93 42 03 	sts	0x0342, r23	; 0x800342 <screenTime+0x1>
    45a2:	80 93 43 03 	sts	0x0343, r24	; 0x800343 <screenTime+0x2>
    45a6:	90 93 44 03 	sts	0x0344, r25	; 0x800344 <screenTime+0x3>
    45aa:	81 e0       	ldi	r24, 0x01	; 1
    45ac:	80 93 b3 03 	sts	0x03B3, r24	; 0x8003b3 <iDryer+0x19>
    45b0:	8b e2       	ldi	r24, 0x2B	; 43
    45b2:	ea e9       	ldi	r30, 0x9A	; 154
    45b4:	f3 e0       	ldi	r31, 0x03	; 3
    45b6:	a5 ec       	ldi	r26, 0xC5	; 197
    45b8:	b3 e0       	ldi	r27, 0x03	; 3
    45ba:	01 90       	ld	r0, Z+
    45bc:	0d 92       	st	X+, r0
    45be:	8a 95       	dec	r24
    45c0:	e1 f7       	brne	.-8      	; 0x45ba <_ZN6iDryer7getDataEv.constprop.51+0x2de>
    45c2:	c0 90 9e 03 	lds	r12, 0x039E	; 0x80039e <iDryer+0x4>
    45c6:	d0 90 9f 03 	lds	r13, 0x039F	; 0x80039f <iDryer+0x5>
    45ca:	e0 90 a0 03 	lds	r14, 0x03A0	; 0x8003a0 <iDryer+0x6>
    45ce:	f0 90 a1 03 	lds	r15, 0x03A1	; 0x8003a1 <iDryer+0x7>
    45d2:	60 91 ae 03 	lds	r22, 0x03AE	; 0x8003ae <iDryer+0x14>
    45d6:	70 e0       	ldi	r23, 0x00	; 0
    45d8:	90 e0       	ldi	r25, 0x00	; 0
    45da:	80 e0       	ldi	r24, 0x00	; 0
    45dc:	0e 94 18 3d 	call	0x7a30	; 0x7a30 <__floatsisf>
    45e0:	9b 01       	movw	r18, r22
    45e2:	ac 01       	movw	r20, r24
    45e4:	c7 01       	movw	r24, r14
    45e6:	b6 01       	movw	r22, r12
    45e8:	0e 94 c8 3d 	call	0x7b90	; 0x7b90 <__gesf2>
    45ec:	18 16       	cp	r1, r24
    45ee:	3c f4       	brge	.+14     	; 0x45fe <_ZN6iDryer7getDataEv.constprop.51+0x322>
    45f0:	80 91 b4 03 	lds	r24, 0x03B4	; 0x8003b4 <iDryer+0x1a>
    45f4:	81 11       	cpse	r24, r1
    45f6:	03 c0       	rjmp	.+6      	; 0x45fe <_ZN6iDryer7getDataEv.constprop.51+0x322>
    45f8:	81 e0       	ldi	r24, 0x01	; 1
    45fa:	80 93 b4 03 	sts	0x03B4, r24	; 0x8003b4 <iDryer+0x1a>
    45fe:	80 90 9a 03 	lds	r8, 0x039A	; 0x80039a <iDryer>
    4602:	90 90 9b 03 	lds	r9, 0x039B	; 0x80039b <iDryer+0x1>
    4606:	a0 90 9c 03 	lds	r10, 0x039C	; 0x80039c <iDryer+0x2>
    460a:	b0 90 9d 03 	lds	r11, 0x039D	; 0x80039d <iDryer+0x3>
    460e:	20 e0       	ldi	r18, 0x00	; 0
    4610:	30 e0       	ldi	r19, 0x00	; 0
    4612:	40 e8       	ldi	r20, 0x80	; 128
    4614:	5f e3       	ldi	r21, 0x3F	; 63
    4616:	c5 01       	movw	r24, r10
    4618:	b4 01       	movw	r22, r8
    461a:	0e 94 69 3c 	call	0x78d2	; 0x78d2 <__cmpsf2>
    461e:	87 ff       	sbrs	r24, 7
    4620:	ff c0       	rjmp	.+510    	; 0x4820 <_ZN6iDryer7getDataEv.constprop.51+0x544>
    4622:	8a e1       	ldi	r24, 0x1A	; 26
    4624:	0e 94 49 21 	call	0x4292	; 0x4292 <_Z8setErrorh>
    4628:	80 e0       	ldi	r24, 0x00	; 0
    462a:	df 91       	pop	r29
    462c:	cf 91       	pop	r28
    462e:	1f 91       	pop	r17
    4630:	0f 91       	pop	r16
    4632:	ff 90       	pop	r15
    4634:	ef 90       	pop	r14
    4636:	df 90       	pop	r13
    4638:	cf 90       	pop	r12
    463a:	bf 90       	pop	r11
    463c:	af 90       	pop	r10
    463e:	9f 90       	pop	r9
    4640:	8f 90       	pop	r8
    4642:	7f 90       	pop	r7
    4644:	6f 90       	pop	r6
    4646:	5f 90       	pop	r5
    4648:	4f 90       	pop	r4
    464a:	08 95       	ret
    464c:	9f 01       	movw	r18, r30
    464e:	66 ce       	rjmp	.-820    	; 0x431c <_ZN6iDryer7getDataEv.constprop.51+0x40>
    4650:	ea e1       	ldi	r30, 0x1A	; 26
    4652:	f2 e0       	ldi	r31, 0x02	; 2
    4654:	85 91       	lpm	r24, Z+
    4656:	94 91       	lpm	r25, Z
    4658:	60 e0       	ldi	r22, 0x00	; 0
    465a:	70 e0       	ldi	r23, 0x00	; 0
    465c:	cb 01       	movw	r24, r22
    465e:	c8 ce       	rjmp	.-624    	; 0x43f0 <_ZN6iDryer7getDataEv.constprop.51+0x114>
    4660:	62 e0       	ldi	r22, 0x02	; 2
    4662:	70 e0       	ldi	r23, 0x00	; 0
    4664:	80 91 70 06 	lds	r24, 0x0670	; 0x800670 <bme>
    4668:	90 91 71 06 	lds	r25, 0x0671	; 0x800671 <bme+0x1>
    466c:	0e 94 ef 1b 	call	0x37de	; 0x37de <_ZN7TwoWire11requestFromEii.constprop.63>
    4670:	0e 94 40 07 	call	0xe80	; 0xe80 <_ZN7TwoWire4readEv.constprop.62>
    4674:	c8 2f       	mov	r28, r24
    4676:	0e 94 40 07 	call	0xe80	; 0xe80 <_ZN7TwoWire4readEv.constprop.62>
    467a:	c1 2c       	mov	r12, r1
    467c:	dc 2e       	mov	r13, r28
    467e:	c8 2a       	or	r12, r24
    4680:	d9 2a       	or	r13, r25
    4682:	c1 14       	cp	r12, r1
    4684:	20 e8       	ldi	r18, 0x80	; 128
    4686:	d2 06       	cpc	r13, r18
    4688:	09 f4       	brne	.+2      	; 0x468c <_ZN6iDryer7getDataEv.constprop.51+0x3b0>
    468a:	11 cf       	rjmp	.-478    	; 0x44ae <_ZN6iDryer7getDataEv.constprop.51+0x1d2>
    468c:	0e 94 32 1c 	call	0x3864	; 0x3864 <_ZN11GyverBME28011readTempIntEv.constprop.57>
    4690:	4b 01       	movw	r8, r22
    4692:	5c 01       	movw	r10, r24
    4694:	2c e2       	ldi	r18, 0x2C	; 44
    4696:	92 1a       	sub	r9, r18
    4698:	21 e0       	ldi	r18, 0x01	; 1
    469a:	a2 0a       	sbc	r10, r18
    469c:	b1 08       	sbc	r11, r1
    469e:	f1 2c       	mov	r15, r1
    46a0:	e1 2c       	mov	r14, r1
    46a2:	3e e0       	ldi	r19, 0x0E	; 14
    46a4:	cc 0c       	add	r12, r12
    46a6:	dd 1c       	adc	r13, r13
    46a8:	ee 1c       	adc	r14, r14
    46aa:	ff 1c       	adc	r15, r15
    46ac:	3a 95       	dec	r19
    46ae:	d1 f7       	brne	.-12     	; 0x46a4 <_ZN6iDryer7getDataEv.constprop.51+0x3c8>
    46b0:	80 91 94 06 	lds	r24, 0x0694	; 0x800694 <bme+0x24>
    46b4:	90 91 95 06 	lds	r25, 0x0695	; 0x800695 <bme+0x25>
    46b8:	09 2e       	mov	r0, r25
    46ba:	00 0c       	add	r0, r0
    46bc:	aa 0b       	sbc	r26, r26
    46be:	bb 0b       	sbc	r27, r27
    46c0:	44 e1       	ldi	r20, 0x14	; 20
    46c2:	88 0f       	add	r24, r24
    46c4:	99 1f       	adc	r25, r25
    46c6:	aa 1f       	adc	r26, r26
    46c8:	bb 1f       	adc	r27, r27
    46ca:	4a 95       	dec	r20
    46cc:	d1 f7       	brne	.-12     	; 0x46c2 <_ZN6iDryer7getDataEv.constprop.51+0x3e6>
    46ce:	c8 1a       	sub	r12, r24
    46d0:	d9 0a       	sbc	r13, r25
    46d2:	ea 0a       	sbc	r14, r26
    46d4:	fb 0a       	sbc	r15, r27
    46d6:	a0 91 96 06 	lds	r26, 0x0696	; 0x800696 <bme+0x26>
    46da:	b0 91 97 06 	lds	r27, 0x0697	; 0x800697 <bme+0x27>
    46de:	a5 01       	movw	r20, r10
    46e0:	94 01       	movw	r18, r8
    46e2:	0e 94 63 3b 	call	0x76c6	; 0x76c6 <__mulshisi3>
    46e6:	c6 1a       	sub	r12, r22
    46e8:	d7 0a       	sbc	r13, r23
    46ea:	e8 0a       	sbc	r14, r24
    46ec:	f9 0a       	sbc	r15, r25
    46ee:	80 e4       	ldi	r24, 0x40	; 64
    46f0:	d8 0e       	add	r13, r24
    46f2:	e1 1c       	adc	r14, r1
    46f4:	f1 1c       	adc	r15, r1
    46f6:	6f e0       	ldi	r22, 0x0F	; 15
    46f8:	f5 94       	asr	r15
    46fa:	e7 94       	ror	r14
    46fc:	d7 94       	ror	r13
    46fe:	c7 94       	ror	r12
    4700:	6a 95       	dec	r22
    4702:	d1 f7       	brne	.-12     	; 0x46f8 <_ZN6iDryer7getDataEv.constprop.51+0x41c>
    4704:	a0 91 93 06 	lds	r26, 0x0693	; 0x800693 <bme+0x23>
    4708:	b0 e0       	ldi	r27, 0x00	; 0
    470a:	0e 94 58 3b 	call	0x76b0	; 0x76b0 <__muluhisi3>
    470e:	2b 01       	movw	r4, r22
    4710:	3c 01       	movw	r6, r24
    4712:	7b e0       	ldi	r23, 0x0B	; 11
    4714:	75 94       	asr	r7
    4716:	67 94       	ror	r6
    4718:	57 94       	ror	r5
    471a:	47 94       	ror	r4
    471c:	7a 95       	dec	r23
    471e:	d1 f7       	brne	.-12     	; 0x4714 <_ZN6iDryer7getDataEv.constprop.51+0x438>
    4720:	20 e8       	ldi	r18, 0x80	; 128
    4722:	52 0e       	add	r5, r18
    4724:	61 1c       	adc	r6, r1
    4726:	71 1c       	adc	r7, r1
    4728:	a0 91 98 06 	lds	r26, 0x0698	; 0x800698 <bme+0x28>
    472c:	0a 2e       	mov	r0, r26
    472e:	00 0c       	add	r0, r0
    4730:	bb 0b       	sbc	r27, r27
    4732:	94 01       	movw	r18, r8
    4734:	0e 94 63 3b 	call	0x76c6	; 0x76c6 <__mulshisi3>
    4738:	ea e0       	ldi	r30, 0x0A	; 10
    473a:	95 95       	asr	r25
    473c:	87 95       	ror	r24
    473e:	77 95       	ror	r23
    4740:	67 95       	ror	r22
    4742:	ea 95       	dec	r30
    4744:	d1 f7       	brne	.-12     	; 0x473a <_ZN6iDryer7getDataEv.constprop.51+0x45e>
    4746:	a3 01       	movw	r20, r6
    4748:	92 01       	movw	r18, r4
    474a:	0e 94 d3 3b 	call	0x77a6	; 0x77a6 <__mulsi3>
    474e:	9b 01       	movw	r18, r22
    4750:	ac 01       	movw	r20, r24
    4752:	fa e0       	ldi	r31, 0x0A	; 10
    4754:	55 95       	asr	r21
    4756:	47 95       	ror	r20
    4758:	37 95       	ror	r19
    475a:	27 95       	ror	r18
    475c:	fa 95       	dec	r31
    475e:	d1 f7       	brne	.-12     	; 0x4754 <_ZN6iDryer7getDataEv.constprop.51+0x478>
    4760:	40 5e       	subi	r20, 0xE0	; 224
    4762:	5f 4f       	sbci	r21, 0xFF	; 255
    4764:	a0 91 91 06 	lds	r26, 0x0691	; 0x800691 <bme+0x21>
    4768:	b0 91 92 06 	lds	r27, 0x0692	; 0x800692 <bme+0x22>
    476c:	0e 94 63 3b 	call	0x76c6	; 0x76c6 <__mulshisi3>
    4770:	70 5e       	subi	r23, 0xE0	; 224
    4772:	8f 4f       	sbci	r24, 0xFF	; 255
    4774:	9f 4f       	sbci	r25, 0xFF	; 255
    4776:	ae e0       	ldi	r26, 0x0E	; 14
    4778:	95 95       	asr	r25
    477a:	87 95       	ror	r24
    477c:	77 95       	ror	r23
    477e:	67 95       	ror	r22
    4780:	aa 95       	dec	r26
    4782:	d1 f7       	brne	.-12     	; 0x4778 <_ZN6iDryer7getDataEv.constprop.51+0x49c>
    4784:	a7 01       	movw	r20, r14
    4786:	96 01       	movw	r18, r12
    4788:	0e 94 d3 3b 	call	0x77a6	; 0x77a6 <__mulsi3>
    478c:	6b 01       	movw	r12, r22
    478e:	7c 01       	movw	r14, r24
    4790:	bf e0       	ldi	r27, 0x0F	; 15
    4792:	95 95       	asr	r25
    4794:	87 95       	ror	r24
    4796:	77 95       	ror	r23
    4798:	67 95       	ror	r22
    479a:	ba 95       	dec	r27
    479c:	d1 f7       	brne	.-12     	; 0x4792 <_ZN6iDryer7getDataEv.constprop.51+0x4b6>
    479e:	9b 01       	movw	r18, r22
    47a0:	ac 01       	movw	r20, r24
    47a2:	0e 94 d3 3b 	call	0x77a6	; 0x77a6 <__mulsi3>
    47a6:	9b 01       	movw	r18, r22
    47a8:	ac 01       	movw	r20, r24
    47aa:	c7 e0       	ldi	r28, 0x07	; 7
    47ac:	55 95       	asr	r21
    47ae:	47 95       	ror	r20
    47b0:	37 95       	ror	r19
    47b2:	27 95       	ror	r18
    47b4:	ca 95       	dec	r28
    47b6:	d1 f7       	brne	.-12     	; 0x47ac <_ZN6iDryer7getDataEv.constprop.51+0x4d0>
    47b8:	a0 91 90 06 	lds	r26, 0x0690	; 0x800690 <bme+0x20>
    47bc:	b0 e0       	ldi	r27, 0x00	; 0
    47be:	0e 94 58 3b 	call	0x76b0	; 0x76b0 <__muluhisi3>
    47c2:	d4 e0       	ldi	r29, 0x04	; 4
    47c4:	95 95       	asr	r25
    47c6:	87 95       	ror	r24
    47c8:	77 95       	ror	r23
    47ca:	67 95       	ror	r22
    47cc:	da 95       	dec	r29
    47ce:	d1 f7       	brne	.-12     	; 0x47c4 <_ZN6iDryer7getDataEv.constprop.51+0x4e8>
    47d0:	c6 1a       	sub	r12, r22
    47d2:	d7 0a       	sbc	r13, r23
    47d4:	e8 0a       	sbc	r14, r24
    47d6:	f9 0a       	sbc	r15, r25
    47d8:	f7 fe       	sbrs	r15, 7
    47da:	03 c0       	rjmp	.+6      	; 0x47e2 <_ZN6iDryer7getDataEv.constprop.51+0x506>
    47dc:	c1 2c       	mov	r12, r1
    47de:	d1 2c       	mov	r13, r1
    47e0:	76 01       	movw	r14, r12
    47e2:	c7 01       	movw	r24, r14
    47e4:	b6 01       	movw	r22, r12
    47e6:	61 30       	cpi	r22, 0x01	; 1
    47e8:	71 05       	cpc	r23, r1
    47ea:	81 05       	cpc	r24, r1
    47ec:	29 e1       	ldi	r18, 0x19	; 25
    47ee:	92 07       	cpc	r25, r18
    47f0:	24 f0       	brlt	.+8      	; 0x47fa <_ZN6iDryer7getDataEv.constprop.51+0x51e>
    47f2:	60 e0       	ldi	r22, 0x00	; 0
    47f4:	70 e0       	ldi	r23, 0x00	; 0
    47f6:	80 e0       	ldi	r24, 0x00	; 0
    47f8:	99 e1       	ldi	r25, 0x19	; 25
    47fa:	2c e0       	ldi	r18, 0x0C	; 12
    47fc:	95 95       	asr	r25
    47fe:	87 95       	ror	r24
    4800:	77 95       	ror	r23
    4802:	67 95       	ror	r22
    4804:	2a 95       	dec	r18
    4806:	d1 f7       	brne	.-12     	; 0x47fc <_ZN6iDryer7getDataEv.constprop.51+0x520>
    4808:	0e 94 18 3d 	call	0x7a30	; 0x7a30 <__floatsisf>
    480c:	20 e0       	ldi	r18, 0x00	; 0
    480e:	30 e0       	ldi	r19, 0x00	; 0
    4810:	40 e8       	ldi	r20, 0x80	; 128
    4812:	5a e3       	ldi	r21, 0x3A	; 58
    4814:	0e 94 cd 3d 	call	0x7b9a	; 0x7b9a <__mulsf3>
    4818:	4d ce       	rjmp	.-870    	; 0x44b4 <_ZN6iDryer7getDataEv.constprop.51+0x1d8>
    481a:	10 92 b3 03 	sts	0x03B3, r1	; 0x8003b3 <iDryer+0x19>
    481e:	d1 ce       	rjmp	.-606    	; 0x45c2 <_ZN6iDryer7getDataEv.constprop.51+0x2e6>
    4820:	20 e0       	ldi	r18, 0x00	; 0
    4822:	30 e0       	ldi	r19, 0x00	; 0
    4824:	42 e0       	ldi	r20, 0x02	; 2
    4826:	53 e4       	ldi	r21, 0x43	; 67
    4828:	c5 01       	movw	r24, r10
    482a:	b4 01       	movw	r22, r8
    482c:	0e 94 c8 3d 	call	0x7b90	; 0x7b90 <__gesf2>
    4830:	18 16       	cp	r1, r24
    4832:	14 f4       	brge	.+4      	; 0x4838 <_ZN6iDryer7getDataEv.constprop.51+0x55c>
    4834:	8b e1       	ldi	r24, 0x1B	; 27
    4836:	f6 ce       	rjmp	.-532    	; 0x4624 <_ZN6iDryer7getDataEv.constprop.51+0x348>
    4838:	20 e0       	ldi	r18, 0x00	; 0
    483a:	30 e0       	ldi	r19, 0x00	; 0
    483c:	40 e8       	ldi	r20, 0x80	; 128
    483e:	5f e3       	ldi	r21, 0x3F	; 63
    4840:	c7 01       	movw	r24, r14
    4842:	b6 01       	movw	r22, r12
    4844:	0e 94 69 3c 	call	0x78d2	; 0x78d2 <__cmpsf2>
    4848:	87 ff       	sbrs	r24, 7
    484a:	45 c0       	rjmp	.+138    	; 0x48d6 <_ZN6iDryer7getDataEv.constprop.51+0x5fa>
    484c:	0e 94 16 0b 	call	0x162c	; 0x162c <millis>
    4850:	00 91 aa 03 	lds	r16, 0x03AA	; 0x8003aa <iDryer+0x10>
    4854:	10 91 ab 03 	lds	r17, 0x03AB	; 0x8003ab <iDryer+0x11>
    4858:	20 91 ac 03 	lds	r18, 0x03AC	; 0x8003ac <iDryer+0x12>
    485c:	30 91 ad 03 	lds	r19, 0x03AD	; 0x8003ad <iDryer+0x13>
    4860:	60 1b       	sub	r22, r16
    4862:	71 0b       	sbc	r23, r17
    4864:	82 0b       	sbc	r24, r18
    4866:	93 0b       	sbc	r25, r19
    4868:	69 3e       	cpi	r22, 0xE9	; 233
    486a:	73 40       	sbci	r23, 0x03	; 3
    486c:	81 05       	cpc	r24, r1
    486e:	91 05       	cpc	r25, r1
    4870:	50 f0       	brcs	.+20     	; 0x4886 <_ZN6iDryer7getDataEv.constprop.51+0x5aa>
    4872:	0e 94 16 0b 	call	0x162c	; 0x162c <millis>
    4876:	60 93 aa 03 	sts	0x03AA, r22	; 0x8003aa <iDryer+0x10>
    487a:	70 93 ab 03 	sts	0x03AB, r23	; 0x8003ab <iDryer+0x11>
    487e:	80 93 ac 03 	sts	0x03AC, r24	; 0x8003ac <iDryer+0x12>
    4882:	90 93 ad 03 	sts	0x03AD, r25	; 0x8003ad <iDryer+0x13>
    4886:	0e 94 16 0b 	call	0x162c	; 0x162c <millis>
    488a:	00 91 aa 03 	lds	r16, 0x03AA	; 0x8003aa <iDryer+0x10>
    488e:	10 91 ab 03 	lds	r17, 0x03AB	; 0x8003ab <iDryer+0x11>
    4892:	20 91 ac 03 	lds	r18, 0x03AC	; 0x8003ac <iDryer+0x12>
    4896:	30 91 ad 03 	lds	r19, 0x03AD	; 0x8003ad <iDryer+0x13>
    489a:	60 1b       	sub	r22, r16
    489c:	71 0b       	sbc	r23, r17
    489e:	82 0b       	sbc	r24, r18
    48a0:	93 0b       	sbc	r25, r19
    48a2:	69 35       	cpi	r22, 0x59	; 89
    48a4:	72 40       	sbci	r23, 0x02	; 2
    48a6:	81 05       	cpc	r24, r1
    48a8:	91 05       	cpc	r25, r1
    48aa:	a8 f0       	brcs	.+42     	; 0x48d6 <_ZN6iDryer7getDataEv.constprop.51+0x5fa>
    48ac:	0e 94 16 0b 	call	0x162c	; 0x162c <millis>
    48b0:	00 91 aa 03 	lds	r16, 0x03AA	; 0x8003aa <iDryer+0x10>
    48b4:	10 91 ab 03 	lds	r17, 0x03AB	; 0x8003ab <iDryer+0x11>
    48b8:	20 91 ac 03 	lds	r18, 0x03AC	; 0x8003ac <iDryer+0x12>
    48bc:	30 91 ad 03 	lds	r19, 0x03AD	; 0x8003ad <iDryer+0x13>
    48c0:	60 1b       	sub	r22, r16
    48c2:	71 0b       	sbc	r23, r17
    48c4:	82 0b       	sbc	r24, r18
    48c6:	93 0b       	sbc	r25, r19
    48c8:	68 3e       	cpi	r22, 0xE8	; 232
    48ca:	73 40       	sbci	r23, 0x03	; 3
    48cc:	81 05       	cpc	r24, r1
    48ce:	91 05       	cpc	r25, r1
    48d0:	10 f4       	brcc	.+4      	; 0x48d6 <_ZN6iDryer7getDataEv.constprop.51+0x5fa>
    48d2:	8c e1       	ldi	r24, 0x1C	; 28
    48d4:	a7 ce       	rjmp	.-690    	; 0x4624 <_ZN6iDryer7getDataEv.constprop.51+0x348>
    48d6:	20 e0       	ldi	r18, 0x00	; 0
    48d8:	30 e0       	ldi	r19, 0x00	; 0
    48da:	42 e0       	ldi	r20, 0x02	; 2
    48dc:	53 e4       	ldi	r21, 0x43	; 67
    48de:	60 91 9e 03 	lds	r22, 0x039E	; 0x80039e <iDryer+0x4>
    48e2:	70 91 9f 03 	lds	r23, 0x039F	; 0x80039f <iDryer+0x5>
    48e6:	80 91 a0 03 	lds	r24, 0x03A0	; 0x8003a0 <iDryer+0x6>
    48ea:	90 91 a1 03 	lds	r25, 0x03A1	; 0x8003a1 <iDryer+0x7>
    48ee:	0e 94 c8 3d 	call	0x7b90	; 0x7b90 <__gesf2>
    48f2:	18 16       	cp	r1, r24
    48f4:	14 f4       	brge	.+4      	; 0x48fa <_ZN6iDryer7getDataEv.constprop.51+0x61e>
    48f6:	8d e1       	ldi	r24, 0x1D	; 29
    48f8:	95 ce       	rjmp	.-726    	; 0x4624 <_ZN6iDryer7getDataEv.constprop.51+0x348>
    48fa:	81 e0       	ldi	r24, 0x01	; 1
    48fc:	96 ce       	rjmp	.-724    	; 0x462a <_ZN6iDryer7getDataEv.constprop.51+0x34e>

000048fe <_Z18getdataAndSetpiontv>:
    48fe:	4f 92       	push	r4
    4900:	5f 92       	push	r5
    4902:	6f 92       	push	r6
    4904:	7f 92       	push	r7
    4906:	8f 92       	push	r8
    4908:	9f 92       	push	r9
    490a:	af 92       	push	r10
    490c:	bf 92       	push	r11
    490e:	cf 92       	push	r12
    4910:	df 92       	push	r13
    4912:	ef 92       	push	r14
    4914:	ff 92       	push	r15
    4916:	0f 93       	push	r16
    4918:	1f 93       	push	r17
    491a:	cf 93       	push	r28
    491c:	df 93       	push	r29
    491e:	00 d0       	rcall	.+0      	; 0x4920 <_Z18getdataAndSetpiontv+0x22>
    4920:	00 d0       	rcall	.+0      	; 0x4922 <_Z18getdataAndSetpiontv+0x24>
    4922:	cd b7       	in	r28, 0x3d	; 61
    4924:	de b7       	in	r29, 0x3e	; 62
    4926:	0e 94 6e 21 	call	0x42dc	; 0x42dc <_ZN6iDryer7getDataEv.constprop.51>
    492a:	81 11       	cpse	r24, r1
    492c:	10 c0       	rjmp	.+32     	; 0x494e <_Z18getdataAndSetpiontv+0x50>
    492e:	80 91 a4 02 	lds	r24, 0x02A4	; 0x8002a4 <ERROR_COUNTER>
    4932:	8f 5f       	subi	r24, 0xFF	; 255
    4934:	80 93 a4 02 	sts	0x02A4, r24	; 0x8002a4 <ERROR_COUNTER>
    4938:	8b 30       	cpi	r24, 0x0B	; 11
    493a:	48 f0       	brcs	.+18     	; 0x494e <_Z18getdataAndSetpiontv+0x50>
    493c:	80 e0       	ldi	r24, 0x00	; 0
    493e:	0e 94 49 21 	call	0x4292	; 0x4292 <_Z8setErrorh>
    4942:	86 e0       	ldi	r24, 0x06	; 6
    4944:	90 e0       	ldi	r25, 0x00	; 0
    4946:	90 93 02 01 	sts	0x0102, r25	; 0x800102 <state+0x1>
    494a:	80 93 01 01 	sts	0x0101, r24	; 0x800101 <state>
    494e:	0e 94 16 0b 	call	0x162c	; 0x162c <millis>
    4952:	00 91 eb 02 	lds	r16, 0x02EB	; 0x8002eb <scaleTimer>
    4956:	10 91 ec 02 	lds	r17, 0x02EC	; 0x8002ec <scaleTimer+0x1>
    495a:	20 91 ed 02 	lds	r18, 0x02ED	; 0x8002ed <scaleTimer+0x2>
    495e:	30 91 ee 02 	lds	r19, 0x02EE	; 0x8002ee <scaleTimer+0x3>
    4962:	60 1b       	sub	r22, r16
    4964:	71 0b       	sbc	r23, r17
    4966:	82 0b       	sbc	r24, r18
    4968:	93 0b       	sbc	r25, r19
    496a:	69 38       	cpi	r22, 0x89	; 137
    496c:	73 41       	sbci	r23, 0x13	; 19
    496e:	81 05       	cpc	r24, r1
    4970:	91 05       	cpc	r25, r1
    4972:	a0 f0       	brcs	.+40     	; 0x499c <_Z18getdataAndSetpiontv+0x9e>
    4974:	0e 94 16 0b 	call	0x162c	; 0x162c <millis>
    4978:	60 93 eb 02 	sts	0x02EB, r22	; 0x8002eb <scaleTimer>
    497c:	70 93 ec 02 	sts	0x02EC, r23	; 0x8002ec <scaleTimer+0x1>
    4980:	80 93 ed 02 	sts	0x02ED, r24	; 0x8002ed <scaleTimer+0x2>
    4984:	90 93 ee 02 	sts	0x02EE, r25	; 0x8002ee <scaleTimer+0x3>
    4988:	80 91 00 01 	lds	r24, 0x0100	; 0x800100 <isScaleShow>
    498c:	91 e0       	ldi	r25, 0x01	; 1
    498e:	89 27       	eor	r24, r25
    4990:	80 93 00 01 	sts	0x0100, r24	; 0x800100 <isScaleShow>
    4994:	88 23       	and	r24, r24
    4996:	a1 f1       	breq	.+104    	; 0x4a00 <_Z18getdataAndSetpiontv+0x102>
    4998:	0e 94 a1 20 	call	0x4142	; 0x4142 <_Z9scaleShowv>
    499c:	80 90 9e 03 	lds	r8, 0x039E	; 0x80039e <iDryer+0x4>
    49a0:	90 90 9f 03 	lds	r9, 0x039F	; 0x80039f <iDryer+0x5>
    49a4:	a0 90 a0 03 	lds	r10, 0x03A0	; 0x8003a0 <iDryer+0x6>
    49a8:	b0 90 a1 03 	lds	r11, 0x03A1	; 0x8003a1 <iDryer+0x7>
    49ac:	00 91 ae 03 	lds	r16, 0x03AE	; 0x8003ae <iDryer+0x14>
    49b0:	10 e0       	ldi	r17, 0x00	; 0
    49b2:	b8 01       	movw	r22, r16
    49b4:	01 2e       	mov	r0, r17
    49b6:	00 0c       	add	r0, r0
    49b8:	88 0b       	sbc	r24, r24
    49ba:	99 0b       	sbc	r25, r25
    49bc:	0e 94 18 3d 	call	0x7a30	; 0x7a30 <__floatsisf>
    49c0:	6b 01       	movw	r12, r22
    49c2:	7c 01       	movw	r14, r24
    49c4:	60 91 c4 03 	lds	r22, 0x03C4	; 0x8003c4 <iDryer+0x2a>
    49c8:	60 0f       	add	r22, r16
    49ca:	71 2f       	mov	r23, r17
    49cc:	71 1d       	adc	r23, r1
    49ce:	07 2e       	mov	r0, r23
    49d0:	00 0c       	add	r0, r0
    49d2:	88 0b       	sbc	r24, r24
    49d4:	99 0b       	sbc	r25, r25
    49d6:	0e 94 18 3d 	call	0x7a30	; 0x7a30 <__floatsisf>
    49da:	2b 01       	movw	r4, r22
    49dc:	3c 01       	movw	r6, r24
    49de:	a7 01       	movw	r20, r14
    49e0:	96 01       	movw	r18, r12
    49e2:	c5 01       	movw	r24, r10
    49e4:	b4 01       	movw	r22, r8
    49e6:	0e 94 69 3c 	call	0x78d2	; 0x78d2 <__cmpsf2>
    49ea:	87 ff       	sbrs	r24, 7
    49ec:	f1 c0       	rjmp	.+482    	; 0x4bd0 <_Z18getdataAndSetpiontv+0x2d2>
    49ee:	40 92 25 05 	sts	0x0525, r4	; 0x800525 <Setpoint>
    49f2:	50 92 26 05 	sts	0x0526, r5	; 0x800526 <Setpoint+0x1>
    49f6:	60 92 27 05 	sts	0x0527, r6	; 0x800527 <Setpoint+0x2>
    49fa:	70 92 28 05 	sts	0x0528, r7	; 0x800528 <Setpoint+0x3>
    49fe:	03 c1       	rjmp	.+518    	; 0x4c06 <_Z18getdataAndSetpiontv+0x308>
    4a00:	61 e1       	ldi	r22, 0x11	; 17
    4a02:	88 e0       	ldi	r24, 0x08	; 8
    4a04:	90 e0       	ldi	r25, 0x00	; 0
    4a06:	0e 94 0a 19 	call	0x3214	; 0x3214 <_Z3WDTjh>
    4a0a:	10 92 00 00 	sts	0x0000, r1	; 0x800000 <__TEXT_REGION_LENGTH__+0x7e0000>
    4a0e:	10 92 01 00 	sts	0x0001, r1	; 0x800001 <__TEXT_REGION_LENGTH__+0x7e0001>
    4a12:	10 92 02 00 	sts	0x0002, r1	; 0x800002 <__TEXT_REGION_LENGTH__+0x7e0002>
    4a16:	10 92 03 00 	sts	0x0003, r1	; 0x800003 <__TEXT_REGION_LENGTH__+0x7e0003>
    4a1a:	8e ed       	ldi	r24, 0xDE	; 222
    4a1c:	95 e0       	ldi	r25, 0x05	; 5
    4a1e:	0e 94 24 1f 	call	0x3e48	; 0x3e48 <u8g2_FirstPage>
    4a22:	50 e8       	ldi	r21, 0x80	; 128
    4a24:	65 2e       	mov	r6, r21
    4a26:	71 2c       	mov	r7, r1
    4a28:	61 e2       	ldi	r22, 0x21	; 33
    4a2a:	a6 2e       	mov	r10, r22
    4a2c:	62 e0       	ldi	r22, 0x02	; 2
    4a2e:	b6 2e       	mov	r11, r22
    4a30:	8e 01       	movw	r16, r28
    4a32:	0f 5f       	subi	r16, 0xFF	; 255
    4a34:	1f 4f       	sbci	r17, 0xFF	; 255
    4a36:	74 e3       	ldi	r23, 0x34	; 52
    4a38:	e7 2e       	mov	r14, r23
    4a3a:	72 e0       	ldi	r23, 0x02	; 2
    4a3c:	f7 2e       	mov	r15, r23
    4a3e:	0e 94 f1 13 	call	0x27e2	; 0x27e2 <u8g2_SetFont.constprop.87>
    4a42:	80 91 01 01 	lds	r24, 0x0101	; 0x800101 <state>
    4a46:	90 91 02 01 	lds	r25, 0x0102	; 0x800102 <state+0x1>
    4a4a:	55 24       	eor	r5, r5
    4a4c:	53 94       	inc	r5
    4a4e:	83 30       	cpi	r24, 0x03	; 3
    4a50:	91 05       	cpc	r25, r1
    4a52:	29 f0       	breq	.+10     	; 0x4a5e <_Z18getdataAndSetpiontv+0x160>
    4a54:	51 2c       	mov	r5, r1
    4a56:	04 97       	sbiw	r24, 0x04	; 4
    4a58:	11 f4       	brne	.+4      	; 0x4a5e <_Z18getdataAndSetpiontv+0x160>
    4a5a:	45 e0       	ldi	r20, 0x05	; 5
    4a5c:	54 2e       	mov	r5, r20
    4a5e:	c5 2c       	mov	r12, r5
    4a60:	d1 2c       	mov	r13, r1
    4a62:	cc 0c       	add	r12, r12
    4a64:	dd 1c       	adc	r13, r13
    4a66:	c6 01       	movw	r24, r12
    4a68:	85 56       	subi	r24, 0x65	; 101
    4a6a:	9b 4f       	sbci	r25, 0xFB	; 251
    4a6c:	6c 01       	movw	r12, r24
    4a6e:	0e 94 86 1a 	call	0x350c	; 0x350c <_Z13printMenuItemPKPKc>
    4a72:	4c 01       	movw	r8, r24
    4a74:	c6 01       	movw	r24, r12
    4a76:	0e 94 86 1a 	call	0x350c	; 0x350c <_Z13printMenuItemPKPKc>
    4a7a:	0e 94 84 15 	call	0x2b08	; 0x2b08 <u8g2_GetUTF8Width.constprop.95>
    4a7e:	93 01       	movw	r18, r6
    4a80:	28 1b       	sub	r18, r24
    4a82:	39 0b       	sbc	r19, r25
    4a84:	c9 01       	movw	r24, r18
    4a86:	a4 01       	movw	r20, r8
    4a88:	60 e1       	ldi	r22, 0x10	; 16
    4a8a:	70 e0       	ldi	r23, 0x00	; 0
    4a8c:	96 95       	lsr	r25
    4a8e:	87 95       	ror	r24
    4a90:	0e 94 8f 17 	call	0x2f1e	; 0x2f1e <_ZN4U8G28drawUTF8EjjPKc.constprop.146>
    4a94:	80 91 ae 03 	lds	r24, 0x03AE	; 0x8003ae <iDryer+0x14>
    4a98:	1f 92       	push	r1
    4a9a:	8f 93       	push	r24
    4a9c:	bf 92       	push	r11
    4a9e:	af 92       	push	r10
    4aa0:	1f 93       	push	r17
    4aa2:	0f 93       	push	r16
    4aa4:	0e 94 6d 3f 	call	0x7eda	; 0x7eda <sprintf>
    4aa8:	a8 01       	movw	r20, r16
    4aaa:	60 e1       	ldi	r22, 0x10	; 16
    4aac:	70 e0       	ldi	r23, 0x00	; 0
    4aae:	90 e0       	ldi	r25, 0x00	; 0
    4ab0:	80 e0       	ldi	r24, 0x00	; 0
    4ab2:	0e 94 8f 17 	call	0x2f1e	; 0x2f1e <_ZN4U8G28drawUTF8EjjPKc.constprop.146>
    4ab6:	0f 90       	pop	r0
    4ab8:	0f 90       	pop	r0
    4aba:	0f 90       	pop	r0
    4abc:	0f 90       	pop	r0
    4abe:	0f 90       	pop	r0
    4ac0:	0f 90       	pop	r0
    4ac2:	31 e0       	ldi	r19, 0x01	; 1
    4ac4:	53 12       	cpse	r5, r19
    4ac6:	6e c0       	rjmp	.+220    	; 0x4ba4 <_Z18getdataAndSetpiontv+0x2a6>
    4ac8:	80 91 b1 03 	lds	r24, 0x03B1	; 0x8003b1 <iDryer+0x17>
    4acc:	8f 93       	push	r24
    4ace:	80 91 b0 03 	lds	r24, 0x03B0	; 0x8003b0 <iDryer+0x16>
    4ad2:	8f 93       	push	r24
    4ad4:	ff 92       	push	r15
    4ad6:	ef 92       	push	r14
    4ad8:	1f 93       	push	r17
    4ada:	0f 93       	push	r16
    4adc:	0e 94 6d 3f 	call	0x7eda	; 0x7eda <sprintf>
    4ae0:	0f 90       	pop	r0
    4ae2:	0f 90       	pop	r0
    4ae4:	0f 90       	pop	r0
    4ae6:	0f 90       	pop	r0
    4ae8:	0f 90       	pop	r0
    4aea:	0f 90       	pop	r0
    4aec:	a8 01       	movw	r20, r16
    4aee:	60 e1       	ldi	r22, 0x10	; 16
    4af0:	70 e0       	ldi	r23, 0x00	; 0
    4af2:	84 e6       	ldi	r24, 0x64	; 100
    4af4:	90 e0       	ldi	r25, 0x00	; 0
    4af6:	0e 94 8f 17 	call	0x2f1e	; 0x2f1e <_ZN4U8G28drawUTF8EjjPKc.constprop.146>
    4afa:	21 e0       	ldi	r18, 0x01	; 1
    4afc:	30 e0       	ldi	r19, 0x00	; 0
    4afe:	41 e0       	ldi	r20, 0x01	; 1
    4b00:	50 e0       	ldi	r21, 0x00	; 0
    4b02:	6f e0       	ldi	r22, 0x0F	; 15
    4b04:	70 e0       	ldi	r23, 0x00	; 0
    4b06:	90 e0       	ldi	r25, 0x00	; 0
    4b08:	80 e0       	ldi	r24, 0x00	; 0
    4b0a:	0e 94 0d 17 	call	0x2e1a	; 0x2e1a <u8g2_DrawButtonUTF8.constprop.94>
    4b0e:	8e e1       	ldi	r24, 0x1E	; 30
    4b10:	88 2e       	mov	r8, r24
    4b12:	84 e0       	ldi	r24, 0x04	; 4
    4b14:	98 2e       	mov	r9, r24
    4b16:	90 e2       	ldi	r25, 0x20	; 32
    4b18:	c9 2e       	mov	r12, r25
    4b1a:	d1 2c       	mov	r13, r1
    4b1c:	51 2c       	mov	r5, r1
    4b1e:	c4 01       	movw	r24, r8
    4b20:	0e 94 86 1a 	call	0x350c	; 0x350c <_Z13printMenuItemPKPKc>
    4b24:	ac 01       	movw	r20, r24
    4b26:	b6 01       	movw	r22, r12
    4b28:	90 e0       	ldi	r25, 0x00	; 0
    4b2a:	80 e0       	ldi	r24, 0x00	; 0
    4b2c:	0e 94 8f 17 	call	0x2f1e	; 0x2f1e <_ZN4U8G28drawUTF8EjjPKc.constprop.146>
    4b30:	81 e0       	ldi	r24, 0x01	; 1
    4b32:	58 16       	cp	r5, r24
    4b34:	d9 f1       	breq	.+118    	; 0x4bac <_Z18getdataAndSetpiontv+0x2ae>
    4b36:	92 e0       	ldi	r25, 0x02	; 2
    4b38:	59 16       	cp	r5, r25
    4b3a:	09 f4       	brne	.+2      	; 0x4b3e <_Z18getdataAndSetpiontv+0x240>
    4b3c:	40 c0       	rjmp	.+128    	; 0x4bbe <_Z18getdataAndSetpiontv+0x2c0>
    4b3e:	60 91 9e 03 	lds	r22, 0x039E	; 0x80039e <iDryer+0x4>
    4b42:	70 91 9f 03 	lds	r23, 0x039F	; 0x80039f <iDryer+0x5>
    4b46:	80 91 a0 03 	lds	r24, 0x03A0	; 0x8003a0 <iDryer+0x6>
    4b4a:	90 91 a1 03 	lds	r25, 0x03A1	; 0x8003a1 <iDryer+0x7>
    4b4e:	0e 94 e7 3c 	call	0x79ce	; 0x79ce <__fixunssfsi>
    4b52:	1f 92       	push	r1
    4b54:	6f 93       	push	r22
    4b56:	ff 92       	push	r15
    4b58:	ef 92       	push	r14
    4b5a:	1f 93       	push	r17
    4b5c:	0f 93       	push	r16
    4b5e:	0e 94 6d 3f 	call	0x7eda	; 0x7eda <sprintf>
    4b62:	a8 01       	movw	r20, r16
    4b64:	b6 01       	movw	r22, r12
    4b66:	84 e6       	ldi	r24, 0x64	; 100
    4b68:	90 e0       	ldi	r25, 0x00	; 0
    4b6a:	0e 94 8f 17 	call	0x2f1e	; 0x2f1e <_ZN4U8G28drawUTF8EjjPKc.constprop.146>
    4b6e:	53 94       	inc	r5
    4b70:	22 e0       	ldi	r18, 0x02	; 2
    4b72:	82 0e       	add	r8, r18
    4b74:	91 1c       	adc	r9, r1
    4b76:	30 e1       	ldi	r19, 0x10	; 16
    4b78:	c3 0e       	add	r12, r19
    4b7a:	d1 1c       	adc	r13, r1
    4b7c:	0f 90       	pop	r0
    4b7e:	0f 90       	pop	r0
    4b80:	0f 90       	pop	r0
    4b82:	0f 90       	pop	r0
    4b84:	0f 90       	pop	r0
    4b86:	0f 90       	pop	r0
    4b88:	83 e0       	ldi	r24, 0x03	; 3
    4b8a:	58 12       	cpse	r5, r24
    4b8c:	c8 cf       	rjmp	.-112    	; 0x4b1e <_Z18getdataAndSetpiontv+0x220>
    4b8e:	8e ed       	ldi	r24, 0xDE	; 222
    4b90:	95 e0       	ldi	r25, 0x05	; 5
    4b92:	0e 94 fa 1e 	call	0x3df4	; 0x3df4 <u8g2_NextPage>
    4b96:	81 11       	cpse	r24, r1
    4b98:	52 cf       	rjmp	.-348    	; 0x4a3e <_Z18getdataAndSetpiontv+0x140>
    4b9a:	10 92 b3 03 	sts	0x03B3, r1	; 0x8003b3 <iDryer+0x19>
    4b9e:	0e 94 fd 18 	call	0x31fa	; 0x31fa <_Z11WDT_DISABLEv>
    4ba2:	fc ce       	rjmp	.-520    	; 0x499c <_Z18getdataAndSetpiontv+0x9e>
    4ba4:	80 91 af 03 	lds	r24, 0x03AF	; 0x8003af <iDryer+0x15>
    4ba8:	1f 92       	push	r1
    4baa:	93 cf       	rjmp	.-218    	; 0x4ad2 <_Z18getdataAndSetpiontv+0x1d4>
    4bac:	60 91 9a 03 	lds	r22, 0x039A	; 0x80039a <iDryer>
    4bb0:	70 91 9b 03 	lds	r23, 0x039B	; 0x80039b <iDryer+0x1>
    4bb4:	80 91 9c 03 	lds	r24, 0x039C	; 0x80039c <iDryer+0x2>
    4bb8:	90 91 9d 03 	lds	r25, 0x039D	; 0x80039d <iDryer+0x3>
    4bbc:	c8 cf       	rjmp	.-112    	; 0x4b4e <_Z18getdataAndSetpiontv+0x250>
    4bbe:	60 91 a2 03 	lds	r22, 0x03A2	; 0x8003a2 <iDryer+0x8>
    4bc2:	70 91 a3 03 	lds	r23, 0x03A3	; 0x8003a3 <iDryer+0x9>
    4bc6:	80 91 a4 03 	lds	r24, 0x03A4	; 0x8003a4 <iDryer+0xa>
    4bca:	90 91 a5 03 	lds	r25, 0x03A5	; 0x8003a5 <iDryer+0xb>
    4bce:	bf cf       	rjmp	.-130    	; 0x4b4e <_Z18getdataAndSetpiontv+0x250>
    4bd0:	a5 01       	movw	r20, r10
    4bd2:	94 01       	movw	r18, r8
    4bd4:	c7 01       	movw	r24, r14
    4bd6:	b6 01       	movw	r22, r12
    4bd8:	0e 94 fc 3b 	call	0x77f8	; 0x77f8 <__subsf3>
    4bdc:	a7 01       	movw	r20, r14
    4bde:	96 01       	movw	r18, r12
    4be0:	0e 94 fd 3b 	call	0x77fa	; 0x77fa <__addsf3>
    4be4:	6b 01       	movw	r12, r22
    4be6:	7c 01       	movw	r14, r24
    4be8:	a3 01       	movw	r20, r6
    4bea:	92 01       	movw	r18, r4
    4bec:	0e 94 c8 3d 	call	0x7b90	; 0x7b90 <__gesf2>
    4bf0:	18 16       	cp	r1, r24
    4bf2:	0c f4       	brge	.+2      	; 0x4bf6 <_Z18getdataAndSetpiontv+0x2f8>
    4bf4:	fc ce       	rjmp	.-520    	; 0x49ee <_Z18getdataAndSetpiontv+0xf0>
    4bf6:	c0 92 25 05 	sts	0x0525, r12	; 0x800525 <Setpoint>
    4bfa:	d0 92 26 05 	sts	0x0526, r13	; 0x800526 <Setpoint+0x1>
    4bfe:	e0 92 27 05 	sts	0x0527, r14	; 0x800527 <Setpoint+0x2>
    4c02:	f0 92 28 05 	sts	0x0528, r15	; 0x800528 <Setpoint+0x3>
    4c06:	20 e0       	ldi	r18, 0x00	; 0
    4c08:	30 e0       	ldi	r19, 0x00	; 0
    4c0a:	40 ef       	ldi	r20, 0xF0	; 240
    4c0c:	52 e4       	ldi	r21, 0x42	; 66
    4c0e:	60 91 25 05 	lds	r22, 0x0525	; 0x800525 <Setpoint>
    4c12:	70 91 26 05 	lds	r23, 0x0526	; 0x800526 <Setpoint+0x1>
    4c16:	80 91 27 05 	lds	r24, 0x0527	; 0x800527 <Setpoint+0x2>
    4c1a:	90 91 28 05 	lds	r25, 0x0528	; 0x800528 <Setpoint+0x3>
    4c1e:	0e 94 c8 3d 	call	0x7b90	; 0x7b90 <__gesf2>
    4c22:	18 16       	cp	r1, r24
    4c24:	64 f4       	brge	.+24     	; 0x4c3e <_Z18getdataAndSetpiontv+0x340>
    4c26:	80 e0       	ldi	r24, 0x00	; 0
    4c28:	90 e0       	ldi	r25, 0x00	; 0
    4c2a:	a0 ef       	ldi	r26, 0xF0	; 240
    4c2c:	b2 e4       	ldi	r27, 0x42	; 66
    4c2e:	80 93 25 05 	sts	0x0525, r24	; 0x800525 <Setpoint>
    4c32:	90 93 26 05 	sts	0x0526, r25	; 0x800526 <Setpoint+0x1>
    4c36:	a0 93 27 05 	sts	0x0527, r26	; 0x800527 <Setpoint+0x2>
    4c3a:	b0 93 28 05 	sts	0x0528, r27	; 0x800528 <Setpoint+0x3>
    4c3e:	0f 90       	pop	r0
    4c40:	0f 90       	pop	r0
    4c42:	0f 90       	pop	r0
    4c44:	0f 90       	pop	r0
    4c46:	df 91       	pop	r29
    4c48:	cf 91       	pop	r28
    4c4a:	1f 91       	pop	r17
    4c4c:	0f 91       	pop	r16
    4c4e:	ff 90       	pop	r15
    4c50:	ef 90       	pop	r14
    4c52:	df 90       	pop	r13
    4c54:	cf 90       	pop	r12
    4c56:	bf 90       	pop	r11
    4c58:	af 90       	pop	r10
    4c5a:	9f 90       	pop	r9
    4c5c:	8f 90       	pop	r8
    4c5e:	7f 90       	pop	r7
    4c60:	6f 90       	pop	r6
    4c62:	5f 90       	pop	r5
    4c64:	4f 90       	pop	r4
    4c66:	08 95       	ret

00004c68 <_Z8setSpoolh>:
    4c68:	2f 92       	push	r2
    4c6a:	3f 92       	push	r3
    4c6c:	4f 92       	push	r4
    4c6e:	5f 92       	push	r5
    4c70:	6f 92       	push	r6
    4c72:	7f 92       	push	r7
    4c74:	8f 92       	push	r8
    4c76:	9f 92       	push	r9
    4c78:	af 92       	push	r10
    4c7a:	bf 92       	push	r11
    4c7c:	cf 92       	push	r12
    4c7e:	df 92       	push	r13
    4c80:	ef 92       	push	r14
    4c82:	ff 92       	push	r15
    4c84:	0f 93       	push	r16
    4c86:	1f 93       	push	r17
    4c88:	cf 93       	push	r28
    4c8a:	df 93       	push	r29
    4c8c:	68 2e       	mov	r6, r24
    4c8e:	0e 94 fd 18 	call	0x31fa	; 0x31fa <_Z11WDT_DISABLEv>
    4c92:	f6 e0       	ldi	r31, 0x06	; 6
    4c94:	ef 2e       	mov	r14, r31
    4c96:	f1 2c       	mov	r15, r1
    4c98:	c6 2c       	mov	r12, r6
    4c9a:	d1 2c       	mov	r13, r1
    4c9c:	86 01       	movw	r16, r12
    4c9e:	0f 5f       	subi	r16, 0xFF	; 255
    4ca0:	1f 4f       	sbci	r17, 0xFF	; 255
    4ca2:	a9 e3       	ldi	r26, 0x39	; 57
    4ca4:	2a 2e       	mov	r2, r26
    4ca6:	a2 e0       	ldi	r26, 0x02	; 2
    4ca8:	3a 2e       	mov	r3, r26
    4caa:	c6 ea       	ldi	r28, 0xA6	; 166
    4cac:	d2 e0       	ldi	r29, 0x02	; 2
    4cae:	b0 e8       	ldi	r27, 0x80	; 128
    4cb0:	ab 2e       	mov	r10, r27
    4cb2:	b1 2c       	mov	r11, r1
    4cb4:	80 e4       	ldi	r24, 0x40	; 64
    4cb6:	48 2e       	mov	r4, r24
    4cb8:	82 e0       	ldi	r24, 0x02	; 2
    4cba:	58 2e       	mov	r5, r24
    4cbc:	96 e4       	ldi	r25, 0x46	; 70
    4cbe:	89 2e       	mov	r8, r25
    4cc0:	92 e0       	ldi	r25, 0x02	; 2
    4cc2:	99 2e       	mov	r9, r25
    4cc4:	8e ed       	ldi	r24, 0xDE	; 222
    4cc6:	95 e0       	ldi	r25, 0x05	; 5
    4cc8:	0e 94 24 1f 	call	0x3e48	; 0x3e48 <u8g2_FirstPage>
    4ccc:	0e 94 f1 13 	call	0x27e2	; 0x27e2 <u8g2_SetFont.constprop.87>
    4cd0:	8e e2       	ldi	r24, 0x2E	; 46
    4cd2:	94 e0       	ldi	r25, 0x04	; 4
    4cd4:	0e 94 86 1a 	call	0x350c	; 0x350c <_Z13printMenuItemPKPKc>
    4cd8:	1f 93       	push	r17
    4cda:	0f 93       	push	r16
    4cdc:	9f 93       	push	r25
    4cde:	8f 93       	push	r24
    4ce0:	3f 92       	push	r3
    4ce2:	2f 92       	push	r2
    4ce4:	df 93       	push	r29
    4ce6:	cf 93       	push	r28
    4ce8:	0e 94 6d 3f 	call	0x7eda	; 0x7eda <sprintf>
    4cec:	86 ea       	ldi	r24, 0xA6	; 166
    4cee:	92 e0       	ldi	r25, 0x02	; 2
    4cf0:	0e 94 84 15 	call	0x2b08	; 0x2b08 <u8g2_GetUTF8Width.constprop.95>
    4cf4:	95 01       	movw	r18, r10
    4cf6:	28 1b       	sub	r18, r24
    4cf8:	39 0b       	sbc	r19, r25
    4cfa:	c9 01       	movw	r24, r18
    4cfc:	46 ea       	ldi	r20, 0xA6	; 166
    4cfe:	52 e0       	ldi	r21, 0x02	; 2
    4d00:	60 e2       	ldi	r22, 0x20	; 32
    4d02:	70 e0       	ldi	r23, 0x00	; 0
    4d04:	96 95       	lsr	r25
    4d06:	87 95       	ror	r24
    4d08:	0e 94 8f 17 	call	0x2f1e	; 0x2f1e <_ZN4U8G28drawUTF8EjjPKc.constprop.146>
    4d0c:	8c e2       	ldi	r24, 0x2C	; 44
    4d0e:	94 e0       	ldi	r25, 0x04	; 4
    4d10:	0e 94 86 1a 	call	0x350c	; 0x350c <_Z13printMenuItemPKPKc>
    4d14:	bc 01       	movw	r22, r24
    4d16:	86 ea       	ldi	r24, 0xA6	; 166
    4d18:	92 e0       	ldi	r25, 0x02	; 2
    4d1a:	0e 94 66 3f 	call	0x7ecc	; 0x7ecc <strcpy>
    4d1e:	84 e3       	ldi	r24, 0x34	; 52
    4d20:	94 e0       	ldi	r25, 0x04	; 4
    4d22:	0e 94 86 1a 	call	0x350c	; 0x350c <_Z13printMenuItemPKPKc>
    4d26:	9f 93       	push	r25
    4d28:	8f 93       	push	r24
    4d2a:	df 93       	push	r29
    4d2c:	cf 93       	push	r28
    4d2e:	5f 92       	push	r5
    4d30:	4f 92       	push	r4
    4d32:	df 93       	push	r29
    4d34:	cf 93       	push	r28
    4d36:	0e 94 6d 3f 	call	0x7eda	; 0x7eda <sprintf>
    4d3a:	86 ea       	ldi	r24, 0xA6	; 166
    4d3c:	92 e0       	ldi	r25, 0x02	; 2
    4d3e:	0e 94 84 15 	call	0x2b08	; 0x2b08 <u8g2_GetUTF8Width.constprop.95>
    4d42:	95 01       	movw	r18, r10
    4d44:	28 1b       	sub	r18, r24
    4d46:	39 0b       	sbc	r19, r25
    4d48:	c9 01       	movw	r24, r18
    4d4a:	46 ea       	ldi	r20, 0xA6	; 166
    4d4c:	52 e0       	ldi	r21, 0x02	; 2
    4d4e:	60 e3       	ldi	r22, 0x30	; 48
    4d50:	70 e0       	ldi	r23, 0x00	; 0
    4d52:	96 95       	lsr	r25
    4d54:	87 95       	ror	r24
    4d56:	0e 94 8f 17 	call	0x2f1e	; 0x2f1e <_ZN4U8G28drawUTF8EjjPKc.constprop.146>
    4d5a:	ff 92       	push	r15
    4d5c:	ef 92       	push	r14
    4d5e:	9f 92       	push	r9
    4d60:	8f 92       	push	r8
    4d62:	df 93       	push	r29
    4d64:	cf 93       	push	r28
    4d66:	0e 94 6d 3f 	call	0x7eda	; 0x7eda <sprintf>
    4d6a:	86 ea       	ldi	r24, 0xA6	; 166
    4d6c:	92 e0       	ldi	r25, 0x02	; 2
    4d6e:	0e 94 84 15 	call	0x2b08	; 0x2b08 <u8g2_GetUTF8Width.constprop.95>
    4d72:	95 01       	movw	r18, r10
    4d74:	28 1b       	sub	r18, r24
    4d76:	39 0b       	sbc	r19, r25
    4d78:	c9 01       	movw	r24, r18
    4d7a:	46 ea       	ldi	r20, 0xA6	; 166
    4d7c:	52 e0       	ldi	r21, 0x02	; 2
    4d7e:	60 e4       	ldi	r22, 0x40	; 64
    4d80:	70 e0       	ldi	r23, 0x00	; 0
    4d82:	96 95       	lsr	r25
    4d84:	87 95       	ror	r24
    4d86:	0e 94 8f 17 	call	0x2f1e	; 0x2f1e <_ZN4U8G28drawUTF8EjjPKc.constprop.146>
    4d8a:	8e ed       	ldi	r24, 0xDE	; 222
    4d8c:	95 e0       	ldi	r25, 0x05	; 5
    4d8e:	0e 94 fa 1e 	call	0x3df4	; 0x3df4 <u8g2_NextPage>
    4d92:	2d b7       	in	r18, 0x3d	; 61
    4d94:	3e b7       	in	r19, 0x3e	; 62
    4d96:	2a 5e       	subi	r18, 0xEA	; 234
    4d98:	3f 4f       	sbci	r19, 0xFF	; 255
    4d9a:	0f b6       	in	r0, 0x3f	; 63
    4d9c:	f8 94       	cli
    4d9e:	3e bf       	out	0x3e, r19	; 62
    4da0:	0f be       	out	0x3f, r0	; 63
    4da2:	2d bf       	out	0x3d, r18	; 61
    4da4:	81 11       	cpse	r24, r1
    4da6:	92 cf       	rjmp	.-220    	; 0x4ccc <_Z8setSpoolh+0x64>
    4da8:	60 e2       	ldi	r22, 0x20	; 32
    4daa:	73 e0       	ldi	r23, 0x03	; 3
    4dac:	80 e0       	ldi	r24, 0x00	; 0
    4dae:	90 e0       	ldi	r25, 0x00	; 0
    4db0:	0e 94 e3 0a 	call	0x15c6	; 0x15c6 <delay>
    4db4:	31 e0       	ldi	r19, 0x01	; 1
    4db6:	e3 1a       	sub	r14, r19
    4db8:	f1 08       	sbc	r15, r1
    4dba:	09 f0       	breq	.+2      	; 0x4dbe <_Z8setSpoolh+0x156>
    4dbc:	83 cf       	rjmp	.-250    	; 0x4cc4 <_Z8setSpoolh+0x5c>
    4dbe:	8e ed       	ldi	r24, 0xDE	; 222
    4dc0:	95 e0       	ldi	r25, 0x05	; 5
    4dc2:	0e 94 24 1f 	call	0x3e48	; 0x3e48 <u8g2_FirstPage>
    4dc6:	a9 e3       	ldi	r26, 0x39	; 57
    4dc8:	aa 2e       	mov	r10, r26
    4dca:	a2 e0       	ldi	r26, 0x02	; 2
    4dcc:	ba 2e       	mov	r11, r26
    4dce:	b6 ea       	ldi	r27, 0xA6	; 166
    4dd0:	eb 2e       	mov	r14, r27
    4dd2:	b2 e0       	ldi	r27, 0x02	; 2
    4dd4:	fb 2e       	mov	r15, r27
    4dd6:	c0 e8       	ldi	r28, 0x80	; 128
    4dd8:	d0 e0       	ldi	r29, 0x00	; 0
    4dda:	0e 94 f1 13 	call	0x27e2	; 0x27e2 <u8g2_SetFont.constprop.87>
    4dde:	8e e2       	ldi	r24, 0x2E	; 46
    4de0:	94 e0       	ldi	r25, 0x04	; 4
    4de2:	0e 94 86 1a 	call	0x350c	; 0x350c <_Z13printMenuItemPKPKc>
    4de6:	1f 93       	push	r17
    4de8:	0f 93       	push	r16
    4dea:	9f 93       	push	r25
    4dec:	8f 93       	push	r24
    4dee:	bf 92       	push	r11
    4df0:	af 92       	push	r10
    4df2:	ff 92       	push	r15
    4df4:	ef 92       	push	r14
    4df6:	0e 94 6d 3f 	call	0x7eda	; 0x7eda <sprintf>
    4dfa:	86 ea       	ldi	r24, 0xA6	; 166
    4dfc:	92 e0       	ldi	r25, 0x02	; 2
    4dfe:	0e 94 84 15 	call	0x2b08	; 0x2b08 <u8g2_GetUTF8Width.constprop.95>
    4e02:	9e 01       	movw	r18, r28
    4e04:	28 1b       	sub	r18, r24
    4e06:	39 0b       	sbc	r19, r25
    4e08:	c9 01       	movw	r24, r18
    4e0a:	46 ea       	ldi	r20, 0xA6	; 166
    4e0c:	52 e0       	ldi	r21, 0x02	; 2
    4e0e:	60 e2       	ldi	r22, 0x20	; 32
    4e10:	70 e0       	ldi	r23, 0x00	; 0
    4e12:	96 95       	lsr	r25
    4e14:	87 95       	ror	r24
    4e16:	0e 94 8f 17 	call	0x2f1e	; 0x2f1e <_ZN4U8G28drawUTF8EjjPKc.constprop.146>
    4e1a:	80 e3       	ldi	r24, 0x30	; 48
    4e1c:	94 e0       	ldi	r25, 0x04	; 4
    4e1e:	0e 94 86 1a 	call	0x350c	; 0x350c <_Z13printMenuItemPKPKc>
    4e22:	bc 01       	movw	r22, r24
    4e24:	86 ea       	ldi	r24, 0xA6	; 166
    4e26:	92 e0       	ldi	r25, 0x02	; 2
    4e28:	0e 94 66 3f 	call	0x7ecc	; 0x7ecc <strcpy>
    4e2c:	86 ea       	ldi	r24, 0xA6	; 166
    4e2e:	92 e0       	ldi	r25, 0x02	; 2
    4e30:	0e 94 84 15 	call	0x2b08	; 0x2b08 <u8g2_GetUTF8Width.constprop.95>
    4e34:	9e 01       	movw	r18, r28
    4e36:	28 1b       	sub	r18, r24
    4e38:	39 0b       	sbc	r19, r25
    4e3a:	c9 01       	movw	r24, r18
    4e3c:	46 ea       	ldi	r20, 0xA6	; 166
    4e3e:	52 e0       	ldi	r21, 0x02	; 2
    4e40:	60 e3       	ldi	r22, 0x30	; 48
    4e42:	70 e0       	ldi	r23, 0x00	; 0
    4e44:	96 95       	lsr	r25
    4e46:	87 95       	ror	r24
    4e48:	0e 94 8f 17 	call	0x2f1e	; 0x2f1e <_ZN4U8G28drawUTF8EjjPKc.constprop.146>
    4e4c:	8e ed       	ldi	r24, 0xDE	; 222
    4e4e:	95 e0       	ldi	r25, 0x05	; 5
    4e50:	0e 94 fa 1e 	call	0x3df4	; 0x3df4 <u8g2_NextPage>
    4e54:	2d b7       	in	r18, 0x3d	; 61
    4e56:	3e b7       	in	r19, 0x3e	; 62
    4e58:	28 5f       	subi	r18, 0xF8	; 248
    4e5a:	3f 4f       	sbci	r19, 0xFF	; 255
    4e5c:	0f b6       	in	r0, 0x3f	; 63
    4e5e:	f8 94       	cli
    4e60:	3e bf       	out	0x3e, r19	; 62
    4e62:	0f be       	out	0x3f, r0	; 63
    4e64:	2d bf       	out	0x3d, r18	; 61
    4e66:	81 11       	cpse	r24, r1
    4e68:	b8 cf       	rjmp	.-144    	; 0x4dda <_Z8setSpoolh+0x172>
    4e6a:	68 ee       	ldi	r22, 0xE8	; 232
    4e6c:	73 e0       	ldi	r23, 0x03	; 3
    4e6e:	80 e0       	ldi	r24, 0x00	; 0
    4e70:	90 e0       	ldi	r25, 0x00	; 0
    4e72:	0e 94 e3 0a 	call	0x15c6	; 0x15c6 <delay>
    4e76:	84 e1       	ldi	r24, 0x14	; 20
    4e78:	68 9e       	mul	r6, r24
    4e7a:	30 01       	movw	r6, r0
    4e7c:	11 24       	eor	r1, r1
    4e7e:	93 01       	movw	r18, r6
    4e80:	23 59       	subi	r18, 0x93	; 147
    4e82:	3a 4f       	sbci	r19, 0xFA	; 250
    4e84:	39 01       	movw	r6, r18
    4e86:	8c 9d       	mul	r24, r12
    4e88:	e0 01       	movw	r28, r0
    4e8a:	8d 9d       	mul	r24, r13
    4e8c:	d0 0d       	add	r29, r0
    4e8e:	11 24       	eor	r1, r1
    4e90:	c3 59       	subi	r28, 0x93	; 147
    4e92:	da 4f       	sbci	r29, 0xFA	; 250
    4e94:	1e 82       	std	Y+6, r1	; 0x06
    4e96:	1f 82       	std	Y+7, r1	; 0x07
    4e98:	18 86       	std	Y+8, r1	; 0x08
    4e9a:	19 86       	std	Y+9, r1	; 0x09
    4e9c:	34 e6       	ldi	r19, 0x64	; 100
    4e9e:	e3 2e       	mov	r14, r19
    4ea0:	f1 2c       	mov	r15, r1
    4ea2:	26 96       	adiw	r28, 0x06	; 6
    4ea4:	6a e0       	ldi	r22, 0x0A	; 10
    4ea6:	70 e0       	ldi	r23, 0x00	; 0
    4ea8:	80 e0       	ldi	r24, 0x00	; 0
    4eaa:	90 e0       	ldi	r25, 0x00	; 0
    4eac:	0e 94 e3 0a 	call	0x15c6	; 0x15c6 <delay>
    4eb0:	c3 01       	movw	r24, r6
    4eb2:	0e 94 18 1e 	call	0x3c30	; 0x3c30 <_ZN5HX7114readEv>
    4eb6:	88 80       	ld	r8, Y
    4eb8:	99 80       	ldd	r9, Y+1	; 0x01
    4eba:	aa 80       	ldd	r10, Y+2	; 0x02
    4ebc:	bb 80       	ldd	r11, Y+3	; 0x03
    4ebe:	68 0d       	add	r22, r8
    4ec0:	79 1d       	adc	r23, r9
    4ec2:	8a 1d       	adc	r24, r10
    4ec4:	9b 1d       	adc	r25, r11
    4ec6:	68 83       	st	Y, r22
    4ec8:	79 83       	std	Y+1, r23	; 0x01
    4eca:	8a 83       	std	Y+2, r24	; 0x02
    4ecc:	9b 83       	std	Y+3, r25	; 0x03
    4ece:	31 e0       	ldi	r19, 0x01	; 1
    4ed0:	e3 1a       	sub	r14, r19
    4ed2:	f1 08       	sbc	r15, r1
    4ed4:	39 f7       	brne	.-50     	; 0x4ea4 <_Z8setSpoolh+0x23c>
    4ed6:	24 e6       	ldi	r18, 0x64	; 100
    4ed8:	30 e0       	ldi	r19, 0x00	; 0
    4eda:	40 e0       	ldi	r20, 0x00	; 0
    4edc:	50 e0       	ldi	r21, 0x00	; 0
    4ede:	0e 94 39 3b 	call	0x7672	; 0x7672 <__divmodsi4>
    4ee2:	ba 01       	movw	r22, r20
    4ee4:	a9 01       	movw	r20, r18
    4ee6:	48 83       	st	Y, r20
    4ee8:	59 83       	std	Y+1, r21	; 0x01
    4eea:	6a 83       	std	Y+2, r22	; 0x02
    4eec:	7b 83       	std	Y+3, r23	; 0x03
    4eee:	46 01       	movw	r8, r12
    4ef0:	88 0c       	add	r8, r8
    4ef2:	99 1c       	adc	r9, r9
    4ef4:	88 0c       	add	r8, r8
    4ef6:	99 1c       	adc	r9, r9
    4ef8:	c4 01       	movw	r24, r8
    4efa:	84 5b       	subi	r24, 0xB4	; 180
    4efc:	9e 4f       	sbci	r25, 0xFE	; 254
    4efe:	0e 94 1e 3b 	call	0x763c	; 0x763c <eeprom_write_dword>
    4f02:	d6 e0       	ldi	r29, 0x06	; 6
    4f04:	ed 2e       	mov	r14, r29
    4f06:	f1 2c       	mov	r15, r1
    4f08:	c6 ea       	ldi	r28, 0xA6	; 166
    4f0a:	d2 e0       	ldi	r29, 0x02	; 2
    4f0c:	80 e8       	ldi	r24, 0x80	; 128
    4f0e:	a8 2e       	mov	r10, r24
    4f10:	b1 2c       	mov	r11, r1
    4f12:	90 e4       	ldi	r25, 0x40	; 64
    4f14:	29 2e       	mov	r2, r25
    4f16:	92 e0       	ldi	r25, 0x02	; 2
    4f18:	39 2e       	mov	r3, r25
    4f1a:	26 e4       	ldi	r18, 0x46	; 70
    4f1c:	42 2e       	mov	r4, r18
    4f1e:	22 e0       	ldi	r18, 0x02	; 2
    4f20:	52 2e       	mov	r5, r18
    4f22:	8e ed       	ldi	r24, 0xDE	; 222
    4f24:	95 e0       	ldi	r25, 0x05	; 5
    4f26:	0e 94 24 1f 	call	0x3e48	; 0x3e48 <u8g2_FirstPage>
    4f2a:	0e 94 f1 13 	call	0x27e2	; 0x27e2 <u8g2_SetFont.constprop.87>
    4f2e:	8e e2       	ldi	r24, 0x2E	; 46
    4f30:	94 e0       	ldi	r25, 0x04	; 4
    4f32:	0e 94 86 1a 	call	0x350c	; 0x350c <_Z13printMenuItemPKPKc>
    4f36:	1f 93       	push	r17
    4f38:	0f 93       	push	r16
    4f3a:	9f 93       	push	r25
    4f3c:	8f 93       	push	r24
    4f3e:	89 e3       	ldi	r24, 0x39	; 57
    4f40:	92 e0       	ldi	r25, 0x02	; 2
    4f42:	9f 93       	push	r25
    4f44:	8f 93       	push	r24
    4f46:	df 93       	push	r29
    4f48:	cf 93       	push	r28
    4f4a:	0e 94 6d 3f 	call	0x7eda	; 0x7eda <sprintf>
    4f4e:	86 ea       	ldi	r24, 0xA6	; 166
    4f50:	92 e0       	ldi	r25, 0x02	; 2
    4f52:	0e 94 84 15 	call	0x2b08	; 0x2b08 <u8g2_GetUTF8Width.constprop.95>
    4f56:	95 01       	movw	r18, r10
    4f58:	28 1b       	sub	r18, r24
    4f5a:	39 0b       	sbc	r19, r25
    4f5c:	c9 01       	movw	r24, r18
    4f5e:	46 ea       	ldi	r20, 0xA6	; 166
    4f60:	52 e0       	ldi	r21, 0x02	; 2
    4f62:	60 e1       	ldi	r22, 0x10	; 16
    4f64:	70 e0       	ldi	r23, 0x00	; 0
    4f66:	96 95       	lsr	r25
    4f68:	87 95       	ror	r24
    4f6a:	0e 94 8f 17 	call	0x2f1e	; 0x2f1e <_ZN4U8G28drawUTF8EjjPKc.constprop.146>
    4f6e:	82 e3       	ldi	r24, 0x32	; 50
    4f70:	94 e0       	ldi	r25, 0x04	; 4
    4f72:	0e 94 86 1a 	call	0x350c	; 0x350c <_Z13printMenuItemPKPKc>
    4f76:	bc 01       	movw	r22, r24
    4f78:	86 ea       	ldi	r24, 0xA6	; 166
    4f7a:	92 e0       	ldi	r25, 0x02	; 2
    4f7c:	0e 94 66 3f 	call	0x7ecc	; 0x7ecc <strcpy>
    4f80:	86 ea       	ldi	r24, 0xA6	; 166
    4f82:	92 e0       	ldi	r25, 0x02	; 2
    4f84:	0e 94 84 15 	call	0x2b08	; 0x2b08 <u8g2_GetUTF8Width.constprop.95>
    4f88:	95 01       	movw	r18, r10
    4f8a:	28 1b       	sub	r18, r24
    4f8c:	39 0b       	sbc	r19, r25
    4f8e:	c9 01       	movw	r24, r18
    4f90:	46 ea       	ldi	r20, 0xA6	; 166
    4f92:	52 e0       	ldi	r21, 0x02	; 2
    4f94:	60 e2       	ldi	r22, 0x20	; 32
    4f96:	70 e0       	ldi	r23, 0x00	; 0
    4f98:	96 95       	lsr	r25
    4f9a:	87 95       	ror	r24
    4f9c:	0e 94 8f 17 	call	0x2f1e	; 0x2f1e <_ZN4U8G28drawUTF8EjjPKc.constprop.146>
    4fa0:	84 e3       	ldi	r24, 0x34	; 52
    4fa2:	94 e0       	ldi	r25, 0x04	; 4
    4fa4:	0e 94 86 1a 	call	0x350c	; 0x350c <_Z13printMenuItemPKPKc>
    4fa8:	33 e0       	ldi	r19, 0x03	; 3
    4faa:	3f 93       	push	r19
    4fac:	28 ee       	ldi	r18, 0xE8	; 232
    4fae:	2f 93       	push	r18
    4fb0:	9f 93       	push	r25
    4fb2:	8f 93       	push	r24
    4fb4:	8b e4       	ldi	r24, 0x4B	; 75
    4fb6:	92 e0       	ldi	r25, 0x02	; 2
    4fb8:	9f 93       	push	r25
    4fba:	8f 93       	push	r24
    4fbc:	df 93       	push	r29
    4fbe:	cf 93       	push	r28
    4fc0:	0e 94 6d 3f 	call	0x7eda	; 0x7eda <sprintf>
    4fc4:	86 e3       	ldi	r24, 0x36	; 54
    4fc6:	94 e0       	ldi	r25, 0x04	; 4
    4fc8:	0e 94 86 1a 	call	0x350c	; 0x350c <_Z13printMenuItemPKPKc>
    4fcc:	9f 93       	push	r25
    4fce:	8f 93       	push	r24
    4fd0:	df 93       	push	r29
    4fd2:	cf 93       	push	r28
    4fd4:	3f 92       	push	r3
    4fd6:	2f 92       	push	r2
    4fd8:	df 93       	push	r29
    4fda:	cf 93       	push	r28
    4fdc:	0e 94 6d 3f 	call	0x7eda	; 0x7eda <sprintf>
    4fe0:	86 ea       	ldi	r24, 0xA6	; 166
    4fe2:	92 e0       	ldi	r25, 0x02	; 2
    4fe4:	0e 94 84 15 	call	0x2b08	; 0x2b08 <u8g2_GetUTF8Width.constprop.95>
    4fe8:	95 01       	movw	r18, r10
    4fea:	28 1b       	sub	r18, r24
    4fec:	39 0b       	sbc	r19, r25
    4fee:	c9 01       	movw	r24, r18
    4ff0:	46 ea       	ldi	r20, 0xA6	; 166
    4ff2:	52 e0       	ldi	r21, 0x02	; 2
    4ff4:	60 e3       	ldi	r22, 0x30	; 48
    4ff6:	70 e0       	ldi	r23, 0x00	; 0
    4ff8:	96 95       	lsr	r25
    4ffa:	87 95       	ror	r24
    4ffc:	0e 94 8f 17 	call	0x2f1e	; 0x2f1e <_ZN4U8G28drawUTF8EjjPKc.constprop.146>
    5000:	ff 92       	push	r15
    5002:	ef 92       	push	r14
    5004:	5f 92       	push	r5
    5006:	4f 92       	push	r4
    5008:	df 93       	push	r29
    500a:	cf 93       	push	r28
    500c:	0e 94 6d 3f 	call	0x7eda	; 0x7eda <sprintf>
    5010:	86 ea       	ldi	r24, 0xA6	; 166
    5012:	92 e0       	ldi	r25, 0x02	; 2
    5014:	0e 94 84 15 	call	0x2b08	; 0x2b08 <u8g2_GetUTF8Width.constprop.95>
    5018:	95 01       	movw	r18, r10
    501a:	28 1b       	sub	r18, r24
    501c:	39 0b       	sbc	r19, r25
    501e:	c9 01       	movw	r24, r18
    5020:	46 ea       	ldi	r20, 0xA6	; 166
    5022:	52 e0       	ldi	r21, 0x02	; 2
    5024:	60 e4       	ldi	r22, 0x40	; 64
    5026:	70 e0       	ldi	r23, 0x00	; 0
    5028:	96 95       	lsr	r25
    502a:	87 95       	ror	r24
    502c:	0e 94 8f 17 	call	0x2f1e	; 0x2f1e <_ZN4U8G28drawUTF8EjjPKc.constprop.146>
    5030:	8e ed       	ldi	r24, 0xDE	; 222
    5032:	95 e0       	ldi	r25, 0x05	; 5
    5034:	0e 94 fa 1e 	call	0x3df4	; 0x3df4 <u8g2_NextPage>
    5038:	2d b7       	in	r18, 0x3d	; 61
    503a:	3e b7       	in	r19, 0x3e	; 62
    503c:	22 5e       	subi	r18, 0xE2	; 226
    503e:	3f 4f       	sbci	r19, 0xFF	; 255
    5040:	0f b6       	in	r0, 0x3f	; 63
    5042:	f8 94       	cli
    5044:	3e bf       	out	0x3e, r19	; 62
    5046:	0f be       	out	0x3f, r0	; 63
    5048:	2d bf       	out	0x3d, r18	; 61
    504a:	81 11       	cpse	r24, r1
    504c:	6e cf       	rjmp	.-292    	; 0x4f2a <_Z8setSpoolh+0x2c2>
    504e:	60 e2       	ldi	r22, 0x20	; 32
    5050:	73 e0       	ldi	r23, 0x03	; 3
    5052:	80 e0       	ldi	r24, 0x00	; 0
    5054:	90 e0       	ldi	r25, 0x00	; 0
    5056:	0e 94 e3 0a 	call	0x15c6	; 0x15c6 <delay>
    505a:	31 e0       	ldi	r19, 0x01	; 1
    505c:	e3 1a       	sub	r14, r19
    505e:	f1 08       	sbc	r15, r1
    5060:	09 f0       	breq	.+2      	; 0x5064 <_Z8setSpoolh+0x3fc>
    5062:	5f cf       	rjmp	.-322    	; 0x4f22 <_Z8setSpoolh+0x2ba>
    5064:	8e ed       	ldi	r24, 0xDE	; 222
    5066:	95 e0       	ldi	r25, 0x05	; 5
    5068:	0e 94 24 1f 	call	0x3e48	; 0x3e48 <u8g2_FirstPage>
    506c:	c0 e8       	ldi	r28, 0x80	; 128
    506e:	d0 e0       	ldi	r29, 0x00	; 0
    5070:	49 e3       	ldi	r20, 0x39	; 57
    5072:	e4 2e       	mov	r14, r20
    5074:	42 e0       	ldi	r20, 0x02	; 2
    5076:	f4 2e       	mov	r15, r20
    5078:	0e 94 f1 13 	call	0x27e2	; 0x27e2 <u8g2_SetFont.constprop.87>
    507c:	80 e3       	ldi	r24, 0x30	; 48
    507e:	94 e0       	ldi	r25, 0x04	; 4
    5080:	0e 94 86 1a 	call	0x350c	; 0x350c <_Z13printMenuItemPKPKc>
    5084:	bc 01       	movw	r22, r24
    5086:	86 ea       	ldi	r24, 0xA6	; 166
    5088:	92 e0       	ldi	r25, 0x02	; 2
    508a:	0e 94 66 3f 	call	0x7ecc	; 0x7ecc <strcpy>
    508e:	86 ea       	ldi	r24, 0xA6	; 166
    5090:	92 e0       	ldi	r25, 0x02	; 2
    5092:	0e 94 84 15 	call	0x2b08	; 0x2b08 <u8g2_GetUTF8Width.constprop.95>
    5096:	9e 01       	movw	r18, r28
    5098:	28 1b       	sub	r18, r24
    509a:	39 0b       	sbc	r19, r25
    509c:	c9 01       	movw	r24, r18
    509e:	46 ea       	ldi	r20, 0xA6	; 166
    50a0:	52 e0       	ldi	r21, 0x02	; 2
    50a2:	60 e2       	ldi	r22, 0x20	; 32
    50a4:	70 e0       	ldi	r23, 0x00	; 0
    50a6:	96 95       	lsr	r25
    50a8:	87 95       	ror	r24
    50aa:	0e 94 8f 17 	call	0x2f1e	; 0x2f1e <_ZN4U8G28drawUTF8EjjPKc.constprop.146>
    50ae:	8e e2       	ldi	r24, 0x2E	; 46
    50b0:	94 e0       	ldi	r25, 0x04	; 4
    50b2:	0e 94 86 1a 	call	0x350c	; 0x350c <_Z13printMenuItemPKPKc>
    50b6:	1f 93       	push	r17
    50b8:	0f 93       	push	r16
    50ba:	9f 93       	push	r25
    50bc:	8f 93       	push	r24
    50be:	ff 92       	push	r15
    50c0:	ef 92       	push	r14
    50c2:	86 ea       	ldi	r24, 0xA6	; 166
    50c4:	92 e0       	ldi	r25, 0x02	; 2
    50c6:	9f 93       	push	r25
    50c8:	8f 93       	push	r24
    50ca:	0e 94 6d 3f 	call	0x7eda	; 0x7eda <sprintf>
    50ce:	86 ea       	ldi	r24, 0xA6	; 166
    50d0:	92 e0       	ldi	r25, 0x02	; 2
    50d2:	0e 94 84 15 	call	0x2b08	; 0x2b08 <u8g2_GetUTF8Width.constprop.95>
    50d6:	9e 01       	movw	r18, r28
    50d8:	28 1b       	sub	r18, r24
    50da:	39 0b       	sbc	r19, r25
    50dc:	c9 01       	movw	r24, r18
    50de:	46 ea       	ldi	r20, 0xA6	; 166
    50e0:	52 e0       	ldi	r21, 0x02	; 2
    50e2:	60 e3       	ldi	r22, 0x30	; 48
    50e4:	70 e0       	ldi	r23, 0x00	; 0
    50e6:	96 95       	lsr	r25
    50e8:	87 95       	ror	r24
    50ea:	0e 94 8f 17 	call	0x2f1e	; 0x2f1e <_ZN4U8G28drawUTF8EjjPKc.constprop.146>
    50ee:	8e ed       	ldi	r24, 0xDE	; 222
    50f0:	95 e0       	ldi	r25, 0x05	; 5
    50f2:	0e 94 fa 1e 	call	0x3df4	; 0x3df4 <u8g2_NextPage>
    50f6:	2d b7       	in	r18, 0x3d	; 61
    50f8:	3e b7       	in	r19, 0x3e	; 62
    50fa:	28 5f       	subi	r18, 0xF8	; 248
    50fc:	3f 4f       	sbci	r19, 0xFF	; 255
    50fe:	0f b6       	in	r0, 0x3f	; 63
    5100:	f8 94       	cli
    5102:	3e bf       	out	0x3e, r19	; 62
    5104:	0f be       	out	0x3f, r0	; 63
    5106:	2d bf       	out	0x3d, r18	; 61
    5108:	81 11       	cpse	r24, r1
    510a:	b6 cf       	rjmp	.-148    	; 0x5078 <_Z8setSpoolh+0x410>
    510c:	60 e2       	ldi	r22, 0x20	; 32
    510e:	73 e0       	ldi	r23, 0x03	; 3
    5110:	80 e0       	ldi	r24, 0x00	; 0
    5112:	90 e0       	ldi	r25, 0x00	; 0
    5114:	0e 94 e3 0a 	call	0x15c6	; 0x15c6 <delay>
    5118:	60 ed       	ldi	r22, 0xD0	; 208
    511a:	77 e0       	ldi	r23, 0x07	; 7
    511c:	80 e0       	ldi	r24, 0x00	; 0
    511e:	90 e0       	ldi	r25, 0x00	; 0
    5120:	0e 94 e3 0a 	call	0x15c6	; 0x15c6 <delay>
    5124:	04 e6       	ldi	r16, 0x64	; 100
    5126:	10 e0       	ldi	r17, 0x00	; 0
    5128:	84 e1       	ldi	r24, 0x14	; 20
    512a:	8c 9d       	mul	r24, r12
    512c:	e0 01       	movw	r28, r0
    512e:	8d 9d       	mul	r24, r13
    5130:	d0 0d       	add	r29, r0
    5132:	11 24       	eor	r1, r1
    5134:	c9 58       	subi	r28, 0x89	; 137
    5136:	da 4f       	sbci	r29, 0xFA	; 250
    5138:	c3 01       	movw	r24, r6
    513a:	0e 94 18 1e 	call	0x3c30	; 0x3c30 <_ZN5HX7114readEv>
    513e:	c8 80       	ld	r12, Y
    5140:	d9 80       	ldd	r13, Y+1	; 0x01
    5142:	ea 80       	ldd	r14, Y+2	; 0x02
    5144:	fb 80       	ldd	r15, Y+3	; 0x03
    5146:	6c 0d       	add	r22, r12
    5148:	7d 1d       	adc	r23, r13
    514a:	8e 1d       	adc	r24, r14
    514c:	9f 1d       	adc	r25, r15
    514e:	68 83       	st	Y, r22
    5150:	79 83       	std	Y+1, r23	; 0x01
    5152:	8a 83       	std	Y+2, r24	; 0x02
    5154:	9b 83       	std	Y+3, r25	; 0x03
    5156:	01 50       	subi	r16, 0x01	; 1
    5158:	11 09       	sbc	r17, r1
    515a:	71 f7       	brne	.-36     	; 0x5138 <_Z8setSpoolh+0x4d0>
    515c:	24 e6       	ldi	r18, 0x64	; 100
    515e:	30 e0       	ldi	r19, 0x00	; 0
    5160:	40 e0       	ldi	r20, 0x00	; 0
    5162:	50 e0       	ldi	r21, 0x00	; 0
    5164:	0e 94 39 3b 	call	0x7672	; 0x7672 <__divmodsi4>
    5168:	ba 01       	movw	r22, r20
    516a:	a9 01       	movw	r20, r18
    516c:	48 83       	st	Y, r20
    516e:	59 83       	std	Y+1, r21	; 0x01
    5170:	6a 83       	std	Y+2, r22	; 0x02
    5172:	7b 83       	std	Y+3, r23	; 0x03
    5174:	c4 01       	movw	r24, r8
    5176:	84 5c       	subi	r24, 0xC4	; 196
    5178:	9e 4f       	sbci	r25, 0xFE	; 254
    517a:	0e 94 1e 3b 	call	0x763c	; 0x763c <eeprom_write_dword>
    517e:	66 e1       	ldi	r22, 0x16	; 22
    5180:	89 e0       	ldi	r24, 0x09	; 9
    5182:	90 e0       	ldi	r25, 0x00	; 0
    5184:	df 91       	pop	r29
    5186:	cf 91       	pop	r28
    5188:	1f 91       	pop	r17
    518a:	0f 91       	pop	r16
    518c:	ff 90       	pop	r15
    518e:	ef 90       	pop	r14
    5190:	df 90       	pop	r13
    5192:	cf 90       	pop	r12
    5194:	bf 90       	pop	r11
    5196:	af 90       	pop	r10
    5198:	9f 90       	pop	r9
    519a:	8f 90       	pop	r8
    519c:	7f 90       	pop	r7
    519e:	6f 90       	pop	r6
    51a0:	5f 90       	pop	r5
    51a2:	4f 90       	pop	r4
    51a4:	3f 90       	pop	r3
    51a6:	2f 90       	pop	r2
    51a8:	0c 94 0a 19 	jmp	0x3214	; 0x3214 <_Z3WDTjh>

000051ac <_Z9setSpool4v>:
    51ac:	83 e0       	ldi	r24, 0x03	; 3
    51ae:	0c 94 34 26 	jmp	0x4c68	; 0x4c68 <_Z8setSpoolh>

000051b2 <_Z9setSpool3v>:
    51b2:	82 e0       	ldi	r24, 0x02	; 2
    51b4:	0c 94 34 26 	jmp	0x4c68	; 0x4c68 <_Z8setSpoolh>

000051b8 <_Z9setSpool2v>:
    51b8:	81 e0       	ldi	r24, 0x01	; 1
    51ba:	0c 94 34 26 	jmp	0x4c68	; 0x4c68 <_Z8setSpoolh>

000051be <_Z9setSpool1v>:
    51be:	80 e0       	ldi	r24, 0x00	; 0
    51c0:	0c 94 34 26 	jmp	0x4c68	; 0x4c68 <_Z8setSpoolh>

000051c4 <_ZN5HX711D0Ev>:
    51c4:	0c 94 d6 3e 	jmp	0x7dac	; 0x7dac <free>

000051c8 <__vector_24>:
    51c8:	1f 92       	push	r1
    51ca:	0f 92       	push	r0
    51cc:	0f b6       	in	r0, 0x3f	; 63
    51ce:	0f 92       	push	r0
    51d0:	11 24       	eor	r1, r1
    51d2:	2f 93       	push	r18
    51d4:	3f 93       	push	r19
    51d6:	4f 93       	push	r20
    51d8:	5f 93       	push	r21
    51da:	6f 93       	push	r22
    51dc:	7f 93       	push	r23
    51de:	8f 93       	push	r24
    51e0:	9f 93       	push	r25
    51e2:	af 93       	push	r26
    51e4:	bf 93       	push	r27
    51e6:	ef 93       	push	r30
    51e8:	ff 93       	push	r31
    51ea:	80 91 b9 00 	lds	r24, 0x00B9	; 0x8000b9 <__TEXT_REGION_LENGTH__+0x7e00b9>
    51ee:	88 7f       	andi	r24, 0xF8	; 248
    51f0:	80 36       	cpi	r24, 0x60	; 96
    51f2:	09 f4       	brne	.+2      	; 0x51f6 <__vector_24+0x2e>
    51f4:	4a c0       	rjmp	.+148    	; 0x528a <__vector_24+0xc2>
    51f6:	f0 f5       	brcc	.+124    	; 0x5274 <__vector_24+0xac>
    51f8:	88 32       	cpi	r24, 0x28	; 40
    51fa:	09 f4       	brne	.+2      	; 0x51fe <__vector_24+0x36>
    51fc:	a7 c0       	rjmp	.+334    	; 0x534c <__vector_24+0x184>
    51fe:	18 f5       	brcc	.+70     	; 0x5246 <__vector_24+0x7e>
    5200:	80 31       	cpi	r24, 0x10	; 16
    5202:	09 f4       	brne	.+2      	; 0x5206 <__vector_24+0x3e>
    5204:	9b c0       	rjmp	.+310    	; 0x533c <__vector_24+0x174>
    5206:	b8 f4       	brcc	.+46     	; 0x5236 <__vector_24+0x6e>
    5208:	88 23       	and	r24, r24
    520a:	09 f4       	brne	.+2      	; 0x520e <__vector_24+0x46>
    520c:	05 c1       	rjmp	.+522    	; 0x5418 <__vector_24+0x250>
    520e:	88 30       	cpi	r24, 0x08	; 8
    5210:	09 f4       	brne	.+2      	; 0x5214 <__vector_24+0x4c>
    5212:	94 c0       	rjmp	.+296    	; 0x533c <__vector_24+0x174>
    5214:	ff 91       	pop	r31
    5216:	ef 91       	pop	r30
    5218:	bf 91       	pop	r27
    521a:	af 91       	pop	r26
    521c:	9f 91       	pop	r25
    521e:	8f 91       	pop	r24
    5220:	7f 91       	pop	r23
    5222:	6f 91       	pop	r22
    5224:	5f 91       	pop	r21
    5226:	4f 91       	pop	r20
    5228:	3f 91       	pop	r19
    522a:	2f 91       	pop	r18
    522c:	0f 90       	pop	r0
    522e:	0f be       	out	0x3f, r0	; 63
    5230:	0f 90       	pop	r0
    5232:	1f 90       	pop	r1
    5234:	18 95       	reti
    5236:	88 31       	cpi	r24, 0x18	; 24
    5238:	09 f4       	brne	.+2      	; 0x523c <__vector_24+0x74>
    523a:	88 c0       	rjmp	.+272    	; 0x534c <__vector_24+0x184>
    523c:	80 32       	cpi	r24, 0x20	; 32
    523e:	51 f7       	brne	.-44     	; 0x5214 <__vector_24+0x4c>
    5240:	80 93 6f 03 	sts	0x036F, r24	; 0x80036f <twi_error>
    5244:	14 c0       	rjmp	.+40     	; 0x526e <__vector_24+0xa6>
    5246:	80 34       	cpi	r24, 0x40	; 64
    5248:	09 f4       	brne	.+2      	; 0x524c <__vector_24+0x84>
    524a:	a5 c0       	rjmp	.+330    	; 0x5396 <__vector_24+0x1ce>
    524c:	40 f4       	brcc	.+16     	; 0x525e <__vector_24+0x96>
    524e:	80 33       	cpi	r24, 0x30	; 48
    5250:	b9 f3       	breq	.-18     	; 0x5240 <__vector_24+0x78>
    5252:	88 33       	cpi	r24, 0x38	; 56
    5254:	f9 f6       	brne	.-66     	; 0x5214 <__vector_24+0x4c>
    5256:	80 93 6f 03 	sts	0x036F, r24	; 0x80036f <twi_error>
    525a:	85 ec       	ldi	r24, 0xC5	; 197
    525c:	bc c0       	rjmp	.+376    	; 0x53d6 <__vector_24+0x20e>
    525e:	80 35       	cpi	r24, 0x50	; 80
    5260:	09 f4       	brne	.+2      	; 0x5264 <__vector_24+0x9c>
    5262:	89 c0       	rjmp	.+274    	; 0x5376 <__vector_24+0x1ae>
    5264:	88 35       	cpi	r24, 0x58	; 88
    5266:	09 f4       	brne	.+2      	; 0x526a <__vector_24+0xa2>
    5268:	9e c0       	rjmp	.+316    	; 0x53a6 <__vector_24+0x1de>
    526a:	88 34       	cpi	r24, 0x48	; 72
    526c:	99 f6       	brne	.-90     	; 0x5214 <__vector_24+0x4c>
    526e:	0e 94 b5 07 	call	0xf6a	; 0xf6a <twi_stop>
    5272:	d0 cf       	rjmp	.-96     	; 0x5214 <__vector_24+0x4c>
    5274:	88 39       	cpi	r24, 0x98	; 152
    5276:	09 f4       	brne	.+2      	; 0x527a <__vector_24+0xb2>
    5278:	94 c0       	rjmp	.+296    	; 0x53a2 <__vector_24+0x1da>
    527a:	38 f5       	brcc	.+78     	; 0x52ca <__vector_24+0x102>
    527c:	88 37       	cpi	r24, 0x78	; 120
    527e:	29 f0       	breq	.+10     	; 0x528a <__vector_24+0xc2>
    5280:	50 f4       	brcc	.+20     	; 0x5296 <__vector_24+0xce>
    5282:	88 36       	cpi	r24, 0x68	; 104
    5284:	11 f0       	breq	.+4      	; 0x528a <__vector_24+0xc2>
    5286:	80 37       	cpi	r24, 0x70	; 112
    5288:	29 f6       	brne	.-118    	; 0x5214 <__vector_24+0x4c>
    528a:	83 e0       	ldi	r24, 0x03	; 3
    528c:	80 93 71 03 	sts	0x0371, r24	; 0x800371 <twi_state>
    5290:	10 92 3c 03 	sts	0x033C, r1	; 0x80033c <twi_rxBufferIndex>
    5294:	57 c0       	rjmp	.+174    	; 0x5344 <__vector_24+0x17c>
    5296:	88 38       	cpi	r24, 0x88	; 136
    5298:	09 f4       	brne	.+2      	; 0x529c <__vector_24+0xd4>
    529a:	83 c0       	rjmp	.+262    	; 0x53a2 <__vector_24+0x1da>
    529c:	80 39       	cpi	r24, 0x90	; 144
    529e:	19 f0       	breq	.+6      	; 0x52a6 <__vector_24+0xde>
    52a0:	80 38       	cpi	r24, 0x80	; 128
    52a2:	09 f0       	breq	.+2      	; 0x52a6 <__vector_24+0xde>
    52a4:	b7 cf       	rjmp	.-146    	; 0x5214 <__vector_24+0x4c>
    52a6:	80 91 3c 03 	lds	r24, 0x033C	; 0x80033c <twi_rxBufferIndex>
    52aa:	80 32       	cpi	r24, 0x20	; 32
    52ac:	08 f0       	brcs	.+2      	; 0x52b0 <__vector_24+0xe8>
    52ae:	79 c0       	rjmp	.+242    	; 0x53a2 <__vector_24+0x1da>
    52b0:	e0 91 3c 03 	lds	r30, 0x033C	; 0x80033c <twi_rxBufferIndex>
    52b4:	81 e0       	ldi	r24, 0x01	; 1
    52b6:	8e 0f       	add	r24, r30
    52b8:	80 93 3c 03 	sts	0x033C, r24	; 0x80033c <twi_rxBufferIndex>
    52bc:	80 91 bb 00 	lds	r24, 0x00BB	; 0x8000bb <__TEXT_REGION_LENGTH__+0x7e00bb>
    52c0:	f0 e0       	ldi	r31, 0x00	; 0
    52c2:	e4 5e       	subi	r30, 0xE4	; 228
    52c4:	fc 4f       	sbci	r31, 0xFC	; 252
    52c6:	80 83       	st	Z, r24
    52c8:	3d c0       	rjmp	.+122    	; 0x5344 <__vector_24+0x17c>
    52ca:	80 3b       	cpi	r24, 0xB0	; 176
    52cc:	39 f0       	breq	.+14     	; 0x52dc <__vector_24+0x114>
    52ce:	e0 f4       	brcc	.+56     	; 0x5308 <__vector_24+0x140>
    52d0:	80 3a       	cpi	r24, 0xA0	; 160
    52d2:	09 f4       	brne	.+2      	; 0x52d6 <__vector_24+0x10e>
    52d4:	85 c0       	rjmp	.+266    	; 0x53e0 <__vector_24+0x218>
    52d6:	88 3a       	cpi	r24, 0xA8	; 168
    52d8:	09 f0       	breq	.+2      	; 0x52dc <__vector_24+0x114>
    52da:	9c cf       	rjmp	.-200    	; 0x5214 <__vector_24+0x4c>
    52dc:	84 e0       	ldi	r24, 0x04	; 4
    52de:	80 93 71 03 	sts	0x0371, r24	; 0x800371 <twi_state>
    52e2:	10 92 1b 03 	sts	0x031B, r1	; 0x80031b <twi_txBufferIndex>
    52e6:	10 92 1a 03 	sts	0x031A, r1	; 0x80031a <twi_txBufferLength>
    52ea:	e0 91 3f 03 	lds	r30, 0x033F	; 0x80033f <twi_onSlaveTransmit>
    52ee:	f0 91 40 03 	lds	r31, 0x0340	; 0x800340 <twi_onSlaveTransmit+0x1>
    52f2:	09 95       	icall
    52f4:	80 91 1a 03 	lds	r24, 0x031A	; 0x80031a <twi_txBufferLength>
    52f8:	81 11       	cpse	r24, r1
    52fa:	0f c0       	rjmp	.+30     	; 0x531a <__vector_24+0x152>
    52fc:	81 e0       	ldi	r24, 0x01	; 1
    52fe:	80 93 1a 03 	sts	0x031A, r24	; 0x80031a <twi_txBufferLength>
    5302:	10 92 fa 02 	sts	0x02FA, r1	; 0x8002fa <twi_txBuffer>
    5306:	09 c0       	rjmp	.+18     	; 0x531a <__vector_24+0x152>
    5308:	80 3c       	cpi	r24, 0xC0	; 192
    530a:	09 f4       	brne	.+2      	; 0x530e <__vector_24+0x146>
    530c:	a6 cf       	rjmp	.-180    	; 0x525a <__vector_24+0x92>
    530e:	88 3c       	cpi	r24, 0xC8	; 200
    5310:	09 f4       	brne	.+2      	; 0x5314 <__vector_24+0x14c>
    5312:	a3 cf       	rjmp	.-186    	; 0x525a <__vector_24+0x92>
    5314:	88 3b       	cpi	r24, 0xB8	; 184
    5316:	09 f0       	breq	.+2      	; 0x531a <__vector_24+0x152>
    5318:	7d cf       	rjmp	.-262    	; 0x5214 <__vector_24+0x4c>
    531a:	e0 91 1b 03 	lds	r30, 0x031B	; 0x80031b <twi_txBufferIndex>
    531e:	81 e0       	ldi	r24, 0x01	; 1
    5320:	8e 0f       	add	r24, r30
    5322:	80 93 1b 03 	sts	0x031B, r24	; 0x80031b <twi_txBufferIndex>
    5326:	f0 e0       	ldi	r31, 0x00	; 0
    5328:	e6 50       	subi	r30, 0x06	; 6
    532a:	fd 4f       	sbci	r31, 0xFD	; 253
    532c:	80 81       	ld	r24, Z
    532e:	80 93 bb 00 	sts	0x00BB, r24	; 0x8000bb <__TEXT_REGION_LENGTH__+0x7e00bb>
    5332:	90 91 1b 03 	lds	r25, 0x031B	; 0x80031b <twi_txBufferIndex>
    5336:	80 91 1a 03 	lds	r24, 0x031A	; 0x80031a <twi_txBufferLength>
    533a:	31 c0       	rjmp	.+98     	; 0x539e <__vector_24+0x1d6>
    533c:	80 91 6a 03 	lds	r24, 0x036A	; 0x80036a <twi_slarw>
    5340:	80 93 bb 00 	sts	0x00BB, r24	; 0x8000bb <__TEXT_REGION_LENGTH__+0x7e00bb>
    5344:	85 ec       	ldi	r24, 0xC5	; 197
    5346:	80 93 bc 00 	sts	0x00BC, r24	; 0x8000bc <__TEXT_REGION_LENGTH__+0x7e00bc>
    534a:	64 cf       	rjmp	.-312    	; 0x5214 <__vector_24+0x4c>
    534c:	90 91 6c 03 	lds	r25, 0x036C	; 0x80036c <twi_masterBufferIndex>
    5350:	80 91 6b 03 	lds	r24, 0x036B	; 0x80036b <twi_masterBufferLength>
    5354:	98 17       	cp	r25, r24
    5356:	b8 f5       	brcc	.+110    	; 0x53c6 <__vector_24+0x1fe>
    5358:	80 91 6d 03 	lds	r24, 0x036D	; 0x80036d <twi_masterBuffer>
    535c:	90 91 6e 03 	lds	r25, 0x036E	; 0x80036e <twi_masterBuffer+0x1>
    5360:	e0 91 6c 03 	lds	r30, 0x036C	; 0x80036c <twi_masterBufferIndex>
    5364:	21 e0       	ldi	r18, 0x01	; 1
    5366:	2e 0f       	add	r18, r30
    5368:	20 93 6c 03 	sts	0x036C, r18	; 0x80036c <twi_masterBufferIndex>
    536c:	e8 0f       	add	r30, r24
    536e:	f9 2f       	mov	r31, r25
    5370:	f1 1d       	adc	r31, r1
    5372:	80 81       	ld	r24, Z
    5374:	e5 cf       	rjmp	.-54     	; 0x5340 <__vector_24+0x178>
    5376:	20 91 6d 03 	lds	r18, 0x036D	; 0x80036d <twi_masterBuffer>
    537a:	30 91 6e 03 	lds	r19, 0x036E	; 0x80036e <twi_masterBuffer+0x1>
    537e:	e0 91 6c 03 	lds	r30, 0x036C	; 0x80036c <twi_masterBufferIndex>
    5382:	81 e0       	ldi	r24, 0x01	; 1
    5384:	8e 0f       	add	r24, r30
    5386:	80 93 6c 03 	sts	0x036C, r24	; 0x80036c <twi_masterBufferIndex>
    538a:	80 91 bb 00 	lds	r24, 0x00BB	; 0x8000bb <__TEXT_REGION_LENGTH__+0x7e00bb>
    538e:	e2 0f       	add	r30, r18
    5390:	f3 2f       	mov	r31, r19
    5392:	f1 1d       	adc	r31, r1
    5394:	80 83       	st	Z, r24
    5396:	90 91 6c 03 	lds	r25, 0x036C	; 0x80036c <twi_masterBufferIndex>
    539a:	80 91 6b 03 	lds	r24, 0x036B	; 0x80036b <twi_masterBufferLength>
    539e:	98 17       	cp	r25, r24
    53a0:	88 f2       	brcs	.-94     	; 0x5344 <__vector_24+0x17c>
    53a2:	85 e8       	ldi	r24, 0x85	; 133
    53a4:	d0 cf       	rjmp	.-96     	; 0x5346 <__vector_24+0x17e>
    53a6:	20 91 6d 03 	lds	r18, 0x036D	; 0x80036d <twi_masterBuffer>
    53aa:	30 91 6e 03 	lds	r19, 0x036E	; 0x80036e <twi_masterBuffer+0x1>
    53ae:	e0 91 6c 03 	lds	r30, 0x036C	; 0x80036c <twi_masterBufferIndex>
    53b2:	81 e0       	ldi	r24, 0x01	; 1
    53b4:	8e 0f       	add	r24, r30
    53b6:	80 93 6c 03 	sts	0x036C, r24	; 0x80036c <twi_masterBufferIndex>
    53ba:	80 91 bb 00 	lds	r24, 0x00BB	; 0x8000bb <__TEXT_REGION_LENGTH__+0x7e00bb>
    53be:	e2 0f       	add	r30, r18
    53c0:	f3 2f       	mov	r31, r19
    53c2:	f1 1d       	adc	r31, r1
    53c4:	80 83       	st	Z, r24
    53c6:	80 91 70 03 	lds	r24, 0x0370	; 0x800370 <twi_sendStop>
    53ca:	81 11       	cpse	r24, r1
    53cc:	50 cf       	rjmp	.-352    	; 0x526e <__vector_24+0xa6>
    53ce:	81 e0       	ldi	r24, 0x01	; 1
    53d0:	80 93 69 03 	sts	0x0369, r24	; 0x800369 <twi_inRepStart>
    53d4:	84 ea       	ldi	r24, 0xA4	; 164
    53d6:	80 93 bc 00 	sts	0x00BC, r24	; 0x8000bc <__TEXT_REGION_LENGTH__+0x7e00bc>
    53da:	10 92 71 03 	sts	0x0371, r1	; 0x800371 <twi_state>
    53de:	1a cf       	rjmp	.-460    	; 0x5214 <__vector_24+0x4c>
    53e0:	85 ec       	ldi	r24, 0xC5	; 197
    53e2:	80 93 bc 00 	sts	0x00BC, r24	; 0x8000bc <__TEXT_REGION_LENGTH__+0x7e00bc>
    53e6:	10 92 71 03 	sts	0x0371, r1	; 0x800371 <twi_state>
    53ea:	80 91 3c 03 	lds	r24, 0x033C	; 0x80033c <twi_rxBufferIndex>
    53ee:	80 32       	cpi	r24, 0x20	; 32
    53f0:	30 f4       	brcc	.+12     	; 0x53fe <__vector_24+0x236>
    53f2:	e0 91 3c 03 	lds	r30, 0x033C	; 0x80033c <twi_rxBufferIndex>
    53f6:	f0 e0       	ldi	r31, 0x00	; 0
    53f8:	e4 5e       	subi	r30, 0xE4	; 228
    53fa:	fc 4f       	sbci	r31, 0xFC	; 252
    53fc:	10 82       	st	Z, r1
    53fe:	60 91 3c 03 	lds	r22, 0x033C	; 0x80033c <twi_rxBufferIndex>
    5402:	70 e0       	ldi	r23, 0x00	; 0
    5404:	e0 91 3d 03 	lds	r30, 0x033D	; 0x80033d <twi_onSlaveReceive>
    5408:	f0 91 3e 03 	lds	r31, 0x033E	; 0x80033e <twi_onSlaveReceive+0x1>
    540c:	8c e1       	ldi	r24, 0x1C	; 28
    540e:	93 e0       	ldi	r25, 0x03	; 3
    5410:	09 95       	icall
    5412:	10 92 3c 03 	sts	0x033C, r1	; 0x80033c <twi_rxBufferIndex>
    5416:	fe ce       	rjmp	.-516    	; 0x5214 <__vector_24+0x4c>
    5418:	10 92 6f 03 	sts	0x036F, r1	; 0x80036f <twi_error>
    541c:	28 cf       	rjmp	.-432    	; 0x526e <__vector_24+0xa6>

0000541e <__vector_16>:
    541e:	1f 92       	push	r1
    5420:	0f 92       	push	r0
    5422:	0f b6       	in	r0, 0x3f	; 63
    5424:	0f 92       	push	r0
    5426:	11 24       	eor	r1, r1
    5428:	2f 93       	push	r18
    542a:	3f 93       	push	r19
    542c:	8f 93       	push	r24
    542e:	9f 93       	push	r25
    5430:	af 93       	push	r26
    5432:	bf 93       	push	r27
    5434:	80 91 f2 02 	lds	r24, 0x02F2	; 0x8002f2 <timer0_millis>
    5438:	90 91 f3 02 	lds	r25, 0x02F3	; 0x8002f3 <timer0_millis+0x1>
    543c:	a0 91 f4 02 	lds	r26, 0x02F4	; 0x8002f4 <timer0_millis+0x2>
    5440:	b0 91 f5 02 	lds	r27, 0x02F5	; 0x8002f5 <timer0_millis+0x3>
    5444:	30 91 f1 02 	lds	r19, 0x02F1	; 0x8002f1 <timer0_fract>
    5448:	23 e0       	ldi	r18, 0x03	; 3
    544a:	23 0f       	add	r18, r19
    544c:	2d 37       	cpi	r18, 0x7D	; 125
    544e:	68 f1       	brcs	.+90     	; 0x54aa <__vector_16+0x8c>
    5450:	26 e8       	ldi	r18, 0x86	; 134
    5452:	23 0f       	add	r18, r19
    5454:	02 96       	adiw	r24, 0x02	; 2
    5456:	a1 1d       	adc	r26, r1
    5458:	b1 1d       	adc	r27, r1
    545a:	20 93 f1 02 	sts	0x02F1, r18	; 0x8002f1 <timer0_fract>
    545e:	80 93 f2 02 	sts	0x02F2, r24	; 0x8002f2 <timer0_millis>
    5462:	90 93 f3 02 	sts	0x02F3, r25	; 0x8002f3 <timer0_millis+0x1>
    5466:	a0 93 f4 02 	sts	0x02F4, r26	; 0x8002f4 <timer0_millis+0x2>
    546a:	b0 93 f5 02 	sts	0x02F5, r27	; 0x8002f5 <timer0_millis+0x3>
    546e:	80 91 f6 02 	lds	r24, 0x02F6	; 0x8002f6 <timer0_overflow_count>
    5472:	90 91 f7 02 	lds	r25, 0x02F7	; 0x8002f7 <timer0_overflow_count+0x1>
    5476:	a0 91 f8 02 	lds	r26, 0x02F8	; 0x8002f8 <timer0_overflow_count+0x2>
    547a:	b0 91 f9 02 	lds	r27, 0x02F9	; 0x8002f9 <timer0_overflow_count+0x3>
    547e:	01 96       	adiw	r24, 0x01	; 1
    5480:	a1 1d       	adc	r26, r1
    5482:	b1 1d       	adc	r27, r1
    5484:	80 93 f6 02 	sts	0x02F6, r24	; 0x8002f6 <timer0_overflow_count>
    5488:	90 93 f7 02 	sts	0x02F7, r25	; 0x8002f7 <timer0_overflow_count+0x1>
    548c:	a0 93 f8 02 	sts	0x02F8, r26	; 0x8002f8 <timer0_overflow_count+0x2>
    5490:	b0 93 f9 02 	sts	0x02F9, r27	; 0x8002f9 <timer0_overflow_count+0x3>
    5494:	bf 91       	pop	r27
    5496:	af 91       	pop	r26
    5498:	9f 91       	pop	r25
    549a:	8f 91       	pop	r24
    549c:	3f 91       	pop	r19
    549e:	2f 91       	pop	r18
    54a0:	0f 90       	pop	r0
    54a2:	0f be       	out	0x3f, r0	; 63
    54a4:	0f 90       	pop	r0
    54a6:	1f 90       	pop	r1
    54a8:	18 95       	reti
    54aa:	01 96       	adiw	r24, 0x01	; 1
    54ac:	a1 1d       	adc	r26, r1
    54ae:	b1 1d       	adc	r27, r1
    54b0:	d4 cf       	rjmp	.-88     	; 0x545a <__vector_16+0x3c>

000054b2 <__vector_2>:
    54b2:	1f 92       	push	r1
    54b4:	0f 92       	push	r0
    54b6:	0f b6       	in	r0, 0x3f	; 63
    54b8:	0f 92       	push	r0
    54ba:	11 24       	eor	r1, r1
    54bc:	2f 93       	push	r18
    54be:	3f 93       	push	r19
    54c0:	4f 93       	push	r20
    54c2:	5f 93       	push	r21
    54c4:	6f 93       	push	r22
    54c6:	7f 93       	push	r23
    54c8:	8f 93       	push	r24
    54ca:	9f 93       	push	r25
    54cc:	af 93       	push	r26
    54ce:	bf 93       	push	r27
    54d0:	ef 93       	push	r30
    54d2:	ff 93       	push	r31
    54d4:	e0 91 05 01 	lds	r30, 0x0105	; 0x800105 <intFunc+0x2>
    54d8:	f0 91 06 01 	lds	r31, 0x0106	; 0x800106 <intFunc+0x3>
    54dc:	09 95       	icall
    54de:	ff 91       	pop	r31
    54e0:	ef 91       	pop	r30
    54e2:	bf 91       	pop	r27
    54e4:	af 91       	pop	r26
    54e6:	9f 91       	pop	r25
    54e8:	8f 91       	pop	r24
    54ea:	7f 91       	pop	r23
    54ec:	6f 91       	pop	r22
    54ee:	5f 91       	pop	r21
    54f0:	4f 91       	pop	r20
    54f2:	3f 91       	pop	r19
    54f4:	2f 91       	pop	r18
    54f6:	0f 90       	pop	r0
    54f8:	0f be       	out	0x3f, r0	; 63
    54fa:	0f 90       	pop	r0
    54fc:	1f 90       	pop	r1
    54fe:	18 95       	reti

00005500 <__vector_1>:
    5500:	1f 92       	push	r1
    5502:	0f 92       	push	r0
    5504:	0f b6       	in	r0, 0x3f	; 63
    5506:	0f 92       	push	r0
    5508:	11 24       	eor	r1, r1
    550a:	2f 93       	push	r18
    550c:	3f 93       	push	r19
    550e:	4f 93       	push	r20
    5510:	5f 93       	push	r21
    5512:	6f 93       	push	r22
    5514:	7f 93       	push	r23
    5516:	8f 93       	push	r24
    5518:	9f 93       	push	r25
    551a:	af 93       	push	r26
    551c:	bf 93       	push	r27
    551e:	ef 93       	push	r30
    5520:	ff 93       	push	r31
    5522:	e0 91 03 01 	lds	r30, 0x0103	; 0x800103 <intFunc>
    5526:	f0 91 04 01 	lds	r31, 0x0104	; 0x800104 <intFunc+0x1>
    552a:	09 95       	icall
    552c:	ff 91       	pop	r31
    552e:	ef 91       	pop	r30
    5530:	bf 91       	pop	r27
    5532:	af 91       	pop	r26
    5534:	9f 91       	pop	r25
    5536:	8f 91       	pop	r24
    5538:	7f 91       	pop	r23
    553a:	6f 91       	pop	r22
    553c:	5f 91       	pop	r21
    553e:	4f 91       	pop	r20
    5540:	3f 91       	pop	r19
    5542:	2f 91       	pop	r18
    5544:	0f 90       	pop	r0
    5546:	0f be       	out	0x3f, r0	; 63
    5548:	0f 90       	pop	r0
    554a:	1f 90       	pop	r1
    554c:	18 95       	reti

0000554e <__vector_19>:
    554e:	1f 92       	push	r1
    5550:	0f 92       	push	r0
    5552:	0f b6       	in	r0, 0x3f	; 63
    5554:	0f 92       	push	r0
    5556:	11 24       	eor	r1, r1
    5558:	2f 93       	push	r18
    555a:	3f 93       	push	r19
    555c:	4f 93       	push	r20
    555e:	5f 93       	push	r21
    5560:	6f 93       	push	r22
    5562:	7f 93       	push	r23
    5564:	8f 93       	push	r24
    5566:	9f 93       	push	r25
    5568:	af 93       	push	r26
    556a:	bf 93       	push	r27
    556c:	ef 93       	push	r30
    556e:	ff 93       	push	r31
    5570:	8d ef       	ldi	r24, 0xFD	; 253
    5572:	93 e0       	ldi	r25, 0x03	; 3
    5574:	0e 94 b5 08 	call	0x116a	; 0x116a <_ZN14HardwareSerial17_tx_udr_empty_irqEv>
    5578:	ff 91       	pop	r31
    557a:	ef 91       	pop	r30
    557c:	bf 91       	pop	r27
    557e:	af 91       	pop	r26
    5580:	9f 91       	pop	r25
    5582:	8f 91       	pop	r24
    5584:	7f 91       	pop	r23
    5586:	6f 91       	pop	r22
    5588:	5f 91       	pop	r21
    558a:	4f 91       	pop	r20
    558c:	3f 91       	pop	r19
    558e:	2f 91       	pop	r18
    5590:	0f 90       	pop	r0
    5592:	0f be       	out	0x3f, r0	; 63
    5594:	0f 90       	pop	r0
    5596:	1f 90       	pop	r1
    5598:	18 95       	reti

0000559a <__vector_18>:
    559a:	1f 92       	push	r1
    559c:	0f 92       	push	r0
    559e:	0f b6       	in	r0, 0x3f	; 63
    55a0:	0f 92       	push	r0
    55a2:	11 24       	eor	r1, r1
    55a4:	2f 93       	push	r18
    55a6:	8f 93       	push	r24
    55a8:	9f 93       	push	r25
    55aa:	ef 93       	push	r30
    55ac:	ff 93       	push	r31
    55ae:	e0 91 0d 04 	lds	r30, 0x040D	; 0x80040d <Serial+0x10>
    55b2:	f0 91 0e 04 	lds	r31, 0x040E	; 0x80040e <Serial+0x11>
    55b6:	80 81       	ld	r24, Z
    55b8:	e0 91 13 04 	lds	r30, 0x0413	; 0x800413 <Serial+0x16>
    55bc:	f0 91 14 04 	lds	r31, 0x0414	; 0x800414 <Serial+0x17>
    55c0:	82 fd       	sbrc	r24, 2
    55c2:	1b c0       	rjmp	.+54     	; 0x55fa <__vector_18+0x60>
    55c4:	90 81       	ld	r25, Z
    55c6:	80 91 16 04 	lds	r24, 0x0416	; 0x800416 <Serial+0x19>
    55ca:	8f 5f       	subi	r24, 0xFF	; 255
    55cc:	8f 73       	andi	r24, 0x3F	; 63
    55ce:	20 91 17 04 	lds	r18, 0x0417	; 0x800417 <Serial+0x1a>
    55d2:	82 17       	cp	r24, r18
    55d4:	41 f0       	breq	.+16     	; 0x55e6 <__vector_18+0x4c>
    55d6:	e0 91 16 04 	lds	r30, 0x0416	; 0x800416 <Serial+0x19>
    55da:	f0 e0       	ldi	r31, 0x00	; 0
    55dc:	e3 50       	subi	r30, 0x03	; 3
    55de:	fc 4f       	sbci	r31, 0xFC	; 252
    55e0:	95 8f       	std	Z+29, r25	; 0x1d
    55e2:	80 93 16 04 	sts	0x0416, r24	; 0x800416 <Serial+0x19>
    55e6:	ff 91       	pop	r31
    55e8:	ef 91       	pop	r30
    55ea:	9f 91       	pop	r25
    55ec:	8f 91       	pop	r24
    55ee:	2f 91       	pop	r18
    55f0:	0f 90       	pop	r0
    55f2:	0f be       	out	0x3f, r0	; 63
    55f4:	0f 90       	pop	r0
    55f6:	1f 90       	pop	r1
    55f8:	18 95       	reti
    55fa:	80 81       	ld	r24, Z
    55fc:	f4 cf       	rjmp	.-24     	; 0x55e6 <__vector_18+0x4c>

000055fe <__vector_6>:
    55fe:	1f 92       	push	r1
    5600:	0f 92       	push	r0
    5602:	0f b6       	in	r0, 0x3f	; 63
    5604:	0f 92       	push	r0
    5606:	11 24       	eor	r1, r1
    5608:	2f 93       	push	r18
    560a:	3f 93       	push	r19
    560c:	4f 93       	push	r20
    560e:	5f 93       	push	r21
    5610:	6f 93       	push	r22
    5612:	7f 93       	push	r23
    5614:	8f 93       	push	r24
    5616:	9f 93       	push	r25
    5618:	af 93       	push	r26
    561a:	bf 93       	push	r27
    561c:	ef 93       	push	r30
    561e:	ff 93       	push	r31
    5620:	80 91 9f 02 	lds	r24, 0x029F	; 0x80029f <globalErrorFuncUUID>
    5624:	41 e0       	ldi	r20, 0x01	; 1
    5626:	50 e0       	ldi	r21, 0x00	; 0
    5628:	60 e0       	ldi	r22, 0x00	; 0
    562a:	70 e0       	ldi	r23, 0x00	; 0
    562c:	04 c0       	rjmp	.+8      	; 0x5636 <__vector_6+0x38>
    562e:	44 0f       	add	r20, r20
    5630:	55 1f       	adc	r21, r21
    5632:	66 1f       	adc	r22, r22
    5634:	77 1f       	adc	r23, r23
    5636:	8a 95       	dec	r24
    5638:	d2 f7       	brpl	.-12     	; 0x562e <__vector_6+0x30>
    563a:	80 91 a0 02 	lds	r24, 0x02A0	; 0x8002a0 <WDT_ERROR>
    563e:	90 91 a1 02 	lds	r25, 0x02A1	; 0x8002a1 <WDT_ERROR+0x1>
    5642:	a0 91 a2 02 	lds	r26, 0x02A2	; 0x8002a2 <WDT_ERROR+0x2>
    5646:	b0 91 a3 02 	lds	r27, 0x02A3	; 0x8002a3 <WDT_ERROR+0x3>
    564a:	48 2b       	or	r20, r24
    564c:	59 2b       	or	r21, r25
    564e:	6a 2b       	or	r22, r26
    5650:	7b 2b       	or	r23, r27
    5652:	40 93 a0 02 	sts	0x02A0, r20	; 0x8002a0 <WDT_ERROR>
    5656:	50 93 a1 02 	sts	0x02A1, r21	; 0x8002a1 <WDT_ERROR+0x1>
    565a:	60 93 a2 02 	sts	0x02A2, r22	; 0x8002a2 <WDT_ERROR+0x2>
    565e:	70 93 a3 02 	sts	0x02A3, r23	; 0x8002a3 <WDT_ERROR+0x3>
    5662:	80 e0       	ldi	r24, 0x00	; 0
    5664:	90 e0       	ldi	r25, 0x00	; 0
    5666:	0e 94 1e 3b 	call	0x763c	; 0x763c <eeprom_write_dword>
    566a:	ff 91       	pop	r31
    566c:	ef 91       	pop	r30
    566e:	bf 91       	pop	r27
    5670:	af 91       	pop	r26
    5672:	9f 91       	pop	r25
    5674:	8f 91       	pop	r24
    5676:	7f 91       	pop	r23
    5678:	6f 91       	pop	r22
    567a:	5f 91       	pop	r21
    567c:	4f 91       	pop	r20
    567e:	3f 91       	pop	r19
    5680:	2f 91       	pop	r18
    5682:	0f 90       	pop	r0
    5684:	0f be       	out	0x3f, r0	; 63
    5686:	0f 90       	pop	r0
    5688:	1f 90       	pop	r1
    568a:	18 95       	reti

0000568c <__vector_4>:
    568c:	1f 92       	push	r1
    568e:	0f 92       	push	r0
    5690:	0f b6       	in	r0, 0x3f	; 63
    5692:	0f 92       	push	r0
    5694:	11 24       	eor	r1, r1
    5696:	2f 93       	push	r18
    5698:	3f 93       	push	r19
    569a:	4f 93       	push	r20
    569c:	5f 93       	push	r21
    569e:	6f 93       	push	r22
    56a0:	7f 93       	push	r23
    56a2:	8f 93       	push	r24
    56a4:	9f 93       	push	r25
    56a6:	af 93       	push	r26
    56a8:	bf 93       	push	r27
    56aa:	cf 93       	push	r28
    56ac:	ef 93       	push	r30
    56ae:	ff 93       	push	r31
    56b0:	80 91 01 01 	lds	r24, 0x0101	; 0x800101 <state>
    56b4:	90 91 02 01 	lds	r25, 0x0102	; 0x800102 <state+0x1>
    56b8:	02 97       	sbiw	r24, 0x02	; 2
    56ba:	51 f4       	brne	.+20     	; 0x56d0 <__vector_4+0x44>
    56bc:	0e 94 16 0b 	call	0x162c	; 0x162c <millis>
    56c0:	60 93 eb 02 	sts	0x02EB, r22	; 0x8002eb <scaleTimer>
    56c4:	70 93 ec 02 	sts	0x02EC, r23	; 0x8002ec <scaleTimer+0x1>
    56c8:	80 93 ed 02 	sts	0x02ED, r24	; 0x8002ed <scaleTimer+0x2>
    56cc:	90 93 ee 02 	sts	0x02EE, r25	; 0x8002ee <scaleTimer+0x3>
    56d0:	31 9b       	sbis	0x06, 1	; 6
    56d2:	04 c0       	rjmp	.+8      	; 0x56dc <__vector_4+0x50>
    56d4:	0e 94 ea 18 	call	0x31d4	; 0x31d4 <_ZN9EncButton7readEncEv.constprop.118>
    56d8:	0e 94 22 0b 	call	0x1644	; 0x1644 <_ZN13VirtEncButton7tickISREa.constprop.126>
    56dc:	32 9b       	sbis	0x06, 2	; 6
    56de:	04 c0       	rjmp	.+8      	; 0x56e8 <__vector_4+0x5c>
    56e0:	0e 94 ea 18 	call	0x31d4	; 0x31d4 <_ZN9EncButton7readEncEv.constprop.118>
    56e4:	0e 94 22 0b 	call	0x1644	; 0x1644 <_ZN13VirtEncButton7tickISREa.constprop.126>
    56e8:	c6 b1       	in	r28, 0x06	; 6
    56ea:	c3 fb       	bst	r28, 3
    56ec:	cc 27       	eor	r28, r28
    56ee:	c0 f9       	bld	r28, 0
    56f0:	80 91 88 02 	lds	r24, 0x0288	; 0x800288 <prevStatePC3>
    56f4:	8c 17       	cp	r24, r28
    56f6:	31 f0       	breq	.+12     	; 0x5704 <__vector_4+0x78>
    56f8:	80 91 d9 05 	lds	r24, 0x05D9	; 0x8005d9 <enc+0x18>
    56fc:	0e 94 cd 18 	call	0x319a	; 0x319a <_Z6EBreadh>
    5700:	c0 93 88 02 	sts	0x0288, r28	; 0x800288 <prevStatePC3>
    5704:	ff 91       	pop	r31
    5706:	ef 91       	pop	r30
    5708:	cf 91       	pop	r28
    570a:	bf 91       	pop	r27
    570c:	af 91       	pop	r26
    570e:	9f 91       	pop	r25
    5710:	8f 91       	pop	r24
    5712:	7f 91       	pop	r23
    5714:	6f 91       	pop	r22
    5716:	5f 91       	pop	r21
    5718:	4f 91       	pop	r20
    571a:	3f 91       	pop	r19
    571c:	2f 91       	pop	r18
    571e:	0f 90       	pop	r0
    5720:	0f be       	out	0x3f, r0	; 63
    5722:	0f 90       	pop	r0
    5724:	1f 90       	pop	r1
    5726:	18 95       	reti

00005728 <__vector_11>:
    5728:	1f 92       	push	r1
    572a:	0f 92       	push	r0
    572c:	0f b6       	in	r0, 0x3f	; 63
    572e:	0f 92       	push	r0
    5730:	11 24       	eor	r1, r1
    5732:	2f 93       	push	r18
    5734:	3f 93       	push	r19
    5736:	4f 93       	push	r20
    5738:	5f 93       	push	r21
    573a:	6f 93       	push	r22
    573c:	7f 93       	push	r23
    573e:	8f 93       	push	r24
    5740:	9f 93       	push	r25
    5742:	af 93       	push	r26
    5744:	bf 93       	push	r27
    5746:	ef 93       	push	r30
    5748:	ff 93       	push	r31
    574a:	80 91 e8 02 	lds	r24, 0x02E8	; 0x8002e8 <dimmer>
    574e:	90 91 e9 02 	lds	r25, 0x02E9	; 0x8002e9 <dimmer+0x1>
    5752:	89 2b       	or	r24, r25
    5754:	21 f0       	breq	.+8      	; 0x575e <__vector_11+0x36>
    5756:	60 e0       	ldi	r22, 0x00	; 0
    5758:	85 e0       	ldi	r24, 0x05	; 5
    575a:	0e 94 aa 09 	call	0x1354	; 0x1354 <digitalWrite>
    575e:	60 e0       	ldi	r22, 0x00	; 0
    5760:	85 e0       	ldi	r24, 0x05	; 5
    5762:	0e 94 aa 09 	call	0x1354	; 0x1354 <digitalWrite>
    5766:	60 e2       	ldi	r22, 0x20	; 32
    5768:	7e e4       	ldi	r23, 0x4E	; 78
    576a:	80 e0       	ldi	r24, 0x00	; 0
    576c:	90 e0       	ldi	r25, 0x00	; 0
    576e:	0e 94 b3 05 	call	0xb66	; 0xb66 <_ZN7Timer_19setPeriodEm.constprop.155>
    5772:	ff 91       	pop	r31
    5774:	ef 91       	pop	r30
    5776:	bf 91       	pop	r27
    5778:	af 91       	pop	r26
    577a:	9f 91       	pop	r25
    577c:	8f 91       	pop	r24
    577e:	7f 91       	pop	r23
    5780:	6f 91       	pop	r22
    5782:	5f 91       	pop	r21
    5784:	4f 91       	pop	r20
    5786:	3f 91       	pop	r19
    5788:	2f 91       	pop	r18
    578a:	0f 90       	pop	r0
    578c:	0f be       	out	0x3f, r0	; 63
    578e:	0f 90       	pop	r0
    5790:	1f 90       	pop	r1
    5792:	18 95       	reti

00005794 <_GLOBAL__I_65535_0_main.cpp.o.14653>:
    5794:	cf 92       	push	r12
    5796:	df 92       	push	r13
    5798:	ef 92       	push	r14
    579a:	ff 92       	push	r15
    579c:	0f 93       	push	r16
    579e:	1f 93       	push	r17
    57a0:	cf 93       	push	r28
    57a2:	df 93       	push	r29
    57a4:	10 92 f4 03 	sts	0x03F4, r1	; 0x8003f4 <Wire+0x3>
    57a8:	10 92 f3 03 	sts	0x03F3, r1	; 0x8003f3 <Wire+0x2>
    57ac:	88 ee       	ldi	r24, 0xE8	; 232
    57ae:	93 e0       	ldi	r25, 0x03	; 3
    57b0:	a0 e0       	ldi	r26, 0x00	; 0
    57b2:	b0 e0       	ldi	r27, 0x00	; 0
    57b4:	80 93 f5 03 	sts	0x03F5, r24	; 0x8003f5 <Wire+0x4>
    57b8:	90 93 f6 03 	sts	0x03F6, r25	; 0x8003f6 <Wire+0x5>
    57bc:	a0 93 f7 03 	sts	0x03F7, r26	; 0x8003f7 <Wire+0x6>
    57c0:	b0 93 f8 03 	sts	0x03F8, r27	; 0x8003f8 <Wire+0x7>
    57c4:	22 ee       	ldi	r18, 0xE2	; 226
    57c6:	31 e0       	ldi	r19, 0x01	; 1
    57c8:	30 93 f2 03 	sts	0x03F2, r19	; 0x8003f2 <Wire+0x1>
    57cc:	20 93 f1 03 	sts	0x03F1, r18	; 0x8003f1 <Wire>
    57d0:	10 92 00 04 	sts	0x0400, r1	; 0x800400 <Serial+0x3>
    57d4:	10 92 ff 03 	sts	0x03FF, r1	; 0x8003ff <Serial+0x2>
    57d8:	80 93 01 04 	sts	0x0401, r24	; 0x800401 <Serial+0x4>
    57dc:	90 93 02 04 	sts	0x0402, r25	; 0x800402 <Serial+0x5>
    57e0:	a0 93 03 04 	sts	0x0403, r26	; 0x800403 <Serial+0x6>
    57e4:	b0 93 04 04 	sts	0x0404, r27	; 0x800404 <Serial+0x7>
    57e8:	84 ef       	ldi	r24, 0xF4	; 244
    57ea:	91 e0       	ldi	r25, 0x01	; 1
    57ec:	90 93 fe 03 	sts	0x03FE, r25	; 0x8003fe <Serial+0x1>
    57f0:	80 93 fd 03 	sts	0x03FD, r24	; 0x8003fd <Serial>
    57f4:	85 ec       	ldi	r24, 0xC5	; 197
    57f6:	90 e0       	ldi	r25, 0x00	; 0
    57f8:	90 93 0a 04 	sts	0x040A, r25	; 0x80040a <Serial+0xd>
    57fc:	80 93 09 04 	sts	0x0409, r24	; 0x800409 <Serial+0xc>
    5800:	84 ec       	ldi	r24, 0xC4	; 196
    5802:	90 e0       	ldi	r25, 0x00	; 0
    5804:	90 93 0c 04 	sts	0x040C, r25	; 0x80040c <Serial+0xf>
    5808:	80 93 0b 04 	sts	0x040B, r24	; 0x80040b <Serial+0xe>
    580c:	80 ec       	ldi	r24, 0xC0	; 192
    580e:	90 e0       	ldi	r25, 0x00	; 0
    5810:	90 93 0e 04 	sts	0x040E, r25	; 0x80040e <Serial+0x11>
    5814:	80 93 0d 04 	sts	0x040D, r24	; 0x80040d <Serial+0x10>
    5818:	81 ec       	ldi	r24, 0xC1	; 193
    581a:	90 e0       	ldi	r25, 0x00	; 0
    581c:	90 93 10 04 	sts	0x0410, r25	; 0x800410 <Serial+0x13>
    5820:	80 93 0f 04 	sts	0x040F, r24	; 0x80040f <Serial+0x12>
    5824:	82 ec       	ldi	r24, 0xC2	; 194
    5826:	90 e0       	ldi	r25, 0x00	; 0
    5828:	90 93 12 04 	sts	0x0412, r25	; 0x800412 <Serial+0x15>
    582c:	80 93 11 04 	sts	0x0411, r24	; 0x800411 <Serial+0x14>
    5830:	86 ec       	ldi	r24, 0xC6	; 198
    5832:	90 e0       	ldi	r25, 0x00	; 0
    5834:	90 93 14 04 	sts	0x0414, r25	; 0x800414 <Serial+0x17>
    5838:	80 93 13 04 	sts	0x0413, r24	; 0x800413 <Serial+0x16>
    583c:	10 92 16 04 	sts	0x0416, r1	; 0x800416 <Serial+0x19>
    5840:	10 92 17 04 	sts	0x0417, r1	; 0x800417 <Serial+0x1a>
    5844:	10 92 18 04 	sts	0x0418, r1	; 0x800418 <Serial+0x1b>
    5848:	10 92 19 04 	sts	0x0419, r1	; 0x800419 <Serial+0x1c>
    584c:	10 92 a0 06 	sts	0x06A0, r1	; 0x8006a0 <subMenuM+0x3>
    5850:	10 92 9f 06 	sts	0x069F, r1	; 0x80069f <subMenuM+0x2>
    5854:	60 e0       	ldi	r22, 0x00	; 0
    5856:	80 e0       	ldi	r24, 0x00	; 0
    5858:	0e 94 0a 0a 	call	0x1414	; 0x1414 <pinMode>
    585c:	10 92 9a 06 	sts	0x069A, r1	; 0x80069a <ntc+0x1>
    5860:	10 92 99 06 	sts	0x0699, r1	; 0x800699 <ntc>
    5864:	10 92 9c 06 	sts	0x069C, r1	; 0x80069c <ntc+0x3>
    5868:	10 92 9b 06 	sts	0x069B, r1	; 0x80069b <ntc+0x2>
    586c:	86 e7       	ldi	r24, 0x76	; 118
    586e:	90 e0       	ldi	r25, 0x00	; 0
    5870:	90 93 71 06 	sts	0x0671, r25	; 0x800671 <bme+0x1>
    5874:	80 93 70 06 	sts	0x0670, r24	; 0x800670 <bme>
    5878:	83 e0       	ldi	r24, 0x03	; 3
    587a:	80 93 72 06 	sts	0x0672, r24	; 0x800672 <bme+0x2>
    587e:	80 93 73 06 	sts	0x0673, r24	; 0x800673 <bme+0x3>
    5882:	94 e0       	ldi	r25, 0x04	; 4
    5884:	90 93 74 06 	sts	0x0674, r25	; 0x800674 <bme+0x4>
    5888:	80 93 75 06 	sts	0x0675, r24	; 0x800675 <bme+0x5>
    588c:	81 e0       	ldi	r24, 0x01	; 1
    588e:	80 93 76 06 	sts	0x0676, r24	; 0x800676 <bme+0x6>
    5892:	82 e0       	ldi	r24, 0x02	; 2
    5894:	80 93 77 06 	sts	0x0677, r24	; 0x800677 <bme+0x7>
    5898:	10 92 dd 05 	sts	0x05DD, r1	; 0x8005dd <oled+0x3>
    589c:	10 92 dc 05 	sts	0x05DC, r1	; 0x8005dc <oled+0x2>
    58a0:	8e e5       	ldi	r24, 0x5E	; 94
    58a2:	94 e0       	ldi	r25, 0x04	; 4
    58a4:	90 93 6b 06 	sts	0x066B, r25	; 0x80066b <oled+0x91>
    58a8:	80 93 6a 06 	sts	0x066A, r24	; 0x80066a <oled+0x90>
    58ac:	10 92 6d 06 	sts	0x066D, r1	; 0x80066d <oled+0x93>
    58b0:	10 92 6c 06 	sts	0x066C, r1	; 0x80066c <oled+0x92>
    58b4:	10 92 6f 06 	sts	0x066F, r1	; 0x80066f <oled+0x95>
    58b8:	10 92 6e 06 	sts	0x066E, r1	; 0x80066e <oled+0x94>
    58bc:	10 92 f6 05 	sts	0x05F6, r1	; 0x8005f6 <oled+0x1c>
    58c0:	8e e0       	ldi	r24, 0x0E	; 14
    58c2:	92 e0       	ldi	r25, 0x02	; 2
    58c4:	90 93 db 05 	sts	0x05DB, r25	; 0x8005db <oled+0x1>
    58c8:	80 93 da 05 	sts	0x05DA, r24	; 0x8005da <oled>
    58cc:	10 92 df 05 	sts	0x05DF, r1	; 0x8005df <oled+0x5>
    58d0:	10 92 de 05 	sts	0x05DE, r1	; 0x8005de <oled+0x4>
    58d4:	10 92 f3 05 	sts	0x05F3, r1	; 0x8005f3 <oled+0x19>
    58d8:	10 92 ea 05 	sts	0x05EA, r1	; 0x8005ea <oled+0x10>
    58dc:	10 92 eb 05 	sts	0x05EB, r1	; 0x8005eb <oled+0x11>
    58e0:	10 92 ec 05 	sts	0x05EC, r1	; 0x8005ec <oled+0x12>
    58e4:	10 92 ed 05 	sts	0x05ED, r1	; 0x8005ed <oled+0x13>
    58e8:	8f ef       	ldi	r24, 0xFF	; 255
    58ea:	80 93 f4 05 	sts	0x05F4, r24	; 0x8005f4 <oled+0x1a>
    58ee:	80 93 f8 05 	sts	0x05F8, r24	; 0x8005f8 <oled+0x1e>
    58f2:	ec ef       	ldi	r30, 0xFC	; 252
    58f4:	f5 e0       	ldi	r31, 0x05	; 5
    58f6:	82 e1       	ldi	r24, 0x12	; 18
    58f8:	96 e0       	ldi	r25, 0x06	; 6
    58fa:	cf ef       	ldi	r28, 0xFF	; 255
    58fc:	c1 93       	st	Z+, r28
    58fe:	8e 17       	cp	r24, r30
    5900:	9f 07       	cpc	r25, r31
    5902:	e1 f7       	brne	.-8      	; 0x58fc <_GLOBAL__I_65535_0_main.cpp.o.14653+0x168>
    5904:	8f e2       	ldi	r24, 0x2F	; 47
    5906:	9f e0       	ldi	r25, 0x0F	; 15
    5908:	90 93 e3 05 	sts	0x05E3, r25	; 0x8005e3 <oled+0x9>
    590c:	80 93 e2 05 	sts	0x05E2, r24	; 0x8005e2 <oled+0x8>
    5910:	84 e2       	ldi	r24, 0x24	; 36
    5912:	90 e1       	ldi	r25, 0x10	; 16
    5914:	90 93 e5 05 	sts	0x05E5, r25	; 0x8005e5 <oled+0xb>
    5918:	80 93 e4 05 	sts	0x05E4, r24	; 0x8005e4 <oled+0xa>
    591c:	8b e0       	ldi	r24, 0x0B	; 11
    591e:	98 e1       	ldi	r25, 0x18	; 24
    5920:	90 93 e7 05 	sts	0x05E7, r25	; 0x8005e7 <oled+0xd>
    5924:	80 93 e6 05 	sts	0x05E6, r24	; 0x8005e6 <oled+0xc>
    5928:	87 e6       	ldi	r24, 0x67	; 103
    592a:	98 e1       	ldi	r25, 0x18	; 24
    592c:	90 93 e9 05 	sts	0x05E9, r25	; 0x8005e9 <oled+0xf>
    5930:	80 93 e8 05 	sts	0x05E8, r24	; 0x8005e8 <oled+0xe>
    5934:	30 e0       	ldi	r19, 0x00	; 0
    5936:	20 e0       	ldi	r18, 0x00	; 0
    5938:	40 e0       	ldi	r20, 0x00	; 0
    593a:	69 e0       	ldi	r22, 0x09	; 9
    593c:	8e ed       	ldi	r24, 0xDE	; 222
    593e:	95 e0       	ldi	r25, 0x05	; 5
    5940:	0e 94 2f 0f 	call	0x1e5e	; 0x1e5e <u8x8_d_ssd1306_128x64_noname>
    5944:	10 92 39 06 	sts	0x0639, r1	; 0x800639 <oled+0x5f>
    5948:	10 92 38 06 	sts	0x0638, r1	; 0x800638 <oled+0x5e>
    594c:	88 e6       	ldi	r24, 0x68	; 104
    594e:	94 e0       	ldi	r25, 0x04	; 4
    5950:	90 93 13 06 	sts	0x0613, r25	; 0x800613 <oled+0x39>
    5954:	80 93 12 06 	sts	0x0612, r24	; 0x800612 <oled+0x38>
    5958:	8a e9       	ldi	r24, 0x9A	; 154
    595a:	94 e0       	ldi	r25, 0x04	; 4
    595c:	90 93 17 06 	sts	0x0617, r25	; 0x800617 <oled+0x3d>
    5960:	80 93 16 06 	sts	0x0616, r24	; 0x800616 <oled+0x3c>
    5964:	81 e0       	ldi	r24, 0x01	; 1
    5966:	80 93 18 06 	sts	0x0618, r24	; 0x800618 <oled+0x3e>
    596a:	10 92 19 06 	sts	0x0619, r1	; 0x800619 <oled+0x3f>
    596e:	10 92 47 06 	sts	0x0647, r1	; 0x800647 <oled+0x6d>
    5972:	10 92 67 06 	sts	0x0667, r1	; 0x800667 <oled+0x8d>
    5976:	10 92 63 06 	sts	0x0663, r1	; 0x800663 <oled+0x89>
    597a:	80 93 68 06 	sts	0x0668, r24	; 0x800668 <oled+0x8e>
    597e:	80 93 69 06 	sts	0x0669, r24	; 0x800669 <oled+0x8f>
    5982:	86 e1       	ldi	r24, 0x16	; 22
    5984:	92 e0       	ldi	r25, 0x02	; 2
    5986:	90 93 15 06 	sts	0x0615, r25	; 0x800615 <oled+0x3b>
    598a:	80 93 14 06 	sts	0x0614, r24	; 0x800614 <oled+0x3a>
    598e:	8e ed       	ldi	r24, 0xDE	; 222
    5990:	95 e0       	ldi	r25, 0x05	; 5
    5992:	0e 94 df 10 	call	0x21be	; 0x21be <u8g2_update_dimension_r0>
    5996:	10 92 31 06 	sts	0x0631, r1	; 0x800631 <oled+0x57>
    599a:	10 92 30 06 	sts	0x0630, r1	; 0x800630 <oled+0x56>
    599e:	10 92 35 06 	sts	0x0635, r1	; 0x800635 <oled+0x5b>
    59a2:	10 92 34 06 	sts	0x0634, r1	; 0x800634 <oled+0x5a>
    59a6:	8f ef       	ldi	r24, 0xFF	; 255
    59a8:	9f ef       	ldi	r25, 0xFF	; 255
    59aa:	90 93 33 06 	sts	0x0633, r25	; 0x800633 <oled+0x59>
    59ae:	80 93 32 06 	sts	0x0632, r24	; 0x800632 <oled+0x58>
    59b2:	90 93 37 06 	sts	0x0637, r25	; 0x800637 <oled+0x5d>
    59b6:	80 93 36 06 	sts	0x0636, r24	; 0x800636 <oled+0x5c>
    59ba:	e0 91 14 06 	lds	r30, 0x0614	; 0x800614 <oled+0x3a>
    59be:	f0 91 15 06 	lds	r31, 0x0615	; 0x800615 <oled+0x3b>
    59c2:	02 80       	ldd	r0, Z+2	; 0x02
    59c4:	f3 81       	ldd	r31, Z+3	; 0x03
    59c6:	e0 2d       	mov	r30, r0
    59c8:	8e ed       	ldi	r24, 0xDE	; 222
    59ca:	95 e0       	ldi	r25, 0x05	; 5
    59cc:	09 95       	icall
    59ce:	87 ed       	ldi	r24, 0xD7	; 215
    59d0:	94 e0       	ldi	r25, 0x04	; 4
    59d2:	90 93 3b 06 	sts	0x063B, r25	; 0x80063b <oled+0x61>
    59d6:	80 93 3a 06 	sts	0x063A, r24	; 0x80063a <oled+0x60>
    59da:	10 92 4a 06 	sts	0x064A, r1	; 0x80064a <oled+0x70>
    59de:	c0 93 07 06 	sts	0x0607, r28	; 0x800607 <oled+0x2d>
    59e2:	c0 93 08 06 	sts	0x0608, r28	; 0x800608 <oled+0x2e>
    59e6:	c0 93 09 06 	sts	0x0609, r28	; 0x800609 <oled+0x2f>
    59ea:	10 92 c3 05 	sts	0x05C3, r1	; 0x8005c3 <enc+0x2>
    59ee:	10 92 c2 05 	sts	0x05C2, r1	; 0x8005c2 <enc+0x1>
    59f2:	10 92 c5 05 	sts	0x05C5, r1	; 0x8005c5 <enc+0x4>
    59f6:	10 92 c4 05 	sts	0x05C4, r1	; 0x8005c4 <enc+0x3>
    59fa:	10 92 c7 05 	sts	0x05C7, r1	; 0x8005c7 <enc+0x6>
    59fe:	10 92 c6 05 	sts	0x05C6, r1	; 0x8005c6 <enc+0x5>
    5a02:	82 e3       	ldi	r24, 0x32	; 50
    5a04:	80 93 c8 05 	sts	0x05C8, r24	; 0x8005c8 <enc+0x7>
    5a08:	8f e1       	ldi	r24, 0x1F	; 31
    5a0a:	80 93 c9 05 	sts	0x05C9, r24	; 0x8005c9 <enc+0x8>
    5a0e:	85 e2       	ldi	r24, 0x25	; 37
    5a10:	80 93 ca 05 	sts	0x05CA, r24	; 0x8005ca <enc+0x9>
    5a14:	8c e0       	ldi	r24, 0x0C	; 12
    5a16:	80 93 cb 05 	sts	0x05CB, r24	; 0x8005cb <enc+0xa>
    5a1a:	10 92 cd 05 	sts	0x05CD, r1	; 0x8005cd <enc+0xc>
    5a1e:	10 92 cc 05 	sts	0x05CC, r1	; 0x8005cc <enc+0xb>
    5a22:	10 92 ce 05 	sts	0x05CE, r1	; 0x8005ce <enc+0xd>
    5a26:	10 92 cf 05 	sts	0x05CF, r1	; 0x8005cf <enc+0xe>
    5a2a:	10 92 d0 05 	sts	0x05D0, r1	; 0x8005d0 <enc+0xf>
    5a2e:	10 92 d1 05 	sts	0x05D1, r1	; 0x8005d1 <enc+0x10>
    5a32:	10 92 d2 05 	sts	0x05D2, r1	; 0x8005d2 <enc+0x11>
    5a36:	10 92 d3 05 	sts	0x05D3, r1	; 0x8005d3 <enc+0x12>
    5a3a:	8e e1       	ldi	r24, 0x1E	; 30
    5a3c:	80 93 d4 05 	sts	0x05D4, r24	; 0x8005d4 <enc+0x13>
    5a40:	10 92 d6 05 	sts	0x05D6, r1	; 0x8005d6 <enc+0x15>
    5a44:	10 92 d5 05 	sts	0x05D5, r1	; 0x8005d5 <enc+0x14>
    5a48:	8f e0       	ldi	r24, 0x0F	; 15
    5a4a:	80 93 d7 05 	sts	0x05D7, r24	; 0x8005d7 <enc+0x16>
    5a4e:	80 e1       	ldi	r24, 0x10	; 16
    5a50:	80 93 d8 05 	sts	0x05D8, r24	; 0x8005d8 <enc+0x17>
    5a54:	81 e1       	ldi	r24, 0x11	; 17
    5a56:	80 93 d9 05 	sts	0x05D9, r24	; 0x8005d9 <enc+0x18>
    5a5a:	60 e0       	ldi	r22, 0x00	; 0
    5a5c:	8f e0       	ldi	r24, 0x0F	; 15
    5a5e:	0e 94 0a 0a 	call	0x1414	; 0x1414 <pinMode>
    5a62:	60 e0       	ldi	r22, 0x00	; 0
    5a64:	80 91 d8 05 	lds	r24, 0x05D8	; 0x8005d8 <enc+0x17>
    5a68:	0e 94 0a 0a 	call	0x1414	; 0x1414 <pinMode>
    5a6c:	62 e0       	ldi	r22, 0x02	; 2
    5a6e:	80 91 d9 05 	lds	r24, 0x05D9	; 0x8005d9 <enc+0x18>
    5a72:	0e 94 0a 0a 	call	0x1414	; 0x1414 <pinMode>
    5a76:	80 91 cc 05 	lds	r24, 0x05CC	; 0x8005cc <enc+0xb>
    5a7a:	90 91 cd 05 	lds	r25, 0x05CD	; 0x8005cd <enc+0xc>
    5a7e:	90 61       	ori	r25, 0x10	; 16
    5a80:	90 93 cd 05 	sts	0x05CD, r25	; 0x8005cd <enc+0xc>
    5a84:	80 93 cc 05 	sts	0x05CC, r24	; 0x8005cc <enc+0xb>
    5a88:	0e 94 ea 18 	call	0x31d4	; 0x31d4 <_ZN9EncButton7readEncEv.constprop.118>
    5a8c:	98 2f       	mov	r25, r24
    5a8e:	9f 70       	andi	r25, 0x0F	; 15
    5a90:	80 91 d3 05 	lds	r24, 0x05D3	; 0x8005d3 <enc+0x12>
    5a94:	80 7f       	andi	r24, 0xF0	; 240
    5a96:	89 2b       	or	r24, r25
    5a98:	80 93 d3 05 	sts	0x05D3, r24	; 0x8005d3 <enc+0x12>
    5a9c:	86 e0       	ldi	r24, 0x06	; 6
    5a9e:	92 e0       	ldi	r25, 0x02	; 2
    5aa0:	90 93 6e 05 	sts	0x056E, r25	; 0x80056e <hx711Multi+0x1>
    5aa4:	80 93 6d 05 	sts	0x056D, r24	; 0x80056d <hx711Multi>
    5aa8:	90 93 82 05 	sts	0x0582, r25	; 0x800582 <hx711Multi+0x15>
    5aac:	80 93 81 05 	sts	0x0581, r24	; 0x800581 <hx711Multi+0x14>
    5ab0:	90 93 96 05 	sts	0x0596, r25	; 0x800596 <hx711Multi+0x29>
    5ab4:	80 93 95 05 	sts	0x0595, r24	; 0x800595 <hx711Multi+0x28>
    5ab8:	90 93 aa 05 	sts	0x05AA, r25	; 0x8005aa <hx711Multi+0x3d>
    5abc:	80 93 a9 05 	sts	0x05A9, r24	; 0x8005a9 <hx711Multi+0x3c>
    5ac0:	84 e0       	ldi	r24, 0x04	; 4
    5ac2:	80 93 bd 05 	sts	0x05BD, r24	; 0x8005bd <hx711Multi+0x50>
    5ac6:	87 e0       	ldi	r24, 0x07	; 7
    5ac8:	91 e0       	ldi	r25, 0x01	; 1
    5aca:	90 93 bf 05 	sts	0x05BF, r25	; 0x8005bf <hx711Multi+0x52>
    5ace:	80 93 be 05 	sts	0x05BE, r24	; 0x8005be <hx711Multi+0x51>
    5ad2:	88 e0       	ldi	r24, 0x08	; 8
    5ad4:	80 93 c0 05 	sts	0x05C0, r24	; 0x8005c0 <hx711Multi+0x53>
    5ad8:	87 e0       	ldi	r24, 0x07	; 7
    5ada:	c8 2e       	mov	r12, r24
    5adc:	81 e0       	ldi	r24, 0x01	; 1
    5ade:	d8 2e       	mov	r13, r24
    5ae0:	cd e6       	ldi	r28, 0x6D	; 109
    5ae2:	d5 e0       	ldi	r29, 0x05	; 5
    5ae4:	10 e0       	ldi	r17, 0x00	; 0
    5ae6:	00 e0       	ldi	r16, 0x00	; 0
    5ae8:	98 e0       	ldi	r25, 0x08	; 8
    5aea:	e9 2e       	mov	r14, r25
    5aec:	ff 24       	eor	r15, r15
    5aee:	f3 94       	inc	r15
    5af0:	f6 01       	movw	r30, r12
    5af2:	81 91       	ld	r24, Z+
    5af4:	6f 01       	movw	r12, r30
    5af6:	ea 82       	std	Y+2, r14	; 0x02
    5af8:	8b 83       	std	Y+3, r24	; 0x03
    5afa:	fc 82       	std	Y+4, r15	; 0x04
    5afc:	1d 82       	std	Y+5, r1	; 0x05
    5afe:	1e 82       	std	Y+6, r1	; 0x06
    5b00:	1f 82       	std	Y+7, r1	; 0x07
    5b02:	18 86       	std	Y+8, r1	; 0x08
    5b04:	19 86       	std	Y+9, r1	; 0x09
    5b06:	1a 86       	std	Y+10, r1	; 0x0a
    5b08:	1b 86       	std	Y+11, r1	; 0x0b
    5b0a:	1c 86       	std	Y+12, r1	; 0x0c
    5b0c:	1d 86       	std	Y+13, r1	; 0x0d
    5b0e:	1f 86       	std	Y+15, r1	; 0x0f
    5b10:	1e 86       	std	Y+14, r1	; 0x0e
    5b12:	18 8a       	std	Y+16, r1	; 0x10
    5b14:	19 8a       	std	Y+17, r1	; 0x11
    5b16:	1a 8a       	std	Y+18, r1	; 0x12
    5b18:	1b 8a       	std	Y+19, r1	; 0x13
    5b1a:	c8 01       	movw	r24, r16
    5b1c:	84 5b       	subi	r24, 0xB4	; 180
    5b1e:	9e 4f       	sbci	r25, 0xFE	; 254
    5b20:	0e 94 12 3b 	call	0x7624	; 0x7624 <eeprom_read_dword>
    5b24:	6e 83       	std	Y+6, r22	; 0x06
    5b26:	7f 83       	std	Y+7, r23	; 0x07
    5b28:	88 87       	std	Y+8, r24	; 0x08
    5b2a:	99 87       	std	Y+9, r25	; 0x09
    5b2c:	c8 01       	movw	r24, r16
    5b2e:	84 5c       	subi	r24, 0xC4	; 196
    5b30:	9e 4f       	sbci	r25, 0xFE	; 254
    5b32:	0e 94 12 3b 	call	0x7624	; 0x7624 <eeprom_read_dword>
    5b36:	6a 87       	std	Y+10, r22	; 0x0a
    5b38:	7b 87       	std	Y+11, r23	; 0x0b
    5b3a:	8c 87       	std	Y+12, r24	; 0x0c
    5b3c:	9d 87       	std	Y+13, r25	; 0x0d
    5b3e:	64 96       	adiw	r28, 0x14	; 20
    5b40:	0c 5f       	subi	r16, 0xFC	; 252
    5b42:	1f 4f       	sbci	r17, 0xFF	; 255
    5b44:	00 31       	cpi	r16, 0x10	; 16
    5b46:	11 05       	cpc	r17, r1
    5b48:	99 f6       	brne	.-90     	; 0x5af0 <_GLOBAL__I_65535_0_main.cpp.o.14653+0x35c>
    5b4a:	89 e2       	ldi	r24, 0x29	; 41
    5b4c:	95 e0       	ldi	r25, 0x05	; 5
    5b4e:	90 93 50 05 	sts	0x0550, r25	; 0x800550 <pid+0x1f>
    5b52:	80 93 4f 05 	sts	0x054F, r24	; 0x80054f <pid+0x1e>
    5b56:	8d e2       	ldi	r24, 0x2D	; 45
    5b58:	95 e0       	ldi	r25, 0x05	; 5
    5b5a:	90 93 4e 05 	sts	0x054E, r25	; 0x80054e <pid+0x1d>
    5b5e:	80 93 4d 05 	sts	0x054D, r24	; 0x80054d <pid+0x1c>
    5b62:	85 e2       	ldi	r24, 0x25	; 37
    5b64:	95 e0       	ldi	r25, 0x05	; 5
    5b66:	90 93 52 05 	sts	0x0552, r25	; 0x800552 <pid+0x21>
    5b6a:	80 93 51 05 	sts	0x0551, r24	; 0x800551 <pid+0x20>
    5b6e:	10 92 6b 05 	sts	0x056B, r1	; 0x80056b <pid+0x3a>
    5b72:	10 92 63 05 	sts	0x0563, r1	; 0x800563 <pid+0x32>
    5b76:	10 92 64 05 	sts	0x0564, r1	; 0x800564 <pid+0x33>
    5b7a:	10 92 65 05 	sts	0x0565, r1	; 0x800565 <pid+0x34>
    5b7e:	10 92 66 05 	sts	0x0566, r1	; 0x800566 <pid+0x35>
    5b82:	80 e0       	ldi	r24, 0x00	; 0
    5b84:	90 e0       	ldi	r25, 0x00	; 0
    5b86:	af e7       	ldi	r26, 0x7F	; 127
    5b88:	b3 e4       	ldi	r27, 0x43	; 67
    5b8a:	80 93 67 05 	sts	0x0567, r24	; 0x800567 <pid+0x36>
    5b8e:	90 93 68 05 	sts	0x0568, r25	; 0x800568 <pid+0x37>
    5b92:	a0 93 69 05 	sts	0x0569, r26	; 0x800569 <pid+0x38>
    5b96:	b0 93 6a 05 	sts	0x056A, r27	; 0x80056a <pid+0x39>
    5b9a:	84 e6       	ldi	r24, 0x64	; 100
    5b9c:	90 e0       	ldi	r25, 0x00	; 0
    5b9e:	a0 e0       	ldi	r26, 0x00	; 0
    5ba0:	b0 e0       	ldi	r27, 0x00	; 0
    5ba2:	80 93 5f 05 	sts	0x055F, r24	; 0x80055f <pid+0x2e>
    5ba6:	90 93 60 05 	sts	0x0560, r25	; 0x800560 <pid+0x2f>
    5baa:	a0 93 61 05 	sts	0x0561, r26	; 0x800561 <pid+0x30>
    5bae:	b0 93 62 05 	sts	0x0562, r27	; 0x800562 <pid+0x31>
    5bb2:	10 92 4a 05 	sts	0x054A, r1	; 0x80054a <pid+0x19>
    5bb6:	10 92 49 05 	sts	0x0549, r1	; 0x800549 <pid+0x18>
    5bba:	81 e0       	ldi	r24, 0x01	; 1
    5bbc:	90 e0       	ldi	r25, 0x00	; 0
    5bbe:	90 93 4c 05 	sts	0x054C, r25	; 0x80054c <pid+0x1b>
    5bc2:	80 93 4b 05 	sts	0x054B, r24	; 0x80054b <pid+0x1a>
    5bc6:	f0 92 6c 05 	sts	0x056C, r15	; 0x80056c <pid+0x3b>
    5bca:	80 e0       	ldi	r24, 0x00	; 0
    5bcc:	90 e0       	ldi	r25, 0x00	; 0
    5bce:	a0 e0       	ldi	r26, 0x00	; 0
    5bd0:	b0 e4       	ldi	r27, 0x40	; 64
    5bd2:	80 93 31 05 	sts	0x0531, r24	; 0x800531 <pid>
    5bd6:	90 93 32 05 	sts	0x0532, r25	; 0x800532 <pid+0x1>
    5bda:	a0 93 33 05 	sts	0x0533, r26	; 0x800533 <pid+0x2>
    5bde:	b0 93 34 05 	sts	0x0534, r27	; 0x800534 <pid+0x3>
    5be2:	40 e0       	ldi	r20, 0x00	; 0
    5be4:	50 e0       	ldi	r21, 0x00	; 0
    5be6:	60 e8       	ldi	r22, 0x80	; 128
    5be8:	7f e3       	ldi	r23, 0x3F	; 63
    5bea:	40 93 35 05 	sts	0x0535, r20	; 0x800535 <pid+0x4>
    5bee:	50 93 36 05 	sts	0x0536, r21	; 0x800536 <pid+0x5>
    5bf2:	60 93 37 05 	sts	0x0537, r22	; 0x800537 <pid+0x6>
    5bf6:	70 93 38 05 	sts	0x0538, r23	; 0x800538 <pid+0x7>
    5bfa:	40 e0       	ldi	r20, 0x00	; 0
    5bfc:	50 e0       	ldi	r21, 0x00	; 0
    5bfe:	60 ea       	ldi	r22, 0xA0	; 160
    5c00:	70 e4       	ldi	r23, 0x40	; 64
    5c02:	40 93 39 05 	sts	0x0539, r20	; 0x800539 <pid+0x8>
    5c06:	50 93 3a 05 	sts	0x053A, r21	; 0x80053a <pid+0x9>
    5c0a:	60 93 3b 05 	sts	0x053B, r22	; 0x80053b <pid+0xa>
    5c0e:	70 93 3c 05 	sts	0x053C, r23	; 0x80053c <pid+0xb>
    5c12:	80 93 3d 05 	sts	0x053D, r24	; 0x80053d <pid+0xc>
    5c16:	90 93 3e 05 	sts	0x053E, r25	; 0x80053e <pid+0xd>
    5c1a:	a0 93 3f 05 	sts	0x053F, r26	; 0x80053f <pid+0xe>
    5c1e:	b0 93 40 05 	sts	0x0540, r27	; 0x800540 <pid+0xf>
    5c22:	8d ec       	ldi	r24, 0xCD	; 205
    5c24:	9c ec       	ldi	r25, 0xCC	; 204
    5c26:	ac ec       	ldi	r26, 0xCC	; 204
    5c28:	bd e3       	ldi	r27, 0x3D	; 61
    5c2a:	80 93 41 05 	sts	0x0541, r24	; 0x800541 <pid+0x10>
    5c2e:	90 93 42 05 	sts	0x0542, r25	; 0x800542 <pid+0x11>
    5c32:	a0 93 43 05 	sts	0x0543, r26	; 0x800543 <pid+0x12>
    5c36:	b0 93 44 05 	sts	0x0544, r27	; 0x800544 <pid+0x13>
    5c3a:	80 e0       	ldi	r24, 0x00	; 0
    5c3c:	90 e0       	ldi	r25, 0x00	; 0
    5c3e:	a8 e4       	ldi	r26, 0x48	; 72
    5c40:	b2 e4       	ldi	r27, 0x42	; 66
    5c42:	80 93 45 05 	sts	0x0545, r24	; 0x800545 <pid+0x14>
    5c46:	90 93 46 05 	sts	0x0546, r25	; 0x800546 <pid+0x15>
    5c4a:	a0 93 47 05 	sts	0x0547, r26	; 0x800547 <pid+0x16>
    5c4e:	b0 93 48 05 	sts	0x0548, r27	; 0x800548 <pid+0x17>
    5c52:	0e 94 16 0b 	call	0x162c	; 0x162c <millis>
    5c56:	00 91 5f 05 	lds	r16, 0x055F	; 0x80055f <pid+0x2e>
    5c5a:	10 91 60 05 	lds	r17, 0x0560	; 0x800560 <pid+0x2f>
    5c5e:	20 91 61 05 	lds	r18, 0x0561	; 0x800561 <pid+0x30>
    5c62:	30 91 62 05 	lds	r19, 0x0562	; 0x800562 <pid+0x31>
    5c66:	60 1b       	sub	r22, r16
    5c68:	71 0b       	sbc	r23, r17
    5c6a:	82 0b       	sbc	r24, r18
    5c6c:	93 0b       	sbc	r25, r19
    5c6e:	60 93 53 05 	sts	0x0553, r22	; 0x800553 <pid+0x22>
    5c72:	70 93 54 05 	sts	0x0554, r23	; 0x800554 <pid+0x23>
    5c76:	80 93 55 05 	sts	0x0555, r24	; 0x800555 <pid+0x24>
    5c7a:	90 93 56 05 	sts	0x0556, r25	; 0x800556 <pid+0x25>
    5c7e:	84 ea       	ldi	r24, 0xA4	; 164
    5c80:	91 e0       	ldi	r25, 0x01	; 1
    5c82:	0e 94 18 3b 	call	0x7630	; 0x7630 <eeprom_read_word>
    5c86:	c8 2f       	mov	r28, r24
    5c88:	82 ea       	ldi	r24, 0xA2	; 162
    5c8a:	91 e0       	ldi	r25, 0x01	; 1
    5c8c:	0e 94 18 3b 	call	0x7630	; 0x7630 <eeprom_read_word>
    5c90:	8c 01       	movw	r16, r24
    5c92:	80 ea       	ldi	r24, 0xA0	; 160
    5c94:	91 e0       	ldi	r25, 0x01	; 1
    5c96:	0e 94 18 3b 	call	0x7630	; 0x7630 <eeprom_read_word>
    5c9a:	10 92 1b 05 	sts	0x051B, r1	; 0x80051b <Servo1+0x1>
    5c9e:	10 92 1c 05 	sts	0x051C, r1	; 0x80051c <Servo1+0x2>
    5ca2:	10 92 1d 05 	sts	0x051D, r1	; 0x80051d <Servo1+0x3>
    5ca6:	10 92 1e 05 	sts	0x051E, r1	; 0x80051e <Servo1+0x4>
    5caa:	10 92 24 05 	sts	0x0524, r1	; 0x800524 <Servo1+0xa>
    5cae:	27 e0       	ldi	r18, 0x07	; 7
    5cb0:	20 93 1a 05 	sts	0x051A, r18	; 0x80051a <Servo1>
    5cb4:	90 93 22 05 	sts	0x0522, r25	; 0x800522 <Servo1+0x8>
    5cb8:	80 93 21 05 	sts	0x0521, r24	; 0x800521 <Servo1+0x7>
    5cbc:	10 93 20 05 	sts	0x0520, r17	; 0x800520 <Servo1+0x6>
    5cc0:	00 93 1f 05 	sts	0x051F, r16	; 0x80051f <Servo1+0x5>
    5cc4:	c0 93 23 05 	sts	0x0523, r28	; 0x800523 <Servo1+0x9>
    5cc8:	df 91       	pop	r29
    5cca:	cf 91       	pop	r28
    5ccc:	1f 91       	pop	r17
    5cce:	0f 91       	pop	r16
    5cd0:	ff 90       	pop	r15
    5cd2:	ef 90       	pop	r14
    5cd4:	df 90       	pop	r13
    5cd6:	cf 90       	pop	r12
    5cd8:	08 95       	ret

00005cda <main>:
    5cda:	cf 93       	push	r28
    5cdc:	df 93       	push	r29
    5cde:	cd b7       	in	r28, 0x3d	; 61
    5ce0:	de b7       	in	r29, 0x3e	; 62
    5ce2:	a5 97       	sbiw	r28, 0x25	; 37
    5ce4:	0f b6       	in	r0, 0x3f	; 63
    5ce6:	f8 94       	cli
    5ce8:	de bf       	out	0x3e, r29	; 62
    5cea:	0f be       	out	0x3f, r0	; 63
    5cec:	cd bf       	out	0x3d, r28	; 61
    5cee:	78 94       	sei
    5cf0:	84 b5       	in	r24, 0x24	; 36
    5cf2:	83 60       	ori	r24, 0x03	; 3
    5cf4:	84 bd       	out	0x24, r24	; 36
    5cf6:	85 b5       	in	r24, 0x25	; 37
    5cf8:	83 60       	ori	r24, 0x03	; 3
    5cfa:	85 bd       	out	0x25, r24	; 37
    5cfc:	80 91 6e 00 	lds	r24, 0x006E	; 0x80006e <__TEXT_REGION_LENGTH__+0x7e006e>
    5d00:	81 60       	ori	r24, 0x01	; 1
    5d02:	80 93 6e 00 	sts	0x006E, r24	; 0x80006e <__TEXT_REGION_LENGTH__+0x7e006e>
    5d06:	82 e0       	ldi	r24, 0x02	; 2
    5d08:	80 93 81 00 	sts	0x0081, r24	; 0x800081 <__TEXT_REGION_LENGTH__+0x7e0081>
    5d0c:	80 91 81 00 	lds	r24, 0x0081	; 0x800081 <__TEXT_REGION_LENGTH__+0x7e0081>
    5d10:	81 60       	ori	r24, 0x01	; 1
    5d12:	80 93 81 00 	sts	0x0081, r24	; 0x800081 <__TEXT_REGION_LENGTH__+0x7e0081>
    5d16:	80 91 80 00 	lds	r24, 0x0080	; 0x800080 <__TEXT_REGION_LENGTH__+0x7e0080>
    5d1a:	81 60       	ori	r24, 0x01	; 1
    5d1c:	80 93 80 00 	sts	0x0080, r24	; 0x800080 <__TEXT_REGION_LENGTH__+0x7e0080>
    5d20:	80 91 b1 00 	lds	r24, 0x00B1	; 0x8000b1 <__TEXT_REGION_LENGTH__+0x7e00b1>
    5d24:	84 60       	ori	r24, 0x04	; 4
    5d26:	80 93 b1 00 	sts	0x00B1, r24	; 0x8000b1 <__TEXT_REGION_LENGTH__+0x7e00b1>
    5d2a:	80 91 b0 00 	lds	r24, 0x00B0	; 0x8000b0 <__TEXT_REGION_LENGTH__+0x7e00b0>
    5d2e:	81 60       	ori	r24, 0x01	; 1
    5d30:	80 93 b0 00 	sts	0x00B0, r24	; 0x8000b0 <__TEXT_REGION_LENGTH__+0x7e00b0>
    5d34:	87 e8       	ldi	r24, 0x87	; 135
    5d36:	80 93 7a 00 	sts	0x007A, r24	; 0x80007a <__TEXT_REGION_LENGTH__+0x7e007a>
    5d3a:	10 92 c1 00 	sts	0x00C1, r1	; 0x8000c1 <__TEXT_REGION_LENGTH__+0x7e00c1>
    5d3e:	87 b1       	in	r24, 0x07	; 7
    5d40:	81 7f       	andi	r24, 0xF1	; 241
    5d42:	87 b9       	out	0x07, r24	; 7
    5d44:	88 b1       	in	r24, 0x08	; 8
    5d46:	8e 60       	ori	r24, 0x0E	; 14
    5d48:	88 b9       	out	0x08, r24	; 8
    5d4a:	80 91 68 00 	lds	r24, 0x0068	; 0x800068 <__TEXT_REGION_LENGTH__+0x7e0068>
    5d4e:	82 60       	ori	r24, 0x02	; 2
    5d50:	80 93 68 00 	sts	0x0068, r24	; 0x800068 <__TEXT_REGION_LENGTH__+0x7e0068>
    5d54:	80 91 6c 00 	lds	r24, 0x006C	; 0x80006c <__TEXT_REGION_LENGTH__+0x7e006c>
    5d58:	82 60       	ori	r24, 0x02	; 2
    5d5a:	80 93 6c 00 	sts	0x006C, r24	; 0x80006c <__TEXT_REGION_LENGTH__+0x7e006c>
    5d5e:	80 91 68 00 	lds	r24, 0x0068	; 0x800068 <__TEXT_REGION_LENGTH__+0x7e0068>
    5d62:	82 60       	ori	r24, 0x02	; 2
    5d64:	80 93 68 00 	sts	0x0068, r24	; 0x800068 <__TEXT_REGION_LENGTH__+0x7e0068>
    5d68:	80 91 6c 00 	lds	r24, 0x006C	; 0x80006c <__TEXT_REGION_LENGTH__+0x7e006c>
    5d6c:	84 60       	ori	r24, 0x04	; 4
    5d6e:	80 93 6c 00 	sts	0x006C, r24	; 0x80006c <__TEXT_REGION_LENGTH__+0x7e006c>
    5d72:	80 91 68 00 	lds	r24, 0x0068	; 0x800068 <__TEXT_REGION_LENGTH__+0x7e0068>
    5d76:	82 60       	ori	r24, 0x02	; 2
    5d78:	80 93 68 00 	sts	0x0068, r24	; 0x800068 <__TEXT_REGION_LENGTH__+0x7e0068>
    5d7c:	80 91 6c 00 	lds	r24, 0x006C	; 0x80006c <__TEXT_REGION_LENGTH__+0x7e006c>
    5d80:	88 60       	ori	r24, 0x08	; 8
    5d82:	80 93 6c 00 	sts	0x006C, r24	; 0x80006c <__TEXT_REGION_LENGTH__+0x7e006c>
    5d86:	78 94       	sei
    5d88:	8c e1       	ldi	r24, 0x1C	; 28
    5d8a:	95 e2       	ldi	r25, 0x25	; 37
    5d8c:	90 93 e9 02 	sts	0x02E9, r25	; 0x8002e9 <dimmer+0x1>
    5d90:	80 93 e8 02 	sts	0x02E8, r24	; 0x8002e8 <dimmer>
    5d94:	62 e0       	ldi	r22, 0x02	; 2
    5d96:	82 e0       	ldi	r24, 0x02	; 2
    5d98:	0e 94 0a 0a 	call	0x1414	; 0x1414 <pinMode>
    5d9c:	61 e0       	ldi	r22, 0x01	; 1
    5d9e:	85 e0       	ldi	r24, 0x05	; 5
    5da0:	0e 94 0a 0a 	call	0x1414	; 0x1414 <pinMode>
    5da4:	86 e0       	ldi	r24, 0x06	; 6
    5da6:	80 93 b1 00 	sts	0x00B1, r24	; 0x8000b1 <__TEXT_REGION_LENGTH__+0x7e00b1>
    5daa:	81 e0       	ldi	r24, 0x01	; 1
    5dac:	80 93 b0 00 	sts	0x00B0, r24	; 0x8000b0 <__TEXT_REGION_LENGTH__+0x7e00b0>
    5db0:	61 e0       	ldi	r22, 0x01	; 1
    5db2:	83 e0       	ldi	r24, 0x03	; 3
    5db4:	0e 94 0a 0a 	call	0x1414	; 0x1414 <pinMode>
    5db8:	60 e0       	ldi	r22, 0x00	; 0
    5dba:	83 e0       	ldi	r24, 0x03	; 3
    5dbc:	0e 94 aa 09 	call	0x1354	; 0x1354 <digitalWrite>
    5dc0:	61 e0       	ldi	r22, 0x01	; 1
    5dc2:	8b e0       	ldi	r24, 0x0B	; 11
    5dc4:	0e 94 0a 0a 	call	0x1414	; 0x1414 <pinMode>
    5dc8:	60 e0       	ldi	r22, 0x00	; 0
    5dca:	8b e0       	ldi	r24, 0x0B	; 11
    5dcc:	0e 94 aa 09 	call	0x1354	; 0x1354 <digitalWrite>
    5dd0:	61 e0       	ldi	r22, 0x01	; 1
    5dd2:	87 e0       	ldi	r24, 0x07	; 7
    5dd4:	0e 94 0a 0a 	call	0x1414	; 0x1414 <pinMode>
    5dd8:	60 e0       	ldi	r22, 0x00	; 0
    5dda:	87 e0       	ldi	r24, 0x07	; 7
    5ddc:	0e 94 aa 09 	call	0x1354	; 0x1354 <digitalWrite>
    5de0:	61 e0       	ldi	r22, 0x01	; 1
    5de2:	86 e0       	ldi	r24, 0x06	; 6
    5de4:	0e 94 0a 0a 	call	0x1414	; 0x1414 <pinMode>
    5de8:	60 e0       	ldi	r22, 0x00	; 0
    5dea:	86 e0       	ldi	r24, 0x06	; 6
    5dec:	0e 94 aa 09 	call	0x1354	; 0x1354 <digitalWrite>
    5df0:	e0 91 e2 05 	lds	r30, 0x05E2	; 0x8005e2 <oled+0x8>
    5df4:	f0 91 e3 05 	lds	r31, 0x05E3	; 0x8005e3 <oled+0x9>
    5df8:	30 e0       	ldi	r19, 0x00	; 0
    5dfa:	20 e0       	ldi	r18, 0x00	; 0
    5dfc:	40 e0       	ldi	r20, 0x00	; 0
    5dfe:	6a e0       	ldi	r22, 0x0A	; 10
    5e00:	8e ed       	ldi	r24, 0xDE	; 222
    5e02:	95 e0       	ldi	r25, 0x05	; 5
    5e04:	09 95       	icall
    5e06:	0e 94 36 1f 	call	0x3e6c	; 0x3e6c <u8g2_ClearDisplay.constprop.149>
    5e0a:	e0 91 e2 05 	lds	r30, 0x05E2	; 0x8005e2 <oled+0x8>
    5e0e:	f0 91 e3 05 	lds	r31, 0x05E3	; 0x8005e3 <oled+0x9>
    5e12:	30 e0       	ldi	r19, 0x00	; 0
    5e14:	20 e0       	ldi	r18, 0x00	; 0
    5e16:	40 e0       	ldi	r20, 0x00	; 0
    5e18:	6b e0       	ldi	r22, 0x0B	; 11
    5e1a:	8e ed       	ldi	r24, 0xDE	; 222
    5e1c:	95 e0       	ldi	r25, 0x05	; 5
    5e1e:	09 95       	icall
    5e20:	e0 91 e2 05 	lds	r30, 0x05E2	; 0x8005e2 <oled+0x8>
    5e24:	f0 91 e3 05 	lds	r31, 0x05E3	; 0x8005e3 <oled+0x9>
    5e28:	30 e0       	ldi	r19, 0x00	; 0
    5e2a:	20 e0       	ldi	r18, 0x00	; 0
    5e2c:	41 e0       	ldi	r20, 0x01	; 1
    5e2e:	6d e0       	ldi	r22, 0x0D	; 13
    5e30:	8e ed       	ldi	r24, 0xDE	; 222
    5e32:	95 e0       	ldi	r25, 0x05	; 5
    5e34:	09 95       	icall
    5e36:	8e e8       	ldi	r24, 0x8E	; 142
    5e38:	90 e1       	ldi	r25, 0x10	; 16
    5e3a:	90 93 6b 06 	sts	0x066B, r25	; 0x80066b <oled+0x91>
    5e3e:	80 93 6a 06 	sts	0x066A, r24	; 0x80066a <oled+0x90>
    5e42:	0e 94 f1 13 	call	0x27e2	; 0x27e2 <u8g2_SetFont.constprop.87>
    5e46:	84 e3       	ldi	r24, 0x34	; 52
    5e48:	80 93 ea 02 	sts	0x02EA, r24	; 0x8002ea <menuSize>
    5e4c:	80 e0       	ldi	r24, 0x00	; 0
    5e4e:	90 e0       	ldi	r25, 0x00	; 0
    5e50:	0e 94 12 3b 	call	0x7624	; 0x7624 <eeprom_read_dword>
    5e54:	30 e0       	ldi	r19, 0x00	; 0
    5e56:	20 e0       	ldi	r18, 0x00	; 0
    5e58:	81 2c       	mov	r8, r1
    5e5a:	91 2c       	mov	r9, r1
    5e5c:	54 01       	movw	r10, r8
    5e5e:	e1 e0       	ldi	r30, 0x01	; 1
    5e60:	6b 01       	movw	r12, r22
    5e62:	7c 01       	movw	r14, r24
    5e64:	02 2e       	mov	r0, r18
    5e66:	04 c0       	rjmp	.+8      	; 0x5e70 <main+0x196>
    5e68:	f6 94       	lsr	r15
    5e6a:	e7 94       	ror	r14
    5e6c:	d7 94       	ror	r13
    5e6e:	c7 94       	ror	r12
    5e70:	0a 94       	dec	r0
    5e72:	d2 f7       	brpl	.-12     	; 0x5e68 <main+0x18e>
    5e74:	c0 fe       	sbrs	r12, 0
    5e76:	09 c0       	rjmp	.+18     	; 0x5e8a <main+0x1b0>
    5e78:	d9 01       	movw	r26, r18
    5e7a:	ac 53       	subi	r26, 0x3C	; 60
    5e7c:	bd 4f       	sbci	r27, 0xFD	; 253
    5e7e:	ec 93       	st	X, r30
    5e80:	4f ef       	ldi	r20, 0xFF	; 255
    5e82:	84 1a       	sub	r8, r20
    5e84:	94 0a       	sbc	r9, r20
    5e86:	a4 0a       	sbc	r10, r20
    5e88:	b4 0a       	sbc	r11, r20
    5e8a:	2f 5f       	subi	r18, 0xFF	; 255
    5e8c:	3f 4f       	sbci	r19, 0xFF	; 255
    5e8e:	20 32       	cpi	r18, 0x20	; 32
    5e90:	31 05       	cpc	r19, r1
    5e92:	31 f7       	brne	.-52     	; 0x5e60 <main+0x186>
    5e94:	89 28       	or	r8, r9
    5e96:	8a 28       	or	r8, r10
    5e98:	8b 28       	or	r8, r11
    5e9a:	09 f4       	brne	.+2      	; 0x5e9e <main+0x1c4>
    5e9c:	b1 c0       	rjmp	.+354    	; 0x6000 <main+0x326>
    5e9e:	40 e8       	ldi	r20, 0x80	; 128
    5ea0:	84 2e       	mov	r8, r20
    5ea2:	91 2c       	mov	r9, r1
    5ea4:	52 e5       	ldi	r21, 0x52	; 82
    5ea6:	e5 2e       	mov	r14, r21
    5ea8:	52 e0       	ldi	r21, 0x02	; 2
    5eaa:	f5 2e       	mov	r15, r21
    5eac:	66 ea       	ldi	r22, 0xA6	; 166
    5eae:	c6 2e       	mov	r12, r22
    5eb0:	62 e0       	ldi	r22, 0x02	; 2
    5eb2:	d6 2e       	mov	r13, r22
    5eb4:	75 e0       	ldi	r23, 0x05	; 5
    5eb6:	67 2e       	mov	r6, r23
    5eb8:	0e 94 f1 13 	call	0x27e2	; 0x27e2 <u8g2_SetFont.constprop.87>
    5ebc:	84 e2       	ldi	r24, 0x24	; 36
    5ebe:	94 e0       	ldi	r25, 0x04	; 4
    5ec0:	0e 94 86 1a 	call	0x350c	; 0x350c <_Z13printMenuItemPKPKc>
    5ec4:	8c 01       	movw	r16, r24
    5ec6:	84 e2       	ldi	r24, 0x24	; 36
    5ec8:	94 e0       	ldi	r25, 0x04	; 4
    5eca:	0e 94 86 1a 	call	0x350c	; 0x350c <_Z13printMenuItemPKPKc>
    5ece:	0e 94 84 15 	call	0x2b08	; 0x2b08 <u8g2_GetUTF8Width.constprop.95>
    5ed2:	d4 01       	movw	r26, r8
    5ed4:	a8 1b       	sub	r26, r24
    5ed6:	b9 0b       	sbc	r27, r25
    5ed8:	cd 01       	movw	r24, r26
    5eda:	a8 01       	movw	r20, r16
    5edc:	60 e1       	ldi	r22, 0x10	; 16
    5ede:	70 e0       	ldi	r23, 0x00	; 0
    5ee0:	96 95       	lsr	r25
    5ee2:	87 95       	ror	r24
    5ee4:	0e 94 8f 17 	call	0x2f1e	; 0x2f1e <_ZN4U8G28drawUTF8EjjPKc.constprop.146>
    5ee8:	34 ec       	ldi	r19, 0xC4	; 196
    5eea:	a3 2e       	mov	r10, r19
    5eec:	32 e0       	ldi	r19, 0x02	; 2
    5eee:	b3 2e       	mov	r11, r19
    5ef0:	10 e0       	ldi	r17, 0x00	; 0
    5ef2:	00 e0       	ldi	r16, 0x00	; 0
    5ef4:	71 2c       	mov	r7, r1
    5ef6:	f5 01       	movw	r30, r10
    5ef8:	81 91       	ld	r24, Z+
    5efa:	5f 01       	movw	r10, r30
    5efc:	88 23       	and	r24, r24
    5efe:	89 f1       	breq	.+98     	; 0x5f62 <main+0x288>
    5f00:	1f 93       	push	r17
    5f02:	0f 93       	push	r16
    5f04:	ff 92       	push	r15
    5f06:	ef 92       	push	r14
    5f08:	df 92       	push	r13
    5f0a:	cf 92       	push	r12
    5f0c:	0e 94 6d 3f 	call	0x7eda	; 0x7eda <sprintf>
    5f10:	67 2d       	mov	r22, r7
    5f12:	66 95       	lsr	r22
    5f14:	66 95       	lsr	r22
    5f16:	70 e0       	ldi	r23, 0x00	; 0
    5f18:	6e 5f       	subi	r22, 0xFE	; 254
    5f1a:	7f 4f       	sbci	r23, 0xFF	; 255
    5f1c:	94 e0       	ldi	r25, 0x04	; 4
    5f1e:	66 0f       	add	r22, r22
    5f20:	77 1f       	adc	r23, r23
    5f22:	9a 95       	dec	r25
    5f24:	e1 f7       	brne	.-8      	; 0x5f1e <main+0x244>
    5f26:	f0 e2       	ldi	r31, 0x20	; 32
    5f28:	7f 9e       	mul	r7, r31
    5f2a:	c0 01       	movw	r24, r0
    5f2c:	11 24       	eor	r1, r1
    5f2e:	80 76       	andi	r24, 0x60	; 96
    5f30:	99 27       	eor	r25, r25
    5f32:	46 ea       	ldi	r20, 0xA6	; 166
    5f34:	52 e0       	ldi	r21, 0x02	; 2
    5f36:	04 96       	adiw	r24, 0x04	; 4
    5f38:	0e 94 8f 17 	call	0x2f1e	; 0x2f1e <_ZN4U8G28drawUTF8EjjPKc.constprop.146>
    5f3c:	87 2d       	mov	r24, r7
    5f3e:	66 2d       	mov	r22, r6
    5f40:	0e 94 e3 3b 	call	0x77c6	; 0x77c6 <__udivmodqi4>
    5f44:	0f 90       	pop	r0
    5f46:	0f 90       	pop	r0
    5f48:	0f 90       	pop	r0
    5f4a:	0f 90       	pop	r0
    5f4c:	0f 90       	pop	r0
    5f4e:	0f 90       	pop	r0
    5f50:	91 11       	cpse	r25, r1
    5f52:	06 c0       	rjmp	.+12     	; 0x5f60 <main+0x286>
    5f54:	68 e5       	ldi	r22, 0x58	; 88
    5f56:	72 e0       	ldi	r23, 0x02	; 2
    5f58:	86 ea       	ldi	r24, 0xA6	; 166
    5f5a:	92 e0       	ldi	r25, 0x02	; 2
    5f5c:	0e 94 66 3f 	call	0x7ecc	; 0x7ecc <strcpy>
    5f60:	73 94       	inc	r7
    5f62:	0f 5f       	subi	r16, 0xFF	; 255
    5f64:	1f 4f       	sbci	r17, 0xFF	; 255
    5f66:	00 32       	cpi	r16, 0x20	; 32
    5f68:	11 05       	cpc	r17, r1
    5f6a:	29 f6       	brne	.-118    	; 0x5ef6 <main+0x21c>
    5f6c:	30 e0       	ldi	r19, 0x00	; 0
    5f6e:	20 e0       	ldi	r18, 0x00	; 0
    5f70:	50 e0       	ldi	r21, 0x00	; 0
    5f72:	40 e0       	ldi	r20, 0x00	; 0
    5f74:	60 e1       	ldi	r22, 0x10	; 16
    5f76:	70 e0       	ldi	r23, 0x00	; 0
    5f78:	90 e0       	ldi	r25, 0x00	; 0
    5f7a:	80 e0       	ldi	r24, 0x00	; 0
    5f7c:	0e 94 0d 17 	call	0x2e1a	; 0x2e1a <u8g2_DrawButtonUTF8.constprop.94>
    5f80:	30 e0       	ldi	r19, 0x00	; 0
    5f82:	20 e0       	ldi	r18, 0x00	; 0
    5f84:	50 e0       	ldi	r21, 0x00	; 0
    5f86:	40 e0       	ldi	r20, 0x00	; 0
    5f88:	60 e2       	ldi	r22, 0x20	; 32
    5f8a:	70 e0       	ldi	r23, 0x00	; 0
    5f8c:	90 e0       	ldi	r25, 0x00	; 0
    5f8e:	80 e0       	ldi	r24, 0x00	; 0
    5f90:	0e 94 0d 17 	call	0x2e1a	; 0x2e1a <u8g2_DrawButtonUTF8.constprop.94>
    5f94:	30 e0       	ldi	r19, 0x00	; 0
    5f96:	20 e0       	ldi	r18, 0x00	; 0
    5f98:	50 e0       	ldi	r21, 0x00	; 0
    5f9a:	40 e0       	ldi	r20, 0x00	; 0
    5f9c:	60 e3       	ldi	r22, 0x30	; 48
    5f9e:	70 e0       	ldi	r23, 0x00	; 0
    5fa0:	90 e0       	ldi	r25, 0x00	; 0
    5fa2:	80 e0       	ldi	r24, 0x00	; 0
    5fa4:	0e 94 0d 17 	call	0x2e1a	; 0x2e1a <u8g2_DrawButtonUTF8.constprop.94>
    5fa8:	30 e0       	ldi	r19, 0x00	; 0
    5faa:	20 e0       	ldi	r18, 0x00	; 0
    5fac:	50 e0       	ldi	r21, 0x00	; 0
    5fae:	40 e0       	ldi	r20, 0x00	; 0
    5fb0:	60 e4       	ldi	r22, 0x40	; 64
    5fb2:	70 e0       	ldi	r23, 0x00	; 0
    5fb4:	90 e0       	ldi	r25, 0x00	; 0
    5fb6:	80 e0       	ldi	r24, 0x00	; 0
    5fb8:	0e 94 0d 17 	call	0x2e1a	; 0x2e1a <u8g2_DrawButtonUTF8.constprop.94>
    5fbc:	8e ed       	ldi	r24, 0xDE	; 222
    5fbe:	95 e0       	ldi	r25, 0x05	; 5
    5fc0:	0e 94 fa 1e 	call	0x3df4	; 0x3df4 <u8g2_NextPage>
    5fc4:	81 11       	cpse	r24, r1
    5fc6:	78 cf       	rjmp	.-272    	; 0x5eb8 <main+0x1de>
    5fc8:	14 be       	out	0x34, r1	; 52
    5fca:	88 ec       	ldi	r24, 0xC8	; 200
    5fcc:	90 e0       	ldi	r25, 0x00	; 0
    5fce:	0e 94 46 0a 	call	0x148c	; 0x148c <analogWrite.constprop.33>
    5fd2:	81 e1       	ldi	r24, 0x11	; 17
    5fd4:	0e 94 81 09 	call	0x1302	; 0x1302 <digitalRead>
    5fd8:	89 2b       	or	r24, r25
    5fda:	59 f0       	breq	.+22     	; 0x5ff2 <main+0x318>
    5fdc:	8a ef       	ldi	r24, 0xFA	; 250
    5fde:	90 e0       	ldi	r25, 0x00	; 0
    5fe0:	0e 94 66 1a 	call	0x34cc	; 0x34cc <_Z4piiij>
    5fe4:	6a ef       	ldi	r22, 0xFA	; 250
    5fe6:	70 e0       	ldi	r23, 0x00	; 0
    5fe8:	80 e0       	ldi	r24, 0x00	; 0
    5fea:	90 e0       	ldi	r25, 0x00	; 0
    5fec:	0e 94 e3 0a 	call	0x15c6	; 0x15c6 <delay>
    5ff0:	f0 cf       	rjmp	.-32     	; 0x5fd2 <main+0x2f8>
    5ff2:	40 e0       	ldi	r20, 0x00	; 0
    5ff4:	50 e0       	ldi	r21, 0x00	; 0
    5ff6:	ba 01       	movw	r22, r20
    5ff8:	80 e0       	ldi	r24, 0x00	; 0
    5ffa:	90 e0       	ldi	r25, 0x00	; 0
    5ffc:	0e 94 1e 3b 	call	0x763c	; 0x763c <eeprom_write_dword>
    6000:	0e 94 48 1b 	call	0x3690	; 0x3690 <_Z15updateIDyerDatav>
    6004:	80 91 6b 05 	lds	r24, 0x056B	; 0x80056b <pid+0x3a>
    6008:	00 91 4f 05 	lds	r16, 0x054F	; 0x80054f <pid+0x1e>
    600c:	10 91 50 05 	lds	r17, 0x0550	; 0x800550 <pid+0x1f>
    6010:	81 11       	cpse	r24, r1
    6012:	46 c0       	rjmp	.+140    	; 0x60a0 <main+0x3c6>
    6014:	d8 01       	movw	r26, r16
    6016:	cd 90       	ld	r12, X+
    6018:	dd 90       	ld	r13, X+
    601a:	ed 90       	ld	r14, X+
    601c:	fc 90       	ld	r15, X
    601e:	c0 92 57 05 	sts	0x0557, r12	; 0x800557 <pid+0x26>
    6022:	d0 92 58 05 	sts	0x0558, r13	; 0x800558 <pid+0x27>
    6026:	e0 92 59 05 	sts	0x0559, r14	; 0x800559 <pid+0x28>
    602a:	f0 92 5a 05 	sts	0x055A, r15	; 0x80055a <pid+0x29>
    602e:	e0 91 4d 05 	lds	r30, 0x054D	; 0x80054d <pid+0x1c>
    6032:	f0 91 4e 05 	lds	r31, 0x054E	; 0x80054e <pid+0x1d>
    6036:	80 81       	ld	r24, Z
    6038:	91 81       	ldd	r25, Z+1	; 0x01
    603a:	a2 81       	ldd	r26, Z+2	; 0x02
    603c:	b3 81       	ldd	r27, Z+3	; 0x03
    603e:	80 93 5b 05 	sts	0x055B, r24	; 0x80055b <pid+0x2a>
    6042:	90 93 5c 05 	sts	0x055C, r25	; 0x80055c <pid+0x2b>
    6046:	a0 93 5d 05 	sts	0x055D, r26	; 0x80055d <pid+0x2c>
    604a:	b0 93 5e 05 	sts	0x055E, r27	; 0x80055e <pid+0x2d>
    604e:	80 90 67 05 	lds	r8, 0x0567	; 0x800567 <pid+0x36>
    6052:	90 90 68 05 	lds	r9, 0x0568	; 0x800568 <pid+0x37>
    6056:	a0 90 69 05 	lds	r10, 0x0569	; 0x800569 <pid+0x38>
    605a:	b0 90 6a 05 	lds	r11, 0x056A	; 0x80056a <pid+0x39>
    605e:	a5 01       	movw	r20, r10
    6060:	94 01       	movw	r18, r8
    6062:	c7 01       	movw	r24, r14
    6064:	b6 01       	movw	r22, r12
    6066:	0e 94 c8 3d 	call	0x7b90	; 0x7b90 <__gesf2>
    606a:	18 16       	cp	r1, r24
    606c:	4c f4       	brge	.+18     	; 0x6080 <main+0x3a6>
    606e:	80 92 57 05 	sts	0x0557, r8	; 0x800557 <pid+0x26>
    6072:	90 92 58 05 	sts	0x0558, r9	; 0x800558 <pid+0x27>
    6076:	a0 92 59 05 	sts	0x0559, r10	; 0x800559 <pid+0x28>
    607a:	b0 92 5a 05 	sts	0x055A, r11	; 0x80055a <pid+0x29>
    607e:	10 c0       	rjmp	.+32     	; 0x60a0 <main+0x3c6>
    6080:	80 90 63 05 	lds	r8, 0x0563	; 0x800563 <pid+0x32>
    6084:	90 90 64 05 	lds	r9, 0x0564	; 0x800564 <pid+0x33>
    6088:	a0 90 65 05 	lds	r10, 0x0565	; 0x800565 <pid+0x34>
    608c:	b0 90 66 05 	lds	r11, 0x0566	; 0x800566 <pid+0x35>
    6090:	a5 01       	movw	r20, r10
    6092:	94 01       	movw	r18, r8
    6094:	c7 01       	movw	r24, r14
    6096:	b6 01       	movw	r22, r12
    6098:	0e 94 69 3c 	call	0x78d2	; 0x78d2 <__cmpsf2>
    609c:	87 fd       	sbrc	r24, 7
    609e:	e7 cf       	rjmp	.-50     	; 0x606e <main+0x394>
    60a0:	81 e0       	ldi	r24, 0x01	; 1
    60a2:	80 93 6b 05 	sts	0x056B, r24	; 0x80056b <pid+0x3a>
    60a6:	80 91 49 05 	lds	r24, 0x0549	; 0x800549 <pid+0x18>
    60aa:	90 91 4a 05 	lds	r25, 0x054A	; 0x80054a <pid+0x19>
    60ae:	89 2b       	or	r24, r25
    60b0:	09 f4       	brne	.+2      	; 0x60b4 <main+0x3da>
    60b2:	3f c0       	rjmp	.+126    	; 0x6132 <main+0x458>
    60b4:	20 91 3d 05 	lds	r18, 0x053D	; 0x80053d <pid+0xc>
    60b8:	30 91 3e 05 	lds	r19, 0x053E	; 0x80053e <pid+0xd>
    60bc:	40 91 3f 05 	lds	r20, 0x053F	; 0x80053f <pid+0xe>
    60c0:	50 91 40 05 	lds	r21, 0x0540	; 0x800540 <pid+0xf>
    60c4:	60 e0       	ldi	r22, 0x00	; 0
    60c6:	70 e0       	ldi	r23, 0x00	; 0
    60c8:	cb 01       	movw	r24, r22
    60ca:	0e 94 fc 3b 	call	0x77f8	; 0x77f8 <__subsf3>
    60ce:	60 93 3d 05 	sts	0x053D, r22	; 0x80053d <pid+0xc>
    60d2:	70 93 3e 05 	sts	0x053E, r23	; 0x80053e <pid+0xd>
    60d6:	80 93 3f 05 	sts	0x053F, r24	; 0x80053f <pid+0xe>
    60da:	90 93 40 05 	sts	0x0540, r25	; 0x800540 <pid+0xf>
    60de:	20 91 41 05 	lds	r18, 0x0541	; 0x800541 <pid+0x10>
    60e2:	30 91 42 05 	lds	r19, 0x0542	; 0x800542 <pid+0x11>
    60e6:	40 91 43 05 	lds	r20, 0x0543	; 0x800543 <pid+0x12>
    60ea:	50 91 44 05 	lds	r21, 0x0544	; 0x800544 <pid+0x13>
    60ee:	60 e0       	ldi	r22, 0x00	; 0
    60f0:	70 e0       	ldi	r23, 0x00	; 0
    60f2:	cb 01       	movw	r24, r22
    60f4:	0e 94 fc 3b 	call	0x77f8	; 0x77f8 <__subsf3>
    60f8:	60 93 41 05 	sts	0x0541, r22	; 0x800541 <pid+0x10>
    60fc:	70 93 42 05 	sts	0x0542, r23	; 0x800542 <pid+0x11>
    6100:	80 93 43 05 	sts	0x0543, r24	; 0x800543 <pid+0x12>
    6104:	90 93 44 05 	sts	0x0544, r25	; 0x800544 <pid+0x13>
    6108:	20 91 45 05 	lds	r18, 0x0545	; 0x800545 <pid+0x14>
    610c:	30 91 46 05 	lds	r19, 0x0546	; 0x800546 <pid+0x15>
    6110:	40 91 47 05 	lds	r20, 0x0547	; 0x800547 <pid+0x16>
    6114:	50 91 48 05 	lds	r21, 0x0548	; 0x800548 <pid+0x17>
    6118:	60 e0       	ldi	r22, 0x00	; 0
    611a:	70 e0       	ldi	r23, 0x00	; 0
    611c:	cb 01       	movw	r24, r22
    611e:	0e 94 fc 3b 	call	0x77f8	; 0x77f8 <__subsf3>
    6122:	60 93 45 05 	sts	0x0545, r22	; 0x800545 <pid+0x14>
    6126:	70 93 46 05 	sts	0x0546, r23	; 0x800546 <pid+0x15>
    612a:	80 93 47 05 	sts	0x0547, r24	; 0x800547 <pid+0x16>
    612e:	90 93 48 05 	sts	0x0548, r25	; 0x800548 <pid+0x17>
    6132:	10 92 4a 05 	sts	0x054A, r1	; 0x80054a <pid+0x19>
    6136:	10 92 49 05 	sts	0x0549, r1	; 0x800549 <pid+0x18>
    613a:	c1 2c       	mov	r12, r1
    613c:	d1 2c       	mov	r13, r1
    613e:	ba ef       	ldi	r27, 0xFA	; 250
    6140:	eb 2e       	mov	r14, r27
    6142:	b3 e4       	ldi	r27, 0x43	; 67
    6144:	fb 2e       	mov	r15, r27
    6146:	c0 92 63 05 	sts	0x0563, r12	; 0x800563 <pid+0x32>
    614a:	d0 92 64 05 	sts	0x0564, r13	; 0x800564 <pid+0x33>
    614e:	e0 92 65 05 	sts	0x0565, r14	; 0x800565 <pid+0x34>
    6152:	f0 92 66 05 	sts	0x0566, r15	; 0x800566 <pid+0x35>
    6156:	41 2c       	mov	r4, r1
    6158:	80 e7       	ldi	r24, 0x70	; 112
    615a:	58 2e       	mov	r5, r24
    615c:	84 e1       	ldi	r24, 0x14	; 20
    615e:	68 2e       	mov	r6, r24
    6160:	86 e4       	ldi	r24, 0x46	; 70
    6162:	78 2e       	mov	r7, r24
    6164:	40 92 67 05 	sts	0x0567, r4	; 0x800567 <pid+0x36>
    6168:	50 92 68 05 	sts	0x0568, r5	; 0x800568 <pid+0x37>
    616c:	60 92 69 05 	sts	0x0569, r6	; 0x800569 <pid+0x38>
    6170:	70 92 6a 05 	sts	0x056A, r7	; 0x80056a <pid+0x39>
    6174:	f8 01       	movw	r30, r16
    6176:	80 80       	ld	r8, Z
    6178:	91 80       	ldd	r9, Z+1	; 0x01
    617a:	a2 80       	ldd	r10, Z+2	; 0x02
    617c:	b3 80       	ldd	r11, Z+3	; 0x03
    617e:	a3 01       	movw	r20, r6
    6180:	92 01       	movw	r18, r4
    6182:	c5 01       	movw	r24, r10
    6184:	b4 01       	movw	r22, r8
    6186:	0e 94 c8 3d 	call	0x7b90	; 0x7b90 <__gesf2>
    618a:	18 16       	cp	r1, r24
    618c:	3c f5       	brge	.+78     	; 0x61dc <main+0x502>
    618e:	d8 01       	movw	r26, r16
    6190:	4d 92       	st	X+, r4
    6192:	5d 92       	st	X+, r5
    6194:	6d 92       	st	X+, r6
    6196:	7c 92       	st	X, r7
    6198:	13 97       	sbiw	r26, 0x03	; 3
    619a:	80 90 57 05 	lds	r8, 0x0557	; 0x800557 <pid+0x26>
    619e:	90 90 58 05 	lds	r9, 0x0558	; 0x800558 <pid+0x27>
    61a2:	a0 90 59 05 	lds	r10, 0x0559	; 0x800559 <pid+0x28>
    61a6:	b0 90 5a 05 	lds	r11, 0x055A	; 0x80055a <pid+0x29>
    61aa:	c0 90 67 05 	lds	r12, 0x0567	; 0x800567 <pid+0x36>
    61ae:	d0 90 68 05 	lds	r13, 0x0568	; 0x800568 <pid+0x37>
    61b2:	e0 90 69 05 	lds	r14, 0x0569	; 0x800569 <pid+0x38>
    61b6:	f0 90 6a 05 	lds	r15, 0x056A	; 0x80056a <pid+0x39>
    61ba:	a7 01       	movw	r20, r14
    61bc:	96 01       	movw	r18, r12
    61be:	c5 01       	movw	r24, r10
    61c0:	b4 01       	movw	r22, r8
    61c2:	0e 94 c8 3d 	call	0x7b90	; 0x7b90 <__gesf2>
    61c6:	18 16       	cp	r1, r24
    61c8:	cc f4       	brge	.+50     	; 0x61fc <main+0x522>
    61ca:	c0 92 57 05 	sts	0x0557, r12	; 0x800557 <pid+0x26>
    61ce:	d0 92 58 05 	sts	0x0558, r13	; 0x800558 <pid+0x27>
    61d2:	e0 92 59 05 	sts	0x0559, r14	; 0x800559 <pid+0x28>
    61d6:	f0 92 5a 05 	sts	0x055A, r15	; 0x80055a <pid+0x29>
    61da:	20 c0       	rjmp	.+64     	; 0x621c <main+0x542>
    61dc:	20 e0       	ldi	r18, 0x00	; 0
    61de:	30 e0       	ldi	r19, 0x00	; 0
    61e0:	4a ef       	ldi	r20, 0xFA	; 250
    61e2:	53 e4       	ldi	r21, 0x43	; 67
    61e4:	c5 01       	movw	r24, r10
    61e6:	b4 01       	movw	r22, r8
    61e8:	0e 94 69 3c 	call	0x78d2	; 0x78d2 <__cmpsf2>
    61ec:	87 ff       	sbrs	r24, 7
    61ee:	d5 cf       	rjmp	.-86     	; 0x619a <main+0x4c0>
    61f0:	f8 01       	movw	r30, r16
    61f2:	c0 82       	st	Z, r12
    61f4:	d1 82       	std	Z+1, r13	; 0x01
    61f6:	e2 82       	std	Z+2, r14	; 0x02
    61f8:	f3 82       	std	Z+3, r15	; 0x03
    61fa:	cf cf       	rjmp	.-98     	; 0x619a <main+0x4c0>
    61fc:	c0 90 63 05 	lds	r12, 0x0563	; 0x800563 <pid+0x32>
    6200:	d0 90 64 05 	lds	r13, 0x0564	; 0x800564 <pid+0x33>
    6204:	e0 90 65 05 	lds	r14, 0x0565	; 0x800565 <pid+0x34>
    6208:	f0 90 66 05 	lds	r15, 0x0566	; 0x800566 <pid+0x35>
    620c:	a7 01       	movw	r20, r14
    620e:	96 01       	movw	r18, r12
    6210:	c5 01       	movw	r24, r10
    6212:	b4 01       	movw	r22, r8
    6214:	0e 94 69 3c 	call	0x78d2	; 0x78d2 <__cmpsf2>
    6218:	87 fd       	sbrc	r24, 7
    621a:	d7 cf       	rjmp	.-82     	; 0x61ca <main+0x4f0>
    621c:	e0 90 be 03 	lds	r14, 0x03BE	; 0x8003be <iDryer+0x24>
    6220:	f0 90 bf 03 	lds	r15, 0x03BF	; 0x8003bf <iDryer+0x25>
    6224:	00 91 c0 03 	lds	r16, 0x03C0	; 0x8003c0 <iDryer+0x26>
    6228:	10 91 c1 03 	lds	r17, 0x03C1	; 0x8003c1 <iDryer+0x27>
    622c:	20 91 ba 03 	lds	r18, 0x03BA	; 0x8003ba <iDryer+0x20>
    6230:	30 91 bb 03 	lds	r19, 0x03BB	; 0x8003bb <iDryer+0x21>
    6234:	40 91 bc 03 	lds	r20, 0x03BC	; 0x8003bc <iDryer+0x22>
    6238:	50 91 bd 03 	lds	r21, 0x03BD	; 0x8003bd <iDryer+0x23>
    623c:	60 91 b6 03 	lds	r22, 0x03B6	; 0x8003b6 <iDryer+0x1c>
    6240:	70 91 b7 03 	lds	r23, 0x03B7	; 0x8003b7 <iDryer+0x1d>
    6244:	80 91 b8 03 	lds	r24, 0x03B8	; 0x8003b8 <iDryer+0x1e>
    6248:	90 91 b9 03 	lds	r25, 0x03B9	; 0x8003b9 <iDryer+0x1f>
    624c:	0e 94 da 04 	call	0x9b4	; 0x9b4 <_ZN3PID10SetTuningsEdddi.constprop.72>
    6250:	80 91 c2 03 	lds	r24, 0x03C2	; 0x8003c2 <iDryer+0x28>
    6254:	90 91 c3 03 	lds	r25, 0x03C3	; 0x8003c3 <iDryer+0x29>
    6258:	0e 94 cc 06 	call	0xd98	; 0xd98 <_ZN3PID13SetSampleTimeEi.constprop.74>
    625c:	8e ed       	ldi	r24, 0xDE	; 222
    625e:	95 e0       	ldi	r25, 0x05	; 5
    6260:	0e 94 24 1f 	call	0x3e48	; 0x3e48 <u8g2_FirstPage>
    6264:	00 e8       	ldi	r16, 0x80	; 128
    6266:	10 e0       	ldi	r17, 0x00	; 0
    6268:	84 e1       	ldi	r24, 0x14	; 20
    626a:	94 e0       	ldi	r25, 0x04	; 4
    626c:	0e 94 86 1a 	call	0x350c	; 0x350c <_Z13printMenuItemPKPKc>
    6270:	7c 01       	movw	r14, r24
    6272:	84 e1       	ldi	r24, 0x14	; 20
    6274:	94 e0       	ldi	r25, 0x04	; 4
    6276:	0e 94 86 1a 	call	0x350c	; 0x350c <_Z13printMenuItemPKPKc>
    627a:	0e 94 84 15 	call	0x2b08	; 0x2b08 <u8g2_GetUTF8Width.constprop.95>
    627e:	98 01       	movw	r18, r16
    6280:	28 1b       	sub	r18, r24
    6282:	39 0b       	sbc	r19, r25
    6284:	c9 01       	movw	r24, r18
    6286:	a7 01       	movw	r20, r14
    6288:	60 e1       	ldi	r22, 0x10	; 16
    628a:	70 e0       	ldi	r23, 0x00	; 0
    628c:	96 95       	lsr	r25
    628e:	87 95       	ror	r24
    6290:	0e 94 8f 17 	call	0x2f1e	; 0x2f1e <_ZN4U8G28drawUTF8EjjPKc.constprop.146>
    6294:	86 e1       	ldi	r24, 0x16	; 22
    6296:	94 e0       	ldi	r25, 0x04	; 4
    6298:	0e 94 86 1a 	call	0x350c	; 0x350c <_Z13printMenuItemPKPKc>
    629c:	7c 01       	movw	r14, r24
    629e:	86 e1       	ldi	r24, 0x16	; 22
    62a0:	94 e0       	ldi	r25, 0x04	; 4
    62a2:	0e 94 86 1a 	call	0x350c	; 0x350c <_Z13printMenuItemPKPKc>
    62a6:	0e 94 84 15 	call	0x2b08	; 0x2b08 <u8g2_GetUTF8Width.constprop.95>
    62aa:	d8 01       	movw	r26, r16
    62ac:	a8 1b       	sub	r26, r24
    62ae:	b9 0b       	sbc	r27, r25
    62b0:	cd 01       	movw	r24, r26
    62b2:	a7 01       	movw	r20, r14
    62b4:	60 e2       	ldi	r22, 0x20	; 32
    62b6:	70 e0       	ldi	r23, 0x00	; 0
    62b8:	96 95       	lsr	r25
    62ba:	87 95       	ror	r24
    62bc:	0e 94 8f 17 	call	0x2f1e	; 0x2f1e <_ZN4U8G28drawUTF8EjjPKc.constprop.146>
    62c0:	88 e1       	ldi	r24, 0x18	; 24
    62c2:	94 e0       	ldi	r25, 0x04	; 4
    62c4:	0e 94 86 1a 	call	0x350c	; 0x350c <_Z13printMenuItemPKPKc>
    62c8:	7c 01       	movw	r14, r24
    62ca:	88 e1       	ldi	r24, 0x18	; 24
    62cc:	94 e0       	ldi	r25, 0x04	; 4
    62ce:	0e 94 86 1a 	call	0x350c	; 0x350c <_Z13printMenuItemPKPKc>
    62d2:	0e 94 84 15 	call	0x2b08	; 0x2b08 <u8g2_GetUTF8Width.constprop.95>
    62d6:	f8 01       	movw	r30, r16
    62d8:	e8 1b       	sub	r30, r24
    62da:	f9 0b       	sbc	r31, r25
    62dc:	cf 01       	movw	r24, r30
    62de:	a7 01       	movw	r20, r14
    62e0:	60 e3       	ldi	r22, 0x30	; 48
    62e2:	70 e0       	ldi	r23, 0x00	; 0
    62e4:	96 95       	lsr	r25
    62e6:	87 95       	ror	r24
    62e8:	0e 94 8f 17 	call	0x2f1e	; 0x2f1e <_ZN4U8G28drawUTF8EjjPKc.constprop.146>
    62ec:	8e ed       	ldi	r24, 0xDE	; 222
    62ee:	95 e0       	ldi	r25, 0x05	; 5
    62f0:	0e 94 fa 1e 	call	0x3df4	; 0x3df4 <u8g2_NextPage>
    62f4:	81 11       	cpse	r24, r1
    62f6:	b8 cf       	rjmp	.-144    	; 0x6268 <main+0x58e>
    62f8:	80 91 d2 05 	lds	r24, 0x05D2	; 0x8005d2 <enc+0x11>
    62fc:	8c 7f       	andi	r24, 0xFC	; 252
    62fe:	9e e1       	ldi	r25, 0x1E	; 30
    6300:	90 93 d4 05 	sts	0x05D4, r25	; 0x8005d4 <enc+0x13>
    6304:	86 68       	ori	r24, 0x86	; 134
    6306:	80 93 d2 05 	sts	0x05D2, r24	; 0x8005d2 <enc+0x11>
    630a:	86 e7       	ldi	r24, 0x76	; 118
    630c:	90 e0       	ldi	r25, 0x00	; 0
    630e:	90 93 71 06 	sts	0x0671, r25	; 0x800671 <bme+0x1>
    6312:	80 93 70 06 	sts	0x0670, r24	; 0x800670 <bme>
    6316:	0e 94 d8 09 	call	0x13b0	; 0x13b0 <_ZN7TwoWire5beginEv.constprop.41>
    631a:	66 eb       	ldi	r22, 0xB6	; 182
    631c:	8e e0       	ldi	r24, 0x0E	; 14
    631e:	0e 94 59 08 	call	0x10b2	; 0x10b2 <_ZN11GyverBME28013writeRegisterEhh.constprop.48>
    6322:	88 23       	and	r24, r24
    6324:	09 f4       	brne	.+2      	; 0x6328 <main+0x64e>
    6326:	50 c1       	rjmp	.+672    	; 0x65c8 <main+0x8ee>
    6328:	6a e0       	ldi	r22, 0x0A	; 10
    632a:	70 e0       	ldi	r23, 0x00	; 0
    632c:	80 e0       	ldi	r24, 0x00	; 0
    632e:	90 e0       	ldi	r25, 0x00	; 0
    6330:	0e 94 e3 0a 	call	0x15c6	; 0x15c6 <delay>
    6334:	80 ed       	ldi	r24, 0xD0	; 208
    6336:	0e 94 e2 1c 	call	0x39c4	; 0x39c4 <_ZN11GyverBME28012readRegisterEh.constprop.46>
    633a:	80 36       	cpi	r24, 0x60	; 96
    633c:	19 f0       	breq	.+6      	; 0x6344 <main+0x66a>
    633e:	88 35       	cpi	r24, 0x58	; 88
    6340:	09 f0       	breq	.+2      	; 0x6344 <main+0x66a>
    6342:	42 c1       	rjmp	.+644    	; 0x65c8 <main+0x8ee>
    6344:	80 91 70 06 	lds	r24, 0x0670	; 0x800670 <bme>
    6348:	11 e0       	ldi	r17, 0x01	; 1
    634a:	10 93 45 03 	sts	0x0345, r17	; 0x800345 <_ZN7TwoWire12transmittingE>
    634e:	80 93 67 03 	sts	0x0367, r24	; 0x800367 <_ZN7TwoWire9txAddressE>
    6352:	10 92 46 03 	sts	0x0346, r1	; 0x800346 <_ZN7TwoWire13txBufferIndexE>
    6356:	10 92 68 03 	sts	0x0368, r1	; 0x800368 <_ZN7TwoWire14txBufferLengthE>
    635a:	68 e8       	ldi	r22, 0x88	; 136
    635c:	81 ef       	ldi	r24, 0xF1	; 241
    635e:	93 e0       	ldi	r25, 0x03	; 3
    6360:	0e 94 2a 08 	call	0x1054	; 0x1054 <_ZN7TwoWire5writeEh>
    6364:	0e 94 53 07 	call	0xea6	; 0xea6 <_ZN7TwoWire15endTransmissionEv.constprop.60>
    6368:	81 11       	cpse	r24, r1
    636a:	ff c0       	rjmp	.+510    	; 0x656a <main+0x890>
    636c:	69 e1       	ldi	r22, 0x19	; 25
    636e:	70 e0       	ldi	r23, 0x00	; 0
    6370:	80 91 70 06 	lds	r24, 0x0670	; 0x800670 <bme>
    6374:	90 91 71 06 	lds	r25, 0x0671	; 0x800671 <bme+0x1>
    6378:	0e 94 ef 1b 	call	0x37de	; 0x37de <_ZN7TwoWire11requestFromEii.constprop.63>
    637c:	0e 94 40 07 	call	0xe80	; 0xe80 <_ZN7TwoWire4readEv.constprop.62>
    6380:	7c 01       	movw	r14, r24
    6382:	0e 94 40 07 	call	0xe80	; 0xe80 <_ZN7TwoWire4readEv.constprop.62>
    6386:	20 e0       	ldi	r18, 0x00	; 0
    6388:	38 2f       	mov	r19, r24
    638a:	2e 29       	or	r18, r14
    638c:	3f 29       	or	r19, r15
    638e:	30 93 79 06 	sts	0x0679, r19	; 0x800679 <bme+0x9>
    6392:	20 93 78 06 	sts	0x0678, r18	; 0x800678 <bme+0x8>
    6396:	0e 94 40 07 	call	0xe80	; 0xe80 <_ZN7TwoWire4readEv.constprop.62>
    639a:	7c 01       	movw	r14, r24
    639c:	0e 94 40 07 	call	0xe80	; 0xe80 <_ZN7TwoWire4readEv.constprop.62>
    63a0:	20 e0       	ldi	r18, 0x00	; 0
    63a2:	38 2f       	mov	r19, r24
    63a4:	2e 29       	or	r18, r14
    63a6:	3f 29       	or	r19, r15
    63a8:	30 93 7b 06 	sts	0x067B, r19	; 0x80067b <bme+0xb>
    63ac:	20 93 7a 06 	sts	0x067A, r18	; 0x80067a <bme+0xa>
    63b0:	0e 94 40 07 	call	0xe80	; 0xe80 <_ZN7TwoWire4readEv.constprop.62>
    63b4:	7c 01       	movw	r14, r24
    63b6:	0e 94 40 07 	call	0xe80	; 0xe80 <_ZN7TwoWire4readEv.constprop.62>
    63ba:	20 e0       	ldi	r18, 0x00	; 0
    63bc:	38 2f       	mov	r19, r24
    63be:	2e 29       	or	r18, r14
    63c0:	3f 29       	or	r19, r15
    63c2:	30 93 7d 06 	sts	0x067D, r19	; 0x80067d <bme+0xd>
    63c6:	20 93 7c 06 	sts	0x067C, r18	; 0x80067c <bme+0xc>
    63ca:	0e 94 40 07 	call	0xe80	; 0xe80 <_ZN7TwoWire4readEv.constprop.62>
    63ce:	7c 01       	movw	r14, r24
    63d0:	0e 94 40 07 	call	0xe80	; 0xe80 <_ZN7TwoWire4readEv.constprop.62>
    63d4:	20 e0       	ldi	r18, 0x00	; 0
    63d6:	38 2f       	mov	r19, r24
    63d8:	2e 29       	or	r18, r14
    63da:	3f 29       	or	r19, r15
    63dc:	30 93 7f 06 	sts	0x067F, r19	; 0x80067f <bme+0xf>
    63e0:	20 93 7e 06 	sts	0x067E, r18	; 0x80067e <bme+0xe>
    63e4:	0e 94 40 07 	call	0xe80	; 0xe80 <_ZN7TwoWire4readEv.constprop.62>
    63e8:	7c 01       	movw	r14, r24
    63ea:	0e 94 40 07 	call	0xe80	; 0xe80 <_ZN7TwoWire4readEv.constprop.62>
    63ee:	20 e0       	ldi	r18, 0x00	; 0
    63f0:	38 2f       	mov	r19, r24
    63f2:	2e 29       	or	r18, r14
    63f4:	3f 29       	or	r19, r15
    63f6:	30 93 81 06 	sts	0x0681, r19	; 0x800681 <bme+0x11>
    63fa:	20 93 80 06 	sts	0x0680, r18	; 0x800680 <bme+0x10>
    63fe:	0e 94 40 07 	call	0xe80	; 0xe80 <_ZN7TwoWire4readEv.constprop.62>
    6402:	7c 01       	movw	r14, r24
    6404:	0e 94 40 07 	call	0xe80	; 0xe80 <_ZN7TwoWire4readEv.constprop.62>
    6408:	20 e0       	ldi	r18, 0x00	; 0
    640a:	38 2f       	mov	r19, r24
    640c:	2e 29       	or	r18, r14
    640e:	3f 29       	or	r19, r15
    6410:	30 93 83 06 	sts	0x0683, r19	; 0x800683 <bme+0x13>
    6414:	20 93 82 06 	sts	0x0682, r18	; 0x800682 <bme+0x12>
    6418:	0e 94 40 07 	call	0xe80	; 0xe80 <_ZN7TwoWire4readEv.constprop.62>
    641c:	7c 01       	movw	r14, r24
    641e:	0e 94 40 07 	call	0xe80	; 0xe80 <_ZN7TwoWire4readEv.constprop.62>
    6422:	20 e0       	ldi	r18, 0x00	; 0
    6424:	38 2f       	mov	r19, r24
    6426:	2e 29       	or	r18, r14
    6428:	3f 29       	or	r19, r15
    642a:	30 93 85 06 	sts	0x0685, r19	; 0x800685 <bme+0x15>
    642e:	20 93 84 06 	sts	0x0684, r18	; 0x800684 <bme+0x14>
    6432:	0e 94 40 07 	call	0xe80	; 0xe80 <_ZN7TwoWire4readEv.constprop.62>
    6436:	7c 01       	movw	r14, r24
    6438:	0e 94 40 07 	call	0xe80	; 0xe80 <_ZN7TwoWire4readEv.constprop.62>
    643c:	20 e0       	ldi	r18, 0x00	; 0
    643e:	38 2f       	mov	r19, r24
    6440:	2e 29       	or	r18, r14
    6442:	3f 29       	or	r19, r15
    6444:	30 93 87 06 	sts	0x0687, r19	; 0x800687 <bme+0x17>
    6448:	20 93 86 06 	sts	0x0686, r18	; 0x800686 <bme+0x16>
    644c:	0e 94 40 07 	call	0xe80	; 0xe80 <_ZN7TwoWire4readEv.constprop.62>
    6450:	7c 01       	movw	r14, r24
    6452:	0e 94 40 07 	call	0xe80	; 0xe80 <_ZN7TwoWire4readEv.constprop.62>
    6456:	20 e0       	ldi	r18, 0x00	; 0
    6458:	38 2f       	mov	r19, r24
    645a:	2e 29       	or	r18, r14
    645c:	3f 29       	or	r19, r15
    645e:	30 93 89 06 	sts	0x0689, r19	; 0x800689 <bme+0x19>
    6462:	20 93 88 06 	sts	0x0688, r18	; 0x800688 <bme+0x18>
    6466:	0e 94 40 07 	call	0xe80	; 0xe80 <_ZN7TwoWire4readEv.constprop.62>
    646a:	7c 01       	movw	r14, r24
    646c:	0e 94 40 07 	call	0xe80	; 0xe80 <_ZN7TwoWire4readEv.constprop.62>
    6470:	20 e0       	ldi	r18, 0x00	; 0
    6472:	38 2f       	mov	r19, r24
    6474:	2e 29       	or	r18, r14
    6476:	3f 29       	or	r19, r15
    6478:	30 93 8b 06 	sts	0x068B, r19	; 0x80068b <bme+0x1b>
    647c:	20 93 8a 06 	sts	0x068A, r18	; 0x80068a <bme+0x1a>
    6480:	0e 94 40 07 	call	0xe80	; 0xe80 <_ZN7TwoWire4readEv.constprop.62>
    6484:	7c 01       	movw	r14, r24
    6486:	0e 94 40 07 	call	0xe80	; 0xe80 <_ZN7TwoWire4readEv.constprop.62>
    648a:	20 e0       	ldi	r18, 0x00	; 0
    648c:	38 2f       	mov	r19, r24
    648e:	2e 29       	or	r18, r14
    6490:	3f 29       	or	r19, r15
    6492:	30 93 8d 06 	sts	0x068D, r19	; 0x80068d <bme+0x1d>
    6496:	20 93 8c 06 	sts	0x068C, r18	; 0x80068c <bme+0x1c>
    649a:	0e 94 40 07 	call	0xe80	; 0xe80 <_ZN7TwoWire4readEv.constprop.62>
    649e:	7c 01       	movw	r14, r24
    64a0:	0e 94 40 07 	call	0xe80	; 0xe80 <_ZN7TwoWire4readEv.constprop.62>
    64a4:	20 e0       	ldi	r18, 0x00	; 0
    64a6:	38 2f       	mov	r19, r24
    64a8:	2e 29       	or	r18, r14
    64aa:	3f 29       	or	r19, r15
    64ac:	30 93 8f 06 	sts	0x068F, r19	; 0x80068f <bme+0x1f>
    64b0:	20 93 8e 06 	sts	0x068E, r18	; 0x80068e <bme+0x1e>
    64b4:	0e 94 40 07 	call	0xe80	; 0xe80 <_ZN7TwoWire4readEv.constprop.62>
    64b8:	80 93 90 06 	sts	0x0690, r24	; 0x800690 <bme+0x20>
    64bc:	80 91 70 06 	lds	r24, 0x0670	; 0x800670 <bme>
    64c0:	10 93 45 03 	sts	0x0345, r17	; 0x800345 <_ZN7TwoWire12transmittingE>
    64c4:	80 93 67 03 	sts	0x0367, r24	; 0x800367 <_ZN7TwoWire9txAddressE>
    64c8:	10 92 46 03 	sts	0x0346, r1	; 0x800346 <_ZN7TwoWire13txBufferIndexE>
    64cc:	10 92 68 03 	sts	0x0368, r1	; 0x800368 <_ZN7TwoWire14txBufferLengthE>
    64d0:	61 ee       	ldi	r22, 0xE1	; 225
    64d2:	81 ef       	ldi	r24, 0xF1	; 241
    64d4:	93 e0       	ldi	r25, 0x03	; 3
    64d6:	0e 94 2a 08 	call	0x1054	; 0x1054 <_ZN7TwoWire5writeEh>
    64da:	0e 94 53 07 	call	0xea6	; 0xea6 <_ZN7TwoWire15endTransmissionEv.constprop.60>
    64de:	68 e0       	ldi	r22, 0x08	; 8
    64e0:	70 e0       	ldi	r23, 0x00	; 0
    64e2:	80 91 70 06 	lds	r24, 0x0670	; 0x800670 <bme>
    64e6:	90 91 71 06 	lds	r25, 0x0671	; 0x800671 <bme+0x1>
    64ea:	0e 94 ef 1b 	call	0x37de	; 0x37de <_ZN7TwoWire11requestFromEii.constprop.63>
    64ee:	0e 94 40 07 	call	0xe80	; 0xe80 <_ZN7TwoWire4readEv.constprop.62>
    64f2:	8c 01       	movw	r16, r24
    64f4:	0e 94 40 07 	call	0xe80	; 0xe80 <_ZN7TwoWire4readEv.constprop.62>
    64f8:	20 e0       	ldi	r18, 0x00	; 0
    64fa:	38 2f       	mov	r19, r24
    64fc:	20 2b       	or	r18, r16
    64fe:	31 2b       	or	r19, r17
    6500:	30 93 92 06 	sts	0x0692, r19	; 0x800692 <bme+0x22>
    6504:	20 93 91 06 	sts	0x0691, r18	; 0x800691 <bme+0x21>
    6508:	0e 94 40 07 	call	0xe80	; 0xe80 <_ZN7TwoWire4readEv.constprop.62>
    650c:	80 93 93 06 	sts	0x0693, r24	; 0x800693 <bme+0x23>
    6510:	0e 94 40 07 	call	0xe80	; 0xe80 <_ZN7TwoWire4readEv.constprop.62>
    6514:	24 e0       	ldi	r18, 0x04	; 4
    6516:	88 0f       	add	r24, r24
    6518:	99 1f       	adc	r25, r25
    651a:	2a 95       	dec	r18
    651c:	e1 f7       	brne	.-8      	; 0x6516 <main+0x83c>
    651e:	90 93 95 06 	sts	0x0695, r25	; 0x800695 <bme+0x25>
    6522:	80 93 94 06 	sts	0x0694, r24	; 0x800694 <bme+0x24>
    6526:	0e 94 40 07 	call	0xe80	; 0xe80 <_ZN7TwoWire4readEv.constprop.62>
    652a:	8c 01       	movw	r16, r24
    652c:	9c 01       	movw	r18, r24
    652e:	2f 70       	andi	r18, 0x0F	; 15
    6530:	33 27       	eor	r19, r19
    6532:	80 91 94 06 	lds	r24, 0x0694	; 0x800694 <bme+0x24>
    6536:	90 91 95 06 	lds	r25, 0x0695	; 0x800695 <bme+0x25>
    653a:	82 2b       	or	r24, r18
    653c:	93 2b       	or	r25, r19
    653e:	90 93 95 06 	sts	0x0695, r25	; 0x800695 <bme+0x25>
    6542:	80 93 94 06 	sts	0x0694, r24	; 0x800694 <bme+0x24>
    6546:	0e 94 40 07 	call	0xe80	; 0xe80 <_ZN7TwoWire4readEv.constprop.62>
    654a:	02 95       	swap	r16
    654c:	0f 70       	andi	r16, 0x0F	; 15
    654e:	34 e0       	ldi	r19, 0x04	; 4
    6550:	88 0f       	add	r24, r24
    6552:	99 1f       	adc	r25, r25
    6554:	3a 95       	dec	r19
    6556:	e1 f7       	brne	.-8      	; 0x6550 <main+0x876>
    6558:	80 2b       	or	r24, r16
    655a:	90 93 97 06 	sts	0x0697, r25	; 0x800697 <bme+0x27>
    655e:	80 93 96 06 	sts	0x0696, r24	; 0x800696 <bme+0x26>
    6562:	0e 94 40 07 	call	0xe80	; 0xe80 <_ZN7TwoWire4readEv.constprop.62>
    6566:	80 93 98 06 	sts	0x0698, r24	; 0x800698 <bme+0x28>
    656a:	60 91 76 06 	lds	r22, 0x0676	; 0x800676 <bme+0x6>
    656e:	82 ef       	ldi	r24, 0xF2	; 242
    6570:	0e 94 59 08 	call	0x10b2	; 0x10b2 <_ZN11GyverBME28013writeRegisterEhh.constprop.48>
    6574:	82 ef       	ldi	r24, 0xF2	; 242
    6576:	0e 94 e2 1c 	call	0x39c4	; 0x39c4 <_ZN11GyverBME28012readRegisterEh.constprop.46>
    657a:	68 2f       	mov	r22, r24
    657c:	82 ef       	ldi	r24, 0xF2	; 242
    657e:	0e 94 59 08 	call	0x10b2	; 0x10b2 <_ZN11GyverBME28013writeRegisterEhh.constprop.48>
    6582:	60 91 75 06 	lds	r22, 0x0675	; 0x800675 <bme+0x5>
    6586:	f0 e2       	ldi	r31, 0x20	; 32
    6588:	6f 9f       	mul	r22, r31
    658a:	b0 01       	movw	r22, r0
    658c:	11 24       	eor	r1, r1
    658e:	80 91 77 06 	lds	r24, 0x0677	; 0x800677 <bme+0x7>
    6592:	24 e0       	ldi	r18, 0x04	; 4
    6594:	82 9f       	mul	r24, r18
    6596:	c0 01       	movw	r24, r0
    6598:	11 24       	eor	r1, r1
    659a:	68 2b       	or	r22, r24
    659c:	80 91 72 06 	lds	r24, 0x0672	; 0x800672 <bme+0x2>
    65a0:	68 2b       	or	r22, r24
    65a2:	84 ef       	ldi	r24, 0xF4	; 244
    65a4:	0e 94 59 08 	call	0x10b2	; 0x10b2 <_ZN11GyverBME28013writeRegisterEhh.constprop.48>
    65a8:	60 91 73 06 	lds	r22, 0x0673	; 0x800673 <bme+0x3>
    65ac:	30 e2       	ldi	r19, 0x20	; 32
    65ae:	63 9f       	mul	r22, r19
    65b0:	b0 01       	movw	r22, r0
    65b2:	11 24       	eor	r1, r1
    65b4:	80 91 74 06 	lds	r24, 0x0674	; 0x800674 <bme+0x4>
    65b8:	44 e0       	ldi	r20, 0x04	; 4
    65ba:	84 9f       	mul	r24, r20
    65bc:	c0 01       	movw	r24, r0
    65be:	11 24       	eor	r1, r1
    65c0:	68 2b       	or	r22, r24
    65c2:	85 ef       	ldi	r24, 0xF5	; 245
    65c4:	0e 94 59 08 	call	0x10b2	; 0x10b2 <_ZN11GyverBME28013writeRegisterEhh.constprop.48>
    65c8:	81 e0       	ldi	r24, 0x01	; 1
    65ca:	90 e0       	ldi	r25, 0x00	; 0
    65cc:	90 93 a0 06 	sts	0x06A0, r25	; 0x8006a0 <subMenuM+0x3>
    65d0:	80 93 9f 06 	sts	0x069F, r24	; 0x80069f <subMenuM+0x2>
    65d4:	80 93 9e 06 	sts	0x069E, r24	; 0x80069e <subMenuM+0x1>
    65d8:	10 92 a3 06 	sts	0x06A3, r1	; 0x8006a3 <subMenuM+0x6>
    65dc:	10 92 c1 06 	sts	0x06C1, r1	; 0x8006c1 <subMenuM+0x24>
    65e0:	e5 ea       	ldi	r30, 0xA5	; 165
    65e2:	f6 e0       	ldi	r31, 0x06	; 6
    65e4:	89 e1       	ldi	r24, 0x19	; 25
    65e6:	df 01       	movw	r26, r30
    65e8:	1d 92       	st	X+, r1
    65ea:	8a 95       	dec	r24
    65ec:	e9 f7       	brne	.-6      	; 0x65e8 <main+0x90e>
    65ee:	1a e0       	ldi	r17, 0x0A	; 10
    65f0:	0e 94 6e 21 	call	0x42dc	; 0x42dc <_ZN6iDryer7getDataEv.constprop.51>
    65f4:	11 50       	subi	r17, 0x01	; 1
    65f6:	e1 f7       	brne	.-8      	; 0x65f0 <main+0x916>
    65f8:	0e 94 9a 19 	call	0x3334	; 0x3334 <_ZN5servo4testEv.constprop.109>
    65fc:	80 e8       	ldi	r24, 0x80	; 128
    65fe:	88 2e       	mov	r8, r24
    6600:	91 2c       	mov	r9, r1
    6602:	92 e0       	ldi	r25, 0x02	; 2
    6604:	29 2e       	mov	r2, r25
    6606:	31 2c       	mov	r3, r1
    6608:	14 e1       	ldi	r17, 0x14	; 20
    660a:	e1 2e       	mov	r14, r17
    660c:	ff 24       	eor	r15, r15
    660e:	f3 94       	inc	r15
    6610:	03 e0       	ldi	r16, 0x03	; 3
    6612:	c0 2e       	mov	r12, r16
    6614:	80 91 d9 05 	lds	r24, 0x05D9	; 0x8005d9 <enc+0x18>
    6618:	90 91 d2 05 	lds	r25, 0x05D2	; 0x8005d2 <enc+0x11>
    661c:	97 ff       	sbrs	r25, 7
    661e:	f2 c0       	rjmp	.+484    	; 0x6804 <main+0xb2a>
    6620:	0e 94 cd 18 	call	0x319a	; 0x319a <_Z6EBreadh>
    6624:	68 2f       	mov	r22, r24
    6626:	8f ef       	ldi	r24, 0xFF	; 255
    6628:	0e 94 88 0b 	call	0x1710	; 0x1710 <_ZN13VirtEncButton4tickEab.constprop.124>
    662c:	80 e0       	ldi	r24, 0x00	; 0
    662e:	0e 94 9e 0a 	call	0x153c	; 0x153c <analogRead>
    6632:	c3 97       	sbiw	r24, 0x33	; 51
    6634:	8d 3c       	cpi	r24, 0xCD	; 205
    6636:	93 40       	sbci	r25, 0x03	; 3
    6638:	80 f0       	brcs	.+32     	; 0x665a <main+0x980>
    663a:	80 91 01 01 	lds	r24, 0x0101	; 0x800101 <state>
    663e:	90 91 02 01 	lds	r25, 0x0102	; 0x800102 <state+0x1>
    6642:	03 97       	sbiw	r24, 0x03	; 3
    6644:	02 97       	sbiw	r24, 0x02	; 2
    6646:	48 f4       	brcc	.+18     	; 0x665a <main+0x980>
    6648:	8e e1       	ldi	r24, 0x1E	; 30
    664a:	0e 94 49 21 	call	0x4292	; 0x4292 <_Z8setErrorh>
    664e:	e6 e0       	ldi	r30, 0x06	; 6
    6650:	f0 e0       	ldi	r31, 0x00	; 0
    6652:	f0 93 02 01 	sts	0x0102, r31	; 0x800102 <state+0x1>
    6656:	e0 93 01 01 	sts	0x0101, r30	; 0x800101 <state>
    665a:	00 91 f0 02 	lds	r16, 0x02F0	; 0x8002f0 <sensorNum>
    665e:	dd 24       	eor	r13, r13
    6660:	d3 94       	inc	r13
    6662:	d0 0e       	add	r13, r16
    6664:	d0 92 f0 02 	sts	0x02F0, r13	; 0x8002f0 <sensorNum>
    6668:	a0 2e       	mov	r10, r16
    666a:	b1 2c       	mov	r11, r1
    666c:	0e 9d       	mul	r16, r14
    666e:	80 01       	movw	r16, r0
    6670:	11 24       	eor	r1, r1
    6672:	03 59       	subi	r16, 0x93	; 147
    6674:	1a 4f       	sbci	r17, 0xFA	; 250
    6676:	c8 01       	movw	r24, r16
    6678:	0e 94 18 1e 	call	0x3c30	; 0x3c30 <_ZN5HX7114readEv>
    667c:	d8 01       	movw	r26, r16
    667e:	16 96       	adiw	r26, 0x06	; 6
    6680:	4d 90       	ld	r4, X+
    6682:	5d 90       	ld	r5, X+
    6684:	6d 90       	ld	r6, X+
    6686:	7c 90       	ld	r7, X
    6688:	19 97       	sbiw	r26, 0x09	; 9
    668a:	64 19       	sub	r22, r4
    668c:	75 09       	sbc	r23, r5
    668e:	86 09       	sbc	r24, r6
    6690:	97 09       	sbc	r25, r7
    6692:	0e 94 18 3d 	call	0x7a30	; 0x7a30 <__floatsisf>
    6696:	6a a3       	std	Y+34, r22	; 0x22
    6698:	7b a3       	std	Y+35, r23	; 0x23
    669a:	8c a3       	std	Y+36, r24	; 0x24
    669c:	9d a3       	std	Y+37, r25	; 0x25
    669e:	f8 01       	movw	r30, r16
    66a0:	62 85       	ldd	r22, Z+10	; 0x0a
    66a2:	73 85       	ldd	r23, Z+11	; 0x0b
    66a4:	84 85       	ldd	r24, Z+12	; 0x0c
    66a6:	95 85       	ldd	r25, Z+13	; 0x0d
    66a8:	64 19       	sub	r22, r4
    66aa:	75 09       	sbc	r23, r5
    66ac:	86 09       	sbc	r24, r6
    66ae:	97 09       	sbc	r25, r7
    66b0:	0e 94 18 3d 	call	0x7a30	; 0x7a30 <__floatsisf>
    66b4:	9b 01       	movw	r18, r22
    66b6:	ac 01       	movw	r20, r24
    66b8:	6a a1       	ldd	r22, Y+34	; 0x22
    66ba:	7b a1       	ldd	r23, Y+35	; 0x23
    66bc:	8c a1       	ldd	r24, Y+36	; 0x24
    66be:	9d a1       	ldd	r25, Y+37	; 0x25
    66c0:	0e 94 6e 3c 	call	0x78dc	; 0x78dc <__divsf3>
    66c4:	20 e0       	ldi	r18, 0x00	; 0
    66c6:	30 e0       	ldi	r19, 0x00	; 0
    66c8:	4a e7       	ldi	r20, 0x7A	; 122
    66ca:	54 e4       	ldi	r21, 0x44	; 68
    66cc:	0e 94 cd 3d 	call	0x7b9a	; 0x7b9a <__mulsf3>
    66d0:	d8 01       	movw	r26, r16
    66d2:	50 96       	adiw	r26, 0x10	; 16
    66d4:	2d 91       	ld	r18, X+
    66d6:	3d 91       	ld	r19, X+
    66d8:	4d 91       	ld	r20, X+
    66da:	5c 91       	ld	r21, X
    66dc:	53 97       	sbiw	r26, 0x13	; 19
    66de:	0e 94 fd 3b 	call	0x77fa	; 0x77fa <__addsf3>
    66e2:	20 e0       	ldi	r18, 0x00	; 0
    66e4:	30 e0       	ldi	r19, 0x00	; 0
    66e6:	40 e0       	ldi	r20, 0x00	; 0
    66e8:	5f e3       	ldi	r21, 0x3F	; 63
    66ea:	0e 94 cd 3d 	call	0x7b9a	; 0x7b9a <__mulsf3>
    66ee:	2b 01       	movw	r4, r22
    66f0:	3c 01       	movw	r6, r24
    66f2:	20 e0       	ldi	r18, 0x00	; 0
    66f4:	30 e0       	ldi	r19, 0x00	; 0
    66f6:	a9 01       	movw	r20, r18
    66f8:	0e 94 c8 3d 	call	0x7b90	; 0x7b90 <__gesf2>
    66fc:	18 16       	cp	r1, r24
    66fe:	0c f4       	brge	.+2      	; 0x6702 <main+0xa28>
    6700:	88 c0       	rjmp	.+272    	; 0x6812 <main+0xb38>
    6702:	c3 01       	movw	r24, r6
    6704:	b2 01       	movw	r22, r4
    6706:	90 58       	subi	r25, 0x80	; 128
    6708:	20 e0       	ldi	r18, 0x00	; 0
    670a:	30 e0       	ldi	r19, 0x00	; 0
    670c:	40 e8       	ldi	r20, 0x80	; 128
    670e:	5f e3       	ldi	r21, 0x3F	; 63
    6710:	0e 94 69 3c 	call	0x78d2	; 0x78d2 <__cmpsf2>
    6714:	87 fd       	sbrc	r24, 7
    6716:	80 c0       	rjmp	.+256    	; 0x6818 <main+0xb3e>
    6718:	a3 01       	movw	r20, r6
    671a:	92 01       	movw	r18, r4
    671c:	c3 01       	movw	r24, r6
    671e:	b2 01       	movw	r22, r4
    6720:	0e 94 fd 3b 	call	0x77fa	; 0x77fa <__addsf3>
    6724:	20 e0       	ldi	r18, 0x00	; 0
    6726:	30 e0       	ldi	r19, 0x00	; 0
    6728:	40 e0       	ldi	r20, 0x00	; 0
    672a:	5f e3       	ldi	r21, 0x3F	; 63
    672c:	0e 94 fd 3b 	call	0x77fa	; 0x77fa <__addsf3>
    6730:	20 e0       	ldi	r18, 0x00	; 0
    6732:	30 e0       	ldi	r19, 0x00	; 0
    6734:	40 e0       	ldi	r20, 0x00	; 0
    6736:	5f e3       	ldi	r21, 0x3F	; 63
    6738:	0e 94 cd 3d 	call	0x7b9a	; 0x7b9a <__mulsf3>
    673c:	2b 01       	movw	r4, r22
    673e:	3c 01       	movw	r6, r24
    6740:	ea 9c       	mul	r14, r10
    6742:	f0 01       	movw	r30, r0
    6744:	eb 9c       	mul	r14, r11
    6746:	f0 0d       	add	r31, r0
    6748:	11 24       	eor	r1, r1
    674a:	e3 59       	subi	r30, 0x93	; 147
    674c:	fa 4f       	sbci	r31, 0xFA	; 250
    674e:	66 85       	ldd	r22, Z+14	; 0x0e
    6750:	77 85       	ldd	r23, Z+15	; 0x0f
    6752:	90 e0       	ldi	r25, 0x00	; 0
    6754:	80 e0       	ldi	r24, 0x00	; 0
    6756:	0e 94 16 3d 	call	0x7a2c	; 0x7a2c <__floatunsisf>
    675a:	9b 01       	movw	r18, r22
    675c:	ac 01       	movw	r20, r24
    675e:	c3 01       	movw	r24, r6
    6760:	b2 01       	movw	r22, r4
    6762:	0e 94 fc 3b 	call	0x77f8	; 0x77f8 <__subsf3>
    6766:	ea 9c       	mul	r14, r10
    6768:	f0 01       	movw	r30, r0
    676a:	eb 9c       	mul	r14, r11
    676c:	f0 0d       	add	r31, r0
    676e:	11 24       	eor	r1, r1
    6770:	e3 59       	subi	r30, 0x93	; 147
    6772:	fa 4f       	sbci	r31, 0xFA	; 250
    6774:	60 8b       	std	Z+16, r22	; 0x10
    6776:	71 8b       	std	Z+17, r23	; 0x11
    6778:	82 8b       	std	Z+18, r24	; 0x12
    677a:	93 8b       	std	Z+19, r25	; 0x13
    677c:	b3 e0       	ldi	r27, 0x03	; 3
    677e:	bd 15       	cp	r27, r13
    6780:	10 f4       	brcc	.+4      	; 0x6786 <main+0xaac>
    6782:	10 92 f0 02 	sts	0x02F0, r1	; 0x8002f0 <sensorNum>
    6786:	80 91 cc 05 	lds	r24, 0x05CC	; 0x8005cc <enc+0xb>
    678a:	82 ff       	sbrs	r24, 2
    678c:	22 c0       	rjmp	.+68     	; 0x67d2 <main+0xaf8>
    678e:	80 91 01 01 	lds	r24, 0x0101	; 0x800101 <state>
    6792:	90 91 02 01 	lds	r25, 0x0102	; 0x800102 <state+0x1>
    6796:	03 97       	sbiw	r24, 0x03	; 3
    6798:	02 97       	sbiw	r24, 0x02	; 2
    679a:	d8 f4       	brcc	.+54     	; 0x67d2 <main+0xaf8>
    679c:	0e 94 fd 18 	call	0x31fa	; 0x31fa <_Z11WDT_DISABLEv>
    67a0:	30 92 02 01 	sts	0x0102, r3	; 0x800102 <state+0x1>
    67a4:	20 92 01 01 	sts	0x0101, r2	; 0x800101 <state>
    67a8:	0e 94 41 1a 	call	0x3482	; 0x3482 <_Z9heaterOFFv>
    67ac:	84 ef       	ldi	r24, 0xF4	; 244
    67ae:	91 e0       	ldi	r25, 0x01	; 1
    67b0:	0e 94 66 1a 	call	0x34cc	; 0x34cc <_Z4piiij>
    67b4:	30 92 a0 06 	sts	0x06A0, r3	; 0x8006a0 <subMenuM+0x3>
    67b8:	20 92 9f 06 	sts	0x069F, r2	; 0x80069f <subMenuM+0x2>
    67bc:	10 92 a3 06 	sts	0x06A3, r1	; 0x8006a3 <subMenuM+0x6>
    67c0:	10 92 c2 06 	sts	0x06C2, r1	; 0x8006c2 <subMenuM+0x25>
    67c4:	f0 92 9e 06 	sts	0x069E, r15	; 0x80069e <subMenuM+0x1>
    67c8:	81 e1       	ldi	r24, 0x11	; 17
    67ca:	0e 94 81 09 	call	0x1302	; 0x1302 <digitalRead>
    67ce:	89 2b       	or	r24, r25
    67d0:	d9 f7       	brne	.-10     	; 0x67c8 <main+0xaee>
    67d2:	80 91 01 01 	lds	r24, 0x0101	; 0x800101 <state>
    67d6:	90 91 02 01 	lds	r25, 0x0102	; 0x800102 <state+0x1>
    67da:	83 30       	cpi	r24, 0x03	; 3
    67dc:	91 05       	cpc	r25, r1
    67de:	09 f4       	brne	.+2      	; 0x67e2 <main+0xb08>
    67e0:	2e c3       	rjmp	.+1628   	; 0x6e3e <main+0x1164>
    67e2:	f0 f4       	brcc	.+60     	; 0x6820 <main+0xb46>
    67e4:	02 97       	sbiw	r24, 0x02	; 2
    67e6:	09 f4       	brne	.+2      	; 0x67ea <main+0xb10>
    67e8:	d4 c0       	rjmp	.+424    	; 0x6992 <main+0xcb8>
    67ea:	80 e0       	ldi	r24, 0x00	; 0
    67ec:	90 e0       	ldi	r25, 0x00	; 0
    67ee:	89 2b       	or	r24, r25
    67f0:	09 f4       	brne	.+2      	; 0x67f4 <main+0xb1a>
    67f2:	10 cf       	rjmp	.-480    	; 0x6614 <main+0x93a>
    67f4:	0e 94 44 09 	call	0x1288	; 0x1288 <_Z17Serial0_availablev>
    67f8:	88 23       	and	r24, r24
    67fa:	09 f4       	brne	.+2      	; 0x67fe <main+0xb24>
    67fc:	05 cf       	rjmp	.-502    	; 0x6608 <main+0x92e>
    67fe:	0e 94 00 00 	call	0	; 0x0 <__vectors>
    6802:	02 cf       	rjmp	.-508    	; 0x6608 <main+0x92e>
    6804:	0e 94 cd 18 	call	0x319a	; 0x319a <_Z6EBreadh>
    6808:	18 2f       	mov	r17, r24
    680a:	0e 94 ea 18 	call	0x31d4	; 0x31d4 <_ZN9EncButton7readEncEv.constprop.118>
    680e:	61 2f       	mov	r22, r17
    6810:	0b cf       	rjmp	.-490    	; 0x6628 <main+0x94e>
    6812:	c3 01       	movw	r24, r6
    6814:	b2 01       	movw	r22, r4
    6816:	78 cf       	rjmp	.-272    	; 0x6708 <main+0xa2e>
    6818:	60 e0       	ldi	r22, 0x00	; 0
    681a:	70 e0       	ldi	r23, 0x00	; 0
    681c:	cb 01       	movw	r24, r22
    681e:	a3 cf       	rjmp	.-186    	; 0x6766 <main+0xa8c>
    6820:	84 30       	cpi	r24, 0x04	; 4
    6822:	91 05       	cpc	r25, r1
    6824:	09 f4       	brne	.+2      	; 0x6828 <main+0xb4e>
    6826:	92 c3       	rjmp	.+1828   	; 0x6f4c <main+0x1272>
    6828:	06 97       	sbiw	r24, 0x06	; 6
    682a:	f9 f6       	brne	.-66     	; 0x67ea <main+0xb10>
    682c:	8f ef       	ldi	r24, 0xFF	; 255
    682e:	90 e0       	ldi	r25, 0x00	; 0
    6830:	0e 94 46 0a 	call	0x148c	; 0x148c <analogWrite.constprop.33>
    6834:	0e 94 41 1a 	call	0x3482	; 0x3482 <_Z9heaterOFFv>
    6838:	10 92 6d 06 	sts	0x066D, r1	; 0x80066d <oled+0x93>
    683c:	10 92 6c 06 	sts	0x066C, r1	; 0x80066c <oled+0x92>
    6840:	10 92 6f 06 	sts	0x066F, r1	; 0x80066f <oled+0x95>
    6844:	10 92 6e 06 	sts	0x066E, r1	; 0x80066e <oled+0x94>
    6848:	10 92 f6 05 	sts	0x05F6, r1	; 0x8005f6 <oled+0x1c>
    684c:	0e 94 36 1f 	call	0x3e6c	; 0x3e6c <u8g2_ClearDisplay.constprop.149>
    6850:	8e ed       	ldi	r24, 0xDE	; 222
    6852:	95 e0       	ldi	r25, 0x05	; 5
    6854:	0e 94 e5 1e 	call	0x3dca	; 0x3dca <u8g2_ClearBuffer>
    6858:	8e ed       	ldi	r24, 0xDE	; 222
    685a:	95 e0       	ldi	r25, 0x05	; 5
    685c:	0e 94 24 1f 	call	0x3e48	; 0x3e48 <u8g2_FirstPage>
    6860:	0e 94 f1 13 	call	0x27e2	; 0x27e2 <u8g2_SetFont.constprop.87>
    6864:	84 e2       	ldi	r24, 0x24	; 36
    6866:	94 e0       	ldi	r25, 0x04	; 4
    6868:	0e 94 86 1a 	call	0x350c	; 0x350c <_Z13printMenuItemPKPKc>
    686c:	8c 01       	movw	r16, r24
    686e:	84 e2       	ldi	r24, 0x24	; 36
    6870:	94 e0       	ldi	r25, 0x04	; 4
    6872:	0e 94 86 1a 	call	0x350c	; 0x350c <_Z13printMenuItemPKPKc>
    6876:	0e 94 84 15 	call	0x2b08	; 0x2b08 <u8g2_GetUTF8Width.constprop.95>
    687a:	f4 01       	movw	r30, r8
    687c:	e8 1b       	sub	r30, r24
    687e:	f9 0b       	sbc	r31, r25
    6880:	cf 01       	movw	r24, r30
    6882:	a8 01       	movw	r20, r16
    6884:	60 e1       	ldi	r22, 0x10	; 16
    6886:	70 e0       	ldi	r23, 0x00	; 0
    6888:	96 95       	lsr	r25
    688a:	87 95       	ror	r24
    688c:	0e 94 8f 17 	call	0x2f1e	; 0x2f1e <_ZN4U8G28drawUTF8EjjPKc.constprop.146>
    6890:	86 e2       	ldi	r24, 0x26	; 38
    6892:	94 e0       	ldi	r25, 0x04	; 4
    6894:	0e 94 86 1a 	call	0x350c	; 0x350c <_Z13printMenuItemPKPKc>
    6898:	8c 01       	movw	r16, r24
    689a:	86 e2       	ldi	r24, 0x26	; 38
    689c:	94 e0       	ldi	r25, 0x04	; 4
    689e:	0e 94 86 1a 	call	0x350c	; 0x350c <_Z13printMenuItemPKPKc>
    68a2:	0e 94 84 15 	call	0x2b08	; 0x2b08 <u8g2_GetUTF8Width.constprop.95>
    68a6:	94 01       	movw	r18, r8
    68a8:	28 1b       	sub	r18, r24
    68aa:	39 0b       	sbc	r19, r25
    68ac:	c9 01       	movw	r24, r18
    68ae:	a8 01       	movw	r20, r16
    68b0:	60 e2       	ldi	r22, 0x20	; 32
    68b2:	70 e0       	ldi	r23, 0x00	; 0
    68b4:	96 95       	lsr	r25
    68b6:	87 95       	ror	r24
    68b8:	0e 94 8f 17 	call	0x2f1e	; 0x2f1e <_ZN4U8G28drawUTF8EjjPKc.constprop.146>
    68bc:	88 e2       	ldi	r24, 0x28	; 40
    68be:	94 e0       	ldi	r25, 0x04	; 4
    68c0:	0e 94 86 1a 	call	0x350c	; 0x350c <_Z13printMenuItemPKPKc>
    68c4:	8c 01       	movw	r16, r24
    68c6:	88 e2       	ldi	r24, 0x28	; 40
    68c8:	94 e0       	ldi	r25, 0x04	; 4
    68ca:	0e 94 86 1a 	call	0x350c	; 0x350c <_Z13printMenuItemPKPKc>
    68ce:	0e 94 84 15 	call	0x2b08	; 0x2b08 <u8g2_GetUTF8Width.constprop.95>
    68d2:	d4 01       	movw	r26, r8
    68d4:	a8 1b       	sub	r26, r24
    68d6:	b9 0b       	sbc	r27, r25
    68d8:	cd 01       	movw	r24, r26
    68da:	a8 01       	movw	r20, r16
    68dc:	60 e3       	ldi	r22, 0x30	; 48
    68de:	70 e0       	ldi	r23, 0x00	; 0
    68e0:	96 95       	lsr	r25
    68e2:	87 95       	ror	r24
    68e4:	0e 94 8f 17 	call	0x2f1e	; 0x2f1e <_ZN4U8G28drawUTF8EjjPKc.constprop.146>
    68e8:	8a e2       	ldi	r24, 0x2A	; 42
    68ea:	94 e0       	ldi	r25, 0x04	; 4
    68ec:	0e 94 86 1a 	call	0x350c	; 0x350c <_Z13printMenuItemPKPKc>
    68f0:	8c 01       	movw	r16, r24
    68f2:	8a e2       	ldi	r24, 0x2A	; 42
    68f4:	94 e0       	ldi	r25, 0x04	; 4
    68f6:	0e 94 86 1a 	call	0x350c	; 0x350c <_Z13printMenuItemPKPKc>
    68fa:	0e 94 84 15 	call	0x2b08	; 0x2b08 <u8g2_GetUTF8Width.constprop.95>
    68fe:	f4 01       	movw	r30, r8
    6900:	e8 1b       	sub	r30, r24
    6902:	f9 0b       	sbc	r31, r25
    6904:	cf 01       	movw	r24, r30
    6906:	a8 01       	movw	r20, r16
    6908:	60 e4       	ldi	r22, 0x40	; 64
    690a:	70 e0       	ldi	r23, 0x00	; 0
    690c:	96 95       	lsr	r25
    690e:	87 95       	ror	r24
    6910:	0e 94 8f 17 	call	0x2f1e	; 0x2f1e <_ZN4U8G28drawUTF8EjjPKc.constprop.146>
    6914:	30 e0       	ldi	r19, 0x00	; 0
    6916:	20 e0       	ldi	r18, 0x00	; 0
    6918:	50 e0       	ldi	r21, 0x00	; 0
    691a:	40 e0       	ldi	r20, 0x00	; 0
    691c:	60 e1       	ldi	r22, 0x10	; 16
    691e:	70 e0       	ldi	r23, 0x00	; 0
    6920:	90 e0       	ldi	r25, 0x00	; 0
    6922:	80 e0       	ldi	r24, 0x00	; 0
    6924:	0e 94 0d 17 	call	0x2e1a	; 0x2e1a <u8g2_DrawButtonUTF8.constprop.94>
    6928:	30 e0       	ldi	r19, 0x00	; 0
    692a:	20 e0       	ldi	r18, 0x00	; 0
    692c:	50 e0       	ldi	r21, 0x00	; 0
    692e:	40 e0       	ldi	r20, 0x00	; 0
    6930:	60 e2       	ldi	r22, 0x20	; 32
    6932:	70 e0       	ldi	r23, 0x00	; 0
    6934:	90 e0       	ldi	r25, 0x00	; 0
    6936:	80 e0       	ldi	r24, 0x00	; 0
    6938:	0e 94 0d 17 	call	0x2e1a	; 0x2e1a <u8g2_DrawButtonUTF8.constprop.94>
    693c:	30 e0       	ldi	r19, 0x00	; 0
    693e:	20 e0       	ldi	r18, 0x00	; 0
    6940:	50 e0       	ldi	r21, 0x00	; 0
    6942:	40 e0       	ldi	r20, 0x00	; 0
    6944:	60 e3       	ldi	r22, 0x30	; 48
    6946:	70 e0       	ldi	r23, 0x00	; 0
    6948:	90 e0       	ldi	r25, 0x00	; 0
    694a:	80 e0       	ldi	r24, 0x00	; 0
    694c:	0e 94 0d 17 	call	0x2e1a	; 0x2e1a <u8g2_DrawButtonUTF8.constprop.94>
    6950:	30 e0       	ldi	r19, 0x00	; 0
    6952:	20 e0       	ldi	r18, 0x00	; 0
    6954:	50 e0       	ldi	r21, 0x00	; 0
    6956:	40 e0       	ldi	r20, 0x00	; 0
    6958:	60 e4       	ldi	r22, 0x40	; 64
    695a:	70 e0       	ldi	r23, 0x00	; 0
    695c:	90 e0       	ldi	r25, 0x00	; 0
    695e:	80 e0       	ldi	r24, 0x00	; 0
    6960:	0e 94 0d 17 	call	0x2e1a	; 0x2e1a <u8g2_DrawButtonUTF8.constprop.94>
    6964:	8e ed       	ldi	r24, 0xDE	; 222
    6966:	95 e0       	ldi	r25, 0x05	; 5
    6968:	0e 94 fa 1e 	call	0x3df4	; 0x3df4 <u8g2_NextPage>
    696c:	81 11       	cpse	r24, r1
    696e:	78 cf       	rjmp	.-272    	; 0x6860 <main+0xb86>
    6970:	81 e1       	ldi	r24, 0x11	; 17
    6972:	0e 94 81 09 	call	0x1302	; 0x1302 <digitalRead>
    6976:	89 2b       	or	r24, r25
    6978:	09 f4       	brne	.+2      	; 0x697c <main+0xca2>
    697a:	37 cf       	rjmp	.-402    	; 0x67ea <main+0xb10>
    697c:	8a ef       	ldi	r24, 0xFA	; 250
    697e:	90 e0       	ldi	r25, 0x00	; 0
    6980:	0e 94 66 1a 	call	0x34cc	; 0x34cc <_Z4piiij>
    6984:	6a ef       	ldi	r22, 0xFA	; 250
    6986:	70 e0       	ldi	r23, 0x00	; 0
    6988:	80 e0       	ldi	r24, 0x00	; 0
    698a:	90 e0       	ldi	r25, 0x00	; 0
    698c:	0e 94 e3 0a 	call	0x15c6	; 0x15c6 <delay>
    6990:	ef cf       	rjmp	.-34     	; 0x6970 <main+0xc96>
    6992:	66 e1       	ldi	r22, 0x16	; 22
    6994:	89 e0       	ldi	r24, 0x09	; 9
    6996:	90 e0       	ldi	r25, 0x00	; 0
    6998:	0e 94 0a 19 	call	0x3214	; 0x3214 <_Z3WDTjh>
    699c:	0e 94 6e 21 	call	0x42dc	; 0x42dc <_ZN6iDryer7getDataEv.constprop.51>
    69a0:	88 23       	and	r24, r24
    69a2:	a9 f0       	breq	.+42     	; 0x69ce <main+0xcf4>
    69a4:	20 e0       	ldi	r18, 0x00	; 0
    69a6:	30 e0       	ldi	r19, 0x00	; 0
    69a8:	40 e2       	ldi	r20, 0x20	; 32
    69aa:	52 e4       	ldi	r21, 0x42	; 66
    69ac:	60 91 9a 03 	lds	r22, 0x039A	; 0x80039a <iDryer>
    69b0:	70 91 9b 03 	lds	r23, 0x039B	; 0x80039b <iDryer+0x1>
    69b4:	80 91 9c 03 	lds	r24, 0x039C	; 0x80039c <iDryer+0x2>
    69b8:	90 91 9d 03 	lds	r25, 0x039D	; 0x80039d <iDryer+0x3>
    69bc:	0e 94 c8 3d 	call	0x7b90	; 0x7b90 <__gesf2>
    69c0:	18 16       	cp	r1, r24
    69c2:	0c f0       	brlt	.+2      	; 0x69c6 <main+0xcec>
    69c4:	de c0       	rjmp	.+444    	; 0x6b82 <main+0xea8>
    69c6:	8f ef       	ldi	r24, 0xFF	; 255
    69c8:	90 e0       	ldi	r25, 0x00	; 0
    69ca:	0e 94 46 0a 	call	0x148c	; 0x148c <analogWrite.constprop.33>
    69ce:	80 91 f0 02 	lds	r24, 0x02F0	; 0x8002f0 <sensorNum>
    69d2:	08 2f       	mov	r16, r24
    69d4:	10 e0       	ldi	r17, 0x00	; 0
    69d6:	8c 9d       	mul	r24, r12
    69d8:	c0 01       	movw	r24, r0
    69da:	11 24       	eor	r1, r1
    69dc:	88 0f       	add	r24, r24
    69de:	99 1f       	adc	r25, r25
    69e0:	82 55       	subi	r24, 0x52	; 82
    69e2:	9e 4f       	sbci	r25, 0xFE	; 254
    69e4:	0e 94 18 3b 	call	0x7630	; 0x7630 <eeprom_read_word>
    69e8:	e0 9e       	mul	r14, r16
    69ea:	f0 01       	movw	r30, r0
    69ec:	e1 9e       	mul	r14, r17
    69ee:	f0 0d       	add	r31, r0
    69f0:	11 24       	eor	r1, r1
    69f2:	e3 59       	subi	r30, 0x93	; 147
    69f4:	fa 4f       	sbci	r31, 0xFA	; 250
    69f6:	26 85       	ldd	r18, Z+14	; 0x0e
    69f8:	37 85       	ldd	r19, Z+15	; 0x0f
    69fa:	28 17       	cp	r18, r24
    69fc:	39 07       	cpc	r19, r25
    69fe:	19 f0       	breq	.+6      	; 0x6a06 <main+0xd2c>
    6a00:	99 27       	eor	r25, r25
    6a02:	97 87       	std	Z+15, r25	; 0x0f
    6a04:	86 87       	std	Z+14, r24	; 0x0e
    6a06:	80 91 ef 02 	lds	r24, 0x02EF	; 0x8002ef <flagISR>
    6a0a:	81 11       	cpse	r24, r1
    6a0c:	10 92 ef 02 	sts	0x02EF, r1	; 0x8002ef <flagISR>
    6a10:	67 e0       	ldi	r22, 0x07	; 7
    6a12:	84 e0       	ldi	r24, 0x04	; 4
    6a14:	90 e0       	ldi	r25, 0x00	; 0
    6a16:	0e 94 0a 19 	call	0x3214	; 0x3214 <_Z3WDTjh>
    6a1a:	80 91 cc 05 	lds	r24, 0x05CC	; 0x8005cc <enc+0xb>
    6a1e:	90 91 cd 05 	lds	r25, 0x05CD	; 0x8005cd <enc+0xc>
    6a22:	80 75       	andi	r24, 0x50	; 80
    6a24:	91 70       	andi	r25, 0x01	; 1
    6a26:	40 97       	sbiw	r24, 0x10	; 16
    6a28:	09 f0       	breq	.+2      	; 0x6a2c <main+0xd52>
    6a2a:	46 c0       	rjmp	.+140    	; 0x6ab8 <main+0xdde>
    6a2c:	f0 92 9e 06 	sts	0x069E, r15	; 0x80069e <subMenuM+0x1>
    6a30:	e0 91 c1 06 	lds	r30, 0x06C1	; 0x8006c1 <subMenuM+0x24>
    6a34:	0e 2e       	mov	r0, r30
    6a36:	00 0c       	add	r0, r0
    6a38:	ff 0b       	sbc	r31, r31
    6a3a:	e3 56       	subi	r30, 0x63	; 99
    6a3c:	f9 4f       	sbci	r31, 0xF9	; 249
    6a3e:	60 85       	ldd	r22, Z+8	; 0x08
    6a40:	f6 e0       	ldi	r31, 0x06	; 6
    6a42:	6f 9f       	mul	r22, r31
    6a44:	b0 01       	movw	r22, r0
    6a46:	11 24       	eor	r1, r1
    6a48:	6c 5f       	subi	r22, 0xFC	; 252
    6a4a:	7f 4f       	sbci	r23, 0xFF	; 255
    6a4c:	46 e0       	ldi	r20, 0x06	; 6
    6a4e:	50 e0       	ldi	r21, 0x00	; 0
    6a50:	84 e9       	ldi	r24, 0x94	; 148
    6a52:	93 e0       	ldi	r25, 0x03	; 3
    6a54:	0e 94 02 3b 	call	0x7604	; 0x7604 <eeprom_read_block>
    6a58:	20 91 96 03 	lds	r18, 0x0396	; 0x800396 <menu+0x2>
    6a5c:	30 91 97 03 	lds	r19, 0x0397	; 0x800397 <menu+0x3>
    6a60:	80 91 c1 06 	lds	r24, 0x06C1	; 0x8006c1 <subMenuM+0x24>
    6a64:	23 2b       	or	r18, r19
    6a66:	09 f0       	breq	.+2      	; 0x6a6a <main+0xd90>
    6a68:	8f c0       	rjmp	.+286    	; 0x6b88 <main+0xeae>
    6a6a:	20 91 98 03 	lds	r18, 0x0398	; 0x800398 <menu+0x4>
    6a6e:	30 91 99 03 	lds	r19, 0x0399	; 0x800399 <menu+0x5>
    6a72:	23 2b       	or	r18, r19
    6a74:	09 f0       	breq	.+2      	; 0x6a78 <main+0xd9e>
    6a76:	88 c0       	rjmp	.+272    	; 0x6b88 <main+0xeae>
    6a78:	e8 2f       	mov	r30, r24
    6a7a:	08 2e       	mov	r0, r24
    6a7c:	00 0c       	add	r0, r0
    6a7e:	ff 0b       	sbc	r31, r31
    6a80:	e3 56       	subi	r30, 0x63	; 99
    6a82:	f9 4f       	sbci	r31, 0xF9	; 249
    6a84:	e0 85       	ldd	r30, Z+8	; 0x08
    6a86:	f0 e0       	ldi	r31, 0x00	; 0
    6a88:	ee 0f       	add	r30, r30
    6a8a:	ff 1f       	adc	r31, r31
    6a8c:	ea 58       	subi	r30, 0x8A	; 138
    6a8e:	fe 4f       	sbci	r31, 0xFE	; 254
    6a90:	20 81       	ld	r18, Z
    6a92:	31 81       	ldd	r19, Z+1	; 0x01
    6a94:	23 2b       	or	r18, r19
    6a96:	09 f0       	breq	.+2      	; 0x6a9a <main+0xdc0>
    6a98:	77 c0       	rjmp	.+238    	; 0x6b88 <main+0xeae>
    6a9a:	80 91 a1 06 	lds	r24, 0x06A1	; 0x8006a1 <subMenuM+0x4>
    6a9e:	90 91 a2 06 	lds	r25, 0x06A2	; 0x8006a2 <subMenuM+0x5>
    6aa2:	89 17       	cp	r24, r25
    6aa4:	18 f4       	brcc	.+6      	; 0x6aac <main+0xdd2>
    6aa6:	8f 5f       	subi	r24, 0xFF	; 255
    6aa8:	80 93 a1 06 	sts	0x06A1, r24	; 0x8006a1 <subMenuM+0x4>
    6aac:	21 e0       	ldi	r18, 0x01	; 1
    6aae:	30 e0       	ldi	r19, 0x00	; 0
    6ab0:	30 93 a0 06 	sts	0x06A0, r19	; 0x8006a0 <subMenuM+0x3>
    6ab4:	20 93 9f 06 	sts	0x069F, r18	; 0x80069f <subMenuM+0x2>
    6ab8:	40 91 cc 05 	lds	r20, 0x05CC	; 0x8005cc <enc+0xb>
    6abc:	50 91 cd 05 	lds	r21, 0x05CD	; 0x8005cd <enc+0xc>
    6ac0:	42 ff       	sbrs	r20, 2
    6ac2:	08 c0       	rjmp	.+16     	; 0x6ad4 <main+0xdfa>
    6ac4:	80 91 9d 06 	lds	r24, 0x069D	; 0x80069d <subMenuM>
    6ac8:	88 23       	and	r24, r24
    6aca:	09 f4       	brne	.+2      	; 0x6ace <main+0xdf4>
    6acc:	75 c0       	rjmp	.+234    	; 0x6bb8 <main+0xede>
    6ace:	81 30       	cpi	r24, 0x01	; 1
    6ad0:	09 f4       	brne	.+2      	; 0x6ad4 <main+0xdfa>
    6ad2:	84 c0       	rjmp	.+264    	; 0x6bdc <main+0xf02>
    6ad4:	80 91 d2 05 	lds	r24, 0x05D2	; 0x8005d2 <enc+0x11>
    6ad8:	98 2f       	mov	r25, r24
    6ada:	90 73       	andi	r25, 0x30	; 48
    6adc:	90 33       	cpi	r25, 0x30	; 48
    6ade:	b1 f4       	brne	.+44     	; 0x6b0c <main+0xe32>
    6ae0:	57 fd       	sbrc	r21, 7
    6ae2:	14 c0       	rjmp	.+40     	; 0x6b0c <main+0xe32>
    6ae4:	dd 24       	eor	r13, r13
    6ae6:	d3 94       	inc	r13
    6ae8:	83 ff       	sbrs	r24, 3
    6aea:	02 c0       	rjmp	.+4      	; 0x6af0 <main+0xe16>
    6aec:	3a e0       	ldi	r19, 0x0A	; 10
    6aee:	d3 2e       	mov	r13, r19
    6af0:	80 91 9d 06 	lds	r24, 0x069D	; 0x80069d <subMenuM>
    6af4:	81 11       	cpse	r24, r1
    6af6:	79 c0       	rjmp	.+242    	; 0x6bea <main+0xf10>
    6af8:	80 91 c1 06 	lds	r24, 0x06C1	; 0x8006c1 <subMenuM+0x24>
    6afc:	90 91 c4 06 	lds	r25, 0x06C4	; 0x8006c4 <subMenuM+0x27>
    6b00:	89 13       	cpse	r24, r25
    6b02:	6f c0       	rjmp	.+222    	; 0x6be2 <main+0xf08>
    6b04:	10 92 c1 06 	sts	0x06C1, r1	; 0x8006c1 <subMenuM+0x24>
    6b08:	f0 92 9e 06 	sts	0x069E, r15	; 0x80069e <subMenuM+0x1>
    6b0c:	80 91 d2 05 	lds	r24, 0x05D2	; 0x8005d2 <enc+0x11>
    6b10:	84 fd       	sbrc	r24, 4
    6b12:	1e c0       	rjmp	.+60     	; 0x6b50 <main+0xe76>
    6b14:	85 ff       	sbrs	r24, 5
    6b16:	1c c0       	rjmp	.+56     	; 0x6b50 <main+0xe76>
    6b18:	20 91 cc 05 	lds	r18, 0x05CC	; 0x8005cc <enc+0xb>
    6b1c:	30 91 cd 05 	lds	r19, 0x05CD	; 0x8005cd <enc+0xc>
    6b20:	37 fd       	sbrc	r19, 7
    6b22:	16 c0       	rjmp	.+44     	; 0x6b50 <main+0xe76>
    6b24:	dd 24       	eor	r13, r13
    6b26:	d3 94       	inc	r13
    6b28:	83 ff       	sbrs	r24, 3
    6b2a:	02 c0       	rjmp	.+4      	; 0x6b30 <main+0xe56>
    6b2c:	9a e0       	ldi	r25, 0x0A	; 10
    6b2e:	d9 2e       	mov	r13, r25
    6b30:	80 91 9d 06 	lds	r24, 0x069D	; 0x80069d <subMenuM>
    6b34:	81 11       	cpse	r24, r1
    6b36:	92 c0       	rjmp	.+292    	; 0x6c5c <main+0xf82>
    6b38:	80 91 c1 06 	lds	r24, 0x06C1	; 0x8006c1 <subMenuM+0x24>
    6b3c:	90 91 c3 06 	lds	r25, 0x06C3	; 0x8006c3 <subMenuM+0x26>
    6b40:	89 13       	cpse	r24, r25
    6b42:	8a c0       	rjmp	.+276    	; 0x6c58 <main+0xf7e>
    6b44:	80 91 c4 06 	lds	r24, 0x06C4	; 0x8006c4 <subMenuM+0x27>
    6b48:	80 93 c1 06 	sts	0x06C1, r24	; 0x8006c1 <subMenuM+0x24>
    6b4c:	f0 92 9e 06 	sts	0x069E, r15	; 0x80069e <subMenuM+0x1>
    6b50:	0e 94 fd 18 	call	0x31fa	; 0x31fa <_Z11WDT_DISABLEv>
    6b54:	0e 94 16 0b 	call	0x162c	; 0x162c <millis>
    6b58:	00 91 eb 02 	lds	r16, 0x02EB	; 0x8002eb <scaleTimer>
    6b5c:	10 91 ec 02 	lds	r17, 0x02EC	; 0x8002ec <scaleTimer+0x1>
    6b60:	20 91 ed 02 	lds	r18, 0x02ED	; 0x8002ed <scaleTimer+0x2>
    6b64:	30 91 ee 02 	lds	r19, 0x02EE	; 0x8002ee <scaleTimer+0x3>
    6b68:	60 1b       	sub	r22, r16
    6b6a:	71 0b       	sbc	r23, r17
    6b6c:	82 0b       	sbc	r24, r18
    6b6e:	93 0b       	sbc	r25, r19
    6b70:	69 35       	cpi	r22, 0x59	; 89
    6b72:	7b 41       	sbci	r23, 0x1B	; 27
    6b74:	81 05       	cpc	r24, r1
    6b76:	91 05       	cpc	r25, r1
    6b78:	08 f4       	brcc	.+2      	; 0x6b7c <main+0xea2>
    6b7a:	a7 c0       	rjmp	.+334    	; 0x6cca <main+0xff0>
    6b7c:	0e 94 a1 20 	call	0x4142	; 0x4142 <_Z9scaleShowv>
    6b80:	34 ce       	rjmp	.-920    	; 0x67ea <main+0xb10>
    6b82:	90 e0       	ldi	r25, 0x00	; 0
    6b84:	80 e0       	ldi	r24, 0x00	; 0
    6b86:	21 cf       	rjmp	.-446    	; 0x69ca <main+0xcf0>
    6b88:	e8 2f       	mov	r30, r24
    6b8a:	88 0f       	add	r24, r24
    6b8c:	ff 0b       	sbc	r31, r31
    6b8e:	e3 56       	subi	r30, 0x63	; 99
    6b90:	f9 4f       	sbci	r31, 0xF9	; 249
    6b92:	e0 85       	ldd	r30, Z+8	; 0x08
    6b94:	f0 e0       	ldi	r31, 0x00	; 0
    6b96:	ee 0f       	add	r30, r30
    6b98:	ff 1f       	adc	r31, r31
    6b9a:	ea 58       	subi	r30, 0x8A	; 138
    6b9c:	fe 4f       	sbci	r31, 0xFE	; 254
    6b9e:	01 90       	ld	r0, Z+
    6ba0:	f0 81       	ld	r31, Z
    6ba2:	e0 2d       	mov	r30, r0
    6ba4:	30 97       	sbiw	r30, 0x00	; 0
    6ba6:	11 f0       	breq	.+4      	; 0x6bac <main+0xed2>
    6ba8:	09 95       	icall
    6baa:	86 cf       	rjmp	.-244    	; 0x6ab8 <main+0xdde>
    6bac:	80 91 9d 06 	lds	r24, 0x069D	; 0x80069d <subMenuM>
    6bb0:	8f 25       	eor	r24, r15
    6bb2:	80 93 9d 06 	sts	0x069D, r24	; 0x80069d <subMenuM>
    6bb6:	80 cf       	rjmp	.-256    	; 0x6ab8 <main+0xdde>
    6bb8:	80 91 a1 06 	lds	r24, 0x06A1	; 0x8006a1 <subMenuM+0x4>
    6bbc:	20 91 c3 06 	lds	r18, 0x06C3	; 0x8006c3 <subMenuM+0x26>
    6bc0:	02 2e       	mov	r0, r18
    6bc2:	00 0c       	add	r0, r0
    6bc4:	33 0b       	sbc	r19, r19
    6bc6:	82 17       	cp	r24, r18
    6bc8:	13 06       	cpc	r1, r19
    6bca:	19 f0       	breq	.+6      	; 0x6bd2 <main+0xef8>
    6bcc:	81 50       	subi	r24, 0x01	; 1
    6bce:	80 93 a1 06 	sts	0x06A1, r24	; 0x8006a1 <subMenuM+0x4>
    6bd2:	30 92 a0 06 	sts	0x06A0, r3	; 0x8006a0 <subMenuM+0x3>
    6bd6:	20 92 9f 06 	sts	0x069F, r2	; 0x80069f <subMenuM+0x2>
    6bda:	7c cf       	rjmp	.-264    	; 0x6ad4 <main+0xdfa>
    6bdc:	10 92 9d 06 	sts	0x069D, r1	; 0x80069d <subMenuM>
    6be0:	79 cf       	rjmp	.-270    	; 0x6ad4 <main+0xdfa>
    6be2:	8f 5f       	subi	r24, 0xFF	; 255
    6be4:	80 93 c1 06 	sts	0x06C1, r24	; 0x8006c1 <subMenuM+0x24>
    6be8:	8f cf       	rjmp	.-226    	; 0x6b08 <main+0xe2e>
    6bea:	e0 91 c2 06 	lds	r30, 0x06C2	; 0x8006c2 <subMenuM+0x25>
    6bee:	f0 e0       	ldi	r31, 0x00	; 0
    6bf0:	e3 56       	subi	r30, 0x63	; 99
    6bf2:	f9 4f       	sbci	r31, 0xF9	; 249
    6bf4:	e1 a1       	ldd	r30, Z+33	; 0x21
    6bf6:	f0 e0       	ldi	r31, 0x00	; 0
    6bf8:	e3 56       	subi	r30, 0x63	; 99
    6bfa:	f9 4f       	sbci	r31, 0xF9	; 249
    6bfc:	60 85       	ldd	r22, Z+8	; 0x08
    6bfe:	36 e0       	ldi	r19, 0x06	; 6
    6c00:	63 9f       	mul	r22, r19
    6c02:	b0 01       	movw	r22, r0
    6c04:	11 24       	eor	r1, r1
    6c06:	6c 5f       	subi	r22, 0xFC	; 252
    6c08:	7f 4f       	sbci	r23, 0xFF	; 255
    6c0a:	46 e0       	ldi	r20, 0x06	; 6
    6c0c:	50 e0       	ldi	r21, 0x00	; 0
    6c0e:	84 e9       	ldi	r24, 0x94	; 148
    6c10:	93 e0       	ldi	r25, 0x03	; 3
    6c12:	0e 94 02 3b 	call	0x7604	; 0x7604 <eeprom_read_block>
    6c16:	e0 91 c2 06 	lds	r30, 0x06C2	; 0x8006c2 <subMenuM+0x25>
    6c1a:	f0 e0       	ldi	r31, 0x00	; 0
    6c1c:	e3 56       	subi	r30, 0x63	; 99
    6c1e:	f9 4f       	sbci	r31, 0xF9	; 249
    6c20:	e1 a1       	ldd	r30, Z+33	; 0x21
    6c22:	f0 e0       	ldi	r31, 0x00	; 0
    6c24:	e3 56       	subi	r30, 0x63	; 99
    6c26:	f9 4f       	sbci	r31, 0xF9	; 249
    6c28:	00 85       	ldd	r16, Z+8	; 0x08
    6c2a:	10 e0       	ldi	r17, 0x00	; 0
    6c2c:	00 0f       	add	r16, r16
    6c2e:	11 1f       	adc	r17, r17
    6c30:	04 5a       	subi	r16, 0xA4	; 164
    6c32:	1e 4f       	sbci	r17, 0xFE	; 254
    6c34:	c8 01       	movw	r24, r16
    6c36:	0e 94 18 3b 	call	0x7630	; 0x7630 <eeprom_read_word>
    6c3a:	bc 01       	movw	r22, r24
    6c3c:	6d 0d       	add	r22, r13
    6c3e:	71 1d       	adc	r23, r1
    6c40:	80 91 98 03 	lds	r24, 0x0398	; 0x800398 <menu+0x4>
    6c44:	90 91 99 03 	lds	r25, 0x0399	; 0x800399 <menu+0x5>
    6c48:	86 17       	cp	r24, r22
    6c4a:	97 07       	cpc	r25, r23
    6c4c:	08 f4       	brcc	.+2      	; 0x6c50 <main+0xf76>
    6c4e:	5c cf       	rjmp	.-328    	; 0x6b08 <main+0xe2e>
    6c50:	c8 01       	movw	r24, r16
    6c52:	0e 94 26 3b 	call	0x764c	; 0x764c <eeprom_write_word>
    6c56:	58 cf       	rjmp	.-336    	; 0x6b08 <main+0xe2e>
    6c58:	81 50       	subi	r24, 0x01	; 1
    6c5a:	76 cf       	rjmp	.-276    	; 0x6b48 <main+0xe6e>
    6c5c:	e0 91 c2 06 	lds	r30, 0x06C2	; 0x8006c2 <subMenuM+0x25>
    6c60:	f0 e0       	ldi	r31, 0x00	; 0
    6c62:	e3 56       	subi	r30, 0x63	; 99
    6c64:	f9 4f       	sbci	r31, 0xF9	; 249
    6c66:	e1 a1       	ldd	r30, Z+33	; 0x21
    6c68:	f0 e0       	ldi	r31, 0x00	; 0
    6c6a:	e3 56       	subi	r30, 0x63	; 99
    6c6c:	f9 4f       	sbci	r31, 0xF9	; 249
    6c6e:	60 85       	ldd	r22, Z+8	; 0x08
    6c70:	46 e0       	ldi	r20, 0x06	; 6
    6c72:	64 9f       	mul	r22, r20
    6c74:	b0 01       	movw	r22, r0
    6c76:	11 24       	eor	r1, r1
    6c78:	6c 5f       	subi	r22, 0xFC	; 252
    6c7a:	7f 4f       	sbci	r23, 0xFF	; 255
    6c7c:	46 e0       	ldi	r20, 0x06	; 6
    6c7e:	50 e0       	ldi	r21, 0x00	; 0
    6c80:	84 e9       	ldi	r24, 0x94	; 148
    6c82:	93 e0       	ldi	r25, 0x03	; 3
    6c84:	0e 94 02 3b 	call	0x7604	; 0x7604 <eeprom_read_block>
    6c88:	e0 91 c2 06 	lds	r30, 0x06C2	; 0x8006c2 <subMenuM+0x25>
    6c8c:	f0 e0       	ldi	r31, 0x00	; 0
    6c8e:	e3 56       	subi	r30, 0x63	; 99
    6c90:	f9 4f       	sbci	r31, 0xF9	; 249
    6c92:	e1 a1       	ldd	r30, Z+33	; 0x21
    6c94:	f0 e0       	ldi	r31, 0x00	; 0
    6c96:	e3 56       	subi	r30, 0x63	; 99
    6c98:	f9 4f       	sbci	r31, 0xF9	; 249
    6c9a:	00 85       	ldd	r16, Z+8	; 0x08
    6c9c:	10 e0       	ldi	r17, 0x00	; 0
    6c9e:	00 0f       	add	r16, r16
    6ca0:	11 1f       	adc	r17, r17
    6ca2:	04 5a       	subi	r16, 0xA4	; 164
    6ca4:	1e 4f       	sbci	r17, 0xFE	; 254
    6ca6:	c8 01       	movw	r24, r16
    6ca8:	0e 94 18 3b 	call	0x7630	; 0x7630 <eeprom_read_word>
    6cac:	bc 01       	movw	r22, r24
    6cae:	6d 19       	sub	r22, r13
    6cb0:	71 09       	sbc	r23, r1
    6cb2:	80 91 96 03 	lds	r24, 0x0396	; 0x800396 <menu+0x2>
    6cb6:	90 91 97 03 	lds	r25, 0x0397	; 0x800397 <menu+0x3>
    6cba:	68 17       	cp	r22, r24
    6cbc:	79 07       	cpc	r23, r25
    6cbe:	0c f4       	brge	.+2      	; 0x6cc2 <main+0xfe8>
    6cc0:	45 cf       	rjmp	.-374    	; 0x6b4c <main+0xe72>
    6cc2:	c8 01       	movw	r24, r16
    6cc4:	0e 94 26 3b 	call	0x764c	; 0x764c <eeprom_write_word>
    6cc8:	41 cf       	rjmp	.-382    	; 0x6b4c <main+0xe72>
    6cca:	80 91 9f 06 	lds	r24, 0x069F	; 0x80069f <subMenuM+0x2>
    6cce:	90 91 a0 06 	lds	r25, 0x06A0	; 0x8006a0 <subMenuM+0x3>
    6cd2:	89 2b       	or	r24, r25
    6cd4:	09 f4       	brne	.+2      	; 0x6cd8 <main+0xffe>
    6cd6:	a9 c0       	rjmp	.+338    	; 0x6e2a <main+0x1150>
    6cd8:	d0 90 ea 02 	lds	r13, 0x02EA	; 0x8002ea <menuSize>
    6cdc:	68 e0       	ldi	r22, 0x08	; 8
    6cde:	87 e0       	ldi	r24, 0x07	; 7
    6ce0:	90 e0       	ldi	r25, 0x00	; 0
    6ce2:	0e 94 0a 19 	call	0x3214	; 0x3214 <_Z3WDTjh>
    6ce6:	b0 90 a3 06 	lds	r11, 0x06A3	; 0x8006a3 <subMenuM+0x6>
    6cea:	80 91 9f 06 	lds	r24, 0x069F	; 0x80069f <subMenuM+0x2>
    6cee:	90 91 a0 06 	lds	r25, 0x06A0	; 0x8006a0 <subMenuM+0x3>
    6cf2:	81 30       	cpi	r24, 0x01	; 1
    6cf4:	91 05       	cpc	r25, r1
    6cf6:	09 f0       	breq	.+2      	; 0x6cfa <main+0x1020>
    6cf8:	74 c0       	rjmp	.+232    	; 0x6de2 <main+0x1108>
    6cfa:	e0 91 c1 06 	lds	r30, 0x06C1	; 0x8006c1 <subMenuM+0x24>
    6cfe:	0e 2e       	mov	r0, r30
    6d00:	00 0c       	add	r0, r0
    6d02:	ff 0b       	sbc	r31, r31
    6d04:	e3 56       	subi	r30, 0x63	; 99
    6d06:	f9 4f       	sbci	r31, 0xF9	; 249
    6d08:	80 85       	ldd	r24, Z+8	; 0x08
    6d0a:	80 93 a3 06 	sts	0x06A3, r24	; 0x8006a3 <subMenuM+0x6>
    6d0e:	10 92 c1 06 	sts	0x06C1, r1	; 0x8006c1 <subMenuM+0x24>
    6d12:	10 92 c2 06 	sts	0x06C2, r1	; 0x8006c2 <subMenuM+0x25>
    6d16:	10 92 a0 06 	sts	0x06A0, r1	; 0x8006a0 <subMenuM+0x3>
    6d1a:	10 92 9f 06 	sts	0x069F, r1	; 0x80069f <subMenuM+0x2>
    6d1e:	89 e1       	ldi	r24, 0x19	; 25
    6d20:	a5 ea       	ldi	r26, 0xA5	; 165
    6d22:	b6 e0       	ldi	r27, 0x06	; 6
    6d24:	1d 92       	st	X+, r1
    6d26:	8a 95       	dec	r24
    6d28:	e9 f7       	brne	.-6      	; 0x6d24 <main+0x104a>
    6d2a:	2d 2d       	mov	r18, r13
    6d2c:	30 e0       	ldi	r19, 0x00	; 0
    6d2e:	50 e0       	ldi	r21, 0x00	; 0
    6d30:	40 e0       	ldi	r20, 0x00	; 0
    6d32:	19 a2       	std	Y+33, r1	; 0x21
    6d34:	8e 01       	movw	r16, r28
    6d36:	0f 5d       	subi	r16, 0xDF	; 223
    6d38:	1f 4f       	sbci	r17, 0xFF	; 255
    6d3a:	ca 01       	movw	r24, r20
    6d3c:	b9 01       	movw	r22, r18
    6d3e:	2a e0       	ldi	r18, 0x0A	; 10
    6d40:	30 e0       	ldi	r19, 0x00	; 0
    6d42:	40 e0       	ldi	r20, 0x00	; 0
    6d44:	50 e0       	ldi	r21, 0x00	; 0
    6d46:	0e 94 a2 3b 	call	0x7744	; 0x7744 <__udivmodsi4>
    6d4a:	60 5d       	subi	r22, 0xD0	; 208
    6d4c:	f8 01       	movw	r30, r16
    6d4e:	62 93       	st	-Z, r22
    6d50:	8f 01       	movw	r16, r30
    6d52:	21 15       	cp	r18, r1
    6d54:	31 05       	cpc	r19, r1
    6d56:	41 05       	cpc	r20, r1
    6d58:	51 05       	cpc	r21, r1
    6d5a:	79 f7       	brne	.-34     	; 0x6d3a <main+0x1060>
    6d5c:	30 97       	sbiw	r30, 0x00	; 0
    6d5e:	61 f0       	breq	.+24     	; 0x6d78 <main+0x109e>
    6d60:	01 90       	ld	r0, Z+
    6d62:	00 20       	and	r0, r0
    6d64:	e9 f7       	brne	.-6      	; 0x6d60 <main+0x1086>
    6d66:	31 97       	sbiw	r30, 0x01	; 1
    6d68:	af 01       	movw	r20, r30
    6d6a:	40 1b       	sub	r20, r16
    6d6c:	51 0b       	sbc	r21, r17
    6d6e:	b8 01       	movw	r22, r16
    6d70:	8d ef       	ldi	r24, 0xFD	; 253
    6d72:	93 e0       	ldi	r25, 0x03	; 3
    6d74:	0e 94 84 0e 	call	0x1d08	; 0x1d08 <_ZN5Print5writeEPKhj>
    6d78:	42 e0       	ldi	r20, 0x02	; 2
    6d7a:	50 e0       	ldi	r21, 0x00	; 0
    6d7c:	66 e5       	ldi	r22, 0x56	; 86
    6d7e:	72 e0       	ldi	r23, 0x02	; 2
    6d80:	8d ef       	ldi	r24, 0xFD	; 253
    6d82:	93 e0       	ldi	r25, 0x03	; 3
    6d84:	0e 94 84 0e 	call	0x1d08	; 0x1d08 <_ZN5Print5writeEPKhj>
    6d88:	04 e0       	ldi	r16, 0x04	; 4
    6d8a:	10 e0       	ldi	r17, 0x00	; 0
    6d8c:	71 2c       	mov	r7, r1
    6d8e:	a1 2c       	mov	r10, r1
    6d90:	d7 14       	cp	r13, r7
    6d92:	e1 f1       	breq	.+120    	; 0x6e0c <main+0x1132>
    6d94:	46 e0       	ldi	r20, 0x06	; 6
    6d96:	50 e0       	ldi	r21, 0x00	; 0
    6d98:	b8 01       	movw	r22, r16
    6d9a:	84 e9       	ldi	r24, 0x94	; 148
    6d9c:	93 e0       	ldi	r25, 0x03	; 3
    6d9e:	0e 94 02 3b 	call	0x7604	; 0x7604 <eeprom_read_block>
    6da2:	20 91 95 03 	lds	r18, 0x0395	; 0x800395 <menu+0x1>
    6da6:	80 91 a3 06 	lds	r24, 0x06A3	; 0x8006a3 <subMenuM+0x6>
    6daa:	08 2e       	mov	r0, r24
    6dac:	00 0c       	add	r0, r0
    6dae:	99 0b       	sbc	r25, r25
    6db0:	28 17       	cp	r18, r24
    6db2:	19 06       	cpc	r1, r25
    6db4:	91 f4       	brne	.+36     	; 0x6dda <main+0x1100>
    6db6:	80 91 94 03 	lds	r24, 0x0394	; 0x800394 <menu>
    6dba:	88 23       	and	r24, r24
    6dbc:	71 f0       	breq	.+28     	; 0x6dda <main+0x1100>
    6dbe:	ea 2d       	mov	r30, r10
    6dc0:	0a 2c       	mov	r0, r10
    6dc2:	00 0c       	add	r0, r0
    6dc4:	ff 0b       	sbc	r31, r31
    6dc6:	e3 56       	subi	r30, 0x63	; 99
    6dc8:	f9 4f       	sbci	r31, 0xF9	; 249
    6dca:	70 86       	std	Z+8, r7	; 0x08
    6dcc:	b7 10       	cpse	r11, r7
    6dce:	04 c0       	rjmp	.+8      	; 0x6dd8 <main+0x10fe>
    6dd0:	a0 92 c1 06 	sts	0x06C1, r10	; 0x8006c1 <subMenuM+0x24>
    6dd4:	f0 92 9e 06 	sts	0x069E, r15	; 0x80069e <subMenuM+0x1>
    6dd8:	a3 94       	inc	r10
    6dda:	73 94       	inc	r7
    6ddc:	0a 5f       	subi	r16, 0xFA	; 250
    6dde:	1f 4f       	sbci	r17, 0xFF	; 255
    6de0:	d7 cf       	rjmp	.-82     	; 0x6d90 <main+0x10b6>
    6de2:	02 97       	sbiw	r24, 0x02	; 2
    6de4:	09 f0       	breq	.+2      	; 0x6de8 <main+0x110e>
    6de6:	97 cf       	rjmp	.-210    	; 0x6d16 <main+0x103c>
    6de8:	bb 2d       	mov	r27, r11
    6dea:	e6 e0       	ldi	r30, 0x06	; 6
    6dec:	be 02       	muls	r27, r30
    6dee:	b0 01       	movw	r22, r0
    6df0:	11 24       	eor	r1, r1
    6df2:	6c 5f       	subi	r22, 0xFC	; 252
    6df4:	7f 4f       	sbci	r23, 0xFF	; 255
    6df6:	46 e0       	ldi	r20, 0x06	; 6
    6df8:	50 e0       	ldi	r21, 0x00	; 0
    6dfa:	84 e9       	ldi	r24, 0x94	; 148
    6dfc:	93 e0       	ldi	r25, 0x03	; 3
    6dfe:	0e 94 02 3b 	call	0x7604	; 0x7604 <eeprom_read_block>
    6e02:	80 91 95 03 	lds	r24, 0x0395	; 0x800395 <menu+0x1>
    6e06:	80 93 a3 06 	sts	0x06A3, r24	; 0x8006a3 <subMenuM+0x6>
    6e0a:	85 cf       	rjmp	.-246    	; 0x6d16 <main+0x103c>
    6e0c:	a0 92 a4 06 	sts	0x06A4, r10	; 0x8006a4 <subMenuM+0x7>
    6e10:	10 92 c3 06 	sts	0x06C3, r1	; 0x8006c3 <subMenuM+0x26>
    6e14:	1a 14       	cp	r1, r10
    6e16:	1c f4       	brge	.+6      	; 0x6e1e <main+0x1144>
    6e18:	aa 94       	dec	r10
    6e1a:	a0 92 c4 06 	sts	0x06C4, r10	; 0x8006c4 <subMenuM+0x27>
    6e1e:	0e 94 fd 18 	call	0x31fa	; 0x31fa <_Z11WDT_DISABLEv>
    6e22:	0e 94 99 1e 	call	0x3d32	; 0x3d32 <_Z6screenP7subMenu.constprop.71>
    6e26:	0e 94 45 1f 	call	0x3e8a	; 0x3e8a <_Z12displayPrintP7subMenu.constprop.86>
    6e2a:	80 91 9e 06 	lds	r24, 0x069E	; 0x80069e <subMenuM+0x1>
    6e2e:	88 23       	and	r24, r24
    6e30:	09 f4       	brne	.+2      	; 0x6e34 <main+0x115a>
    6e32:	db cc       	rjmp	.-1610   	; 0x67ea <main+0xb10>
    6e34:	0e 94 99 1e 	call	0x3d32	; 0x3d32 <_Z6screenP7subMenu.constprop.71>
    6e38:	0e 94 45 1f 	call	0x3e8a	; 0x3e8a <_Z12displayPrintP7subMenu.constprop.86>
    6e3c:	d6 cc       	rjmp	.-1620   	; 0x67ea <main+0xb10>
    6e3e:	67 e1       	ldi	r22, 0x17	; 23
    6e40:	89 e0       	ldi	r24, 0x09	; 9
    6e42:	90 e0       	ldi	r25, 0x00	; 0
    6e44:	0e 94 0a 19 	call	0x3214	; 0x3214 <_Z3WDTjh>
    6e48:	0e 94 7f 24 	call	0x48fe	; 0x48fe <_Z18getdataAndSetpiontv>
    6e4c:	80 91 b4 03 	lds	r24, 0x03B4	; 0x8003b4 <iDryer+0x1a>
    6e50:	88 23       	and	r24, r24
    6e52:	09 f4       	brne	.+2      	; 0x6e56 <main+0x117c>
    6e54:	78 c0       	rjmp	.+240    	; 0x6f46 <main+0x126c>
    6e56:	20 91 b5 03 	lds	r18, 0x03B5	; 0x8003b5 <iDryer+0x1b>
    6e5a:	30 e0       	ldi	r19, 0x00	; 0
    6e5c:	af ef       	ldi	r26, 0xFF	; 255
    6e5e:	b0 e0       	ldi	r27, 0x00	; 0
    6e60:	0e 94 c4 3b 	call	0x7788	; 0x7788 <__umulhisi3>
    6e64:	24 e6       	ldi	r18, 0x64	; 100
    6e66:	30 e0       	ldi	r19, 0x00	; 0
    6e68:	40 e0       	ldi	r20, 0x00	; 0
    6e6a:	50 e0       	ldi	r21, 0x00	; 0
    6e6c:	0e 94 39 3b 	call	0x7672	; 0x7672 <__divmodsi4>
    6e70:	c9 01       	movw	r24, r18
    6e72:	0e 94 46 0a 	call	0x148c	; 0x148c <analogWrite.constprop.33>
    6e76:	80 91 9a 03 	lds	r24, 0x039A	; 0x80039a <iDryer>
    6e7a:	90 91 9b 03 	lds	r25, 0x039B	; 0x80039b <iDryer+0x1>
    6e7e:	a0 91 9c 03 	lds	r26, 0x039C	; 0x80039c <iDryer+0x2>
    6e82:	b0 91 9d 03 	lds	r27, 0x039D	; 0x80039d <iDryer+0x3>
    6e86:	80 93 2d 05 	sts	0x052D, r24	; 0x80052d <Input>
    6e8a:	90 93 2e 05 	sts	0x052E, r25	; 0x80052e <Input+0x1>
    6e8e:	a0 93 2f 05 	sts	0x052F, r26	; 0x80052f <Input+0x2>
    6e92:	b0 93 30 05 	sts	0x0530, r27	; 0x800530 <Input+0x3>
    6e96:	0e 94 03 0d 	call	0x1a06	; 0x1a06 <_ZN3PID7ComputeEv.constprop.15>
    6e9a:	60 91 29 05 	lds	r22, 0x0529	; 0x800529 <Output>
    6e9e:	70 91 2a 05 	lds	r23, 0x052A	; 0x80052a <Output+0x1>
    6ea2:	80 91 2b 05 	lds	r24, 0x052B	; 0x80052b <Output+0x2>
    6ea6:	90 91 2c 05 	lds	r25, 0x052C	; 0x80052c <Output+0x3>
    6eaa:	0e 94 e7 3c 	call	0x79ce	; 0x79ce <__fixunssfsi>
    6eae:	2b 01       	movw	r4, r22
    6eb0:	62 e0       	ldi	r22, 0x02	; 2
    6eb2:	85 e0       	ldi	r24, 0x05	; 5
    6eb4:	90 e0       	ldi	r25, 0x00	; 0
    6eb6:	0e 94 0a 19 	call	0x3214	; 0x3214 <_Z3WDTjh>
    6eba:	80 e1       	ldi	r24, 0x10	; 16
    6ebc:	97 e2       	ldi	r25, 0x27	; 39
    6ebe:	84 19       	sub	r24, r4
    6ec0:	95 09       	sbc	r25, r5
    6ec2:	90 93 e9 02 	sts	0x02E9, r25	; 0x8002e9 <dimmer+0x1>
    6ec6:	80 93 e8 02 	sts	0x02E8, r24	; 0x8002e8 <dimmer>
    6eca:	0e 94 fd 18 	call	0x31fa	; 0x31fa <_Z11WDT_DISABLEv>
    6ece:	0e 94 16 0b 	call	0x162c	; 0x162c <millis>
    6ed2:	00 91 e4 02 	lds	r16, 0x02E4	; 0x8002e4 <oldTimer>
    6ed6:	10 91 e5 02 	lds	r17, 0x02E5	; 0x8002e5 <oldTimer+0x1>
    6eda:	20 91 e6 02 	lds	r18, 0x02E6	; 0x8002e6 <oldTimer+0x2>
    6ede:	30 91 e7 02 	lds	r19, 0x02E7	; 0x8002e7 <oldTimer+0x3>
    6ee2:	60 1b       	sub	r22, r16
    6ee4:	71 0b       	sbc	r23, r17
    6ee6:	82 0b       	sbc	r24, r18
    6ee8:	93 0b       	sbc	r25, r19
    6eea:	60 36       	cpi	r22, 0x60	; 96
    6eec:	7a 4e       	sbci	r23, 0xEA	; 234
    6eee:	81 05       	cpc	r24, r1
    6ef0:	91 05       	cpc	r25, r1
    6ef2:	b8 f0       	brcs	.+46     	; 0x6f22 <main+0x1248>
    6ef4:	80 91 b4 03 	lds	r24, 0x03B4	; 0x8003b4 <iDryer+0x1a>
    6ef8:	88 23       	and	r24, r24
    6efa:	99 f0       	breq	.+38     	; 0x6f22 <main+0x1248>
    6efc:	0e 94 16 0b 	call	0x162c	; 0x162c <millis>
    6f00:	60 93 e4 02 	sts	0x02E4, r22	; 0x8002e4 <oldTimer>
    6f04:	70 93 e5 02 	sts	0x02E5, r23	; 0x8002e5 <oldTimer+0x1>
    6f08:	80 93 e6 02 	sts	0x02E6, r24	; 0x8002e6 <oldTimer+0x2>
    6f0c:	90 93 e7 02 	sts	0x02E7, r25	; 0x8002e7 <oldTimer+0x3>
    6f10:	80 91 b0 03 	lds	r24, 0x03B0	; 0x8003b0 <iDryer+0x16>
    6f14:	90 91 b1 03 	lds	r25, 0x03B1	; 0x8003b1 <iDryer+0x17>
    6f18:	01 97       	sbiw	r24, 0x01	; 1
    6f1a:	90 93 b1 03 	sts	0x03B1, r25	; 0x8003b1 <iDryer+0x17>
    6f1e:	80 93 b0 03 	sts	0x03B0, r24	; 0x8003b0 <iDryer+0x16>
    6f22:	80 91 b0 03 	lds	r24, 0x03B0	; 0x8003b0 <iDryer+0x16>
    6f26:	90 91 b1 03 	lds	r25, 0x03B1	; 0x8003b1 <iDryer+0x17>
    6f2a:	89 2b       	or	r24, r25
    6f2c:	49 f4       	brne	.+18     	; 0x6f40 <main+0x1266>
    6f2e:	25 e0       	ldi	r18, 0x05	; 5
    6f30:	20 93 a3 06 	sts	0x06A3, r18	; 0x8006a3 <subMenuM+0x6>
    6f34:	0e 94 41 1a 	call	0x3482	; 0x3482 <_Z9heaterOFFv>
    6f38:	0e 94 fd 18 	call	0x31fa	; 0x31fa <_Z11WDT_DISABLEv>
    6f3c:	0e 94 10 1d 	call	0x3a20	; 0x3a20 <_Z12storageStartv>
    6f40:	0e 94 e7 19 	call	0x33ce	; 0x33ce <_ZN5servo5checkEv.constprop.107>
    6f44:	52 cc       	rjmp	.-1884   	; 0x67ea <main+0xb10>
    6f46:	8f ef       	ldi	r24, 0xFF	; 255
    6f48:	90 e0       	ldi	r25, 0x00	; 0
    6f4a:	93 cf       	rjmp	.-218    	; 0x6e72 <main+0x1198>
    6f4c:	68 e1       	ldi	r22, 0x18	; 24
    6f4e:	89 e0       	ldi	r24, 0x09	; 9
    6f50:	90 e0       	ldi	r25, 0x00	; 0
    6f52:	0e 94 0a 19 	call	0x3214	; 0x3214 <_Z3WDTjh>
    6f56:	0e 94 7f 24 	call	0x48fe	; 0x48fe <_Z18getdataAndSetpiontv>
    6f5a:	60 91 af 03 	lds	r22, 0x03AF	; 0x8003af <iDryer+0x15>
    6f5e:	70 e0       	ldi	r23, 0x00	; 0
    6f60:	90 e0       	ldi	r25, 0x00	; 0
    6f62:	80 e0       	ldi	r24, 0x00	; 0
    6f64:	0e 94 18 3d 	call	0x7a30	; 0x7a30 <__floatsisf>
    6f68:	9b 01       	movw	r18, r22
    6f6a:	ac 01       	movw	r20, r24
    6f6c:	60 91 a2 03 	lds	r22, 0x03A2	; 0x8003a2 <iDryer+0x8>
    6f70:	70 91 a3 03 	lds	r23, 0x03A3	; 0x8003a3 <iDryer+0x9>
    6f74:	80 91 a4 03 	lds	r24, 0x03A4	; 0x8003a4 <iDryer+0xa>
    6f78:	90 91 a5 03 	lds	r25, 0x03A5	; 0x8003a5 <iDryer+0xb>
    6f7c:	0e 94 c8 3d 	call	0x7b90	; 0x7b90 <__gesf2>
    6f80:	40 90 9a 03 	lds	r4, 0x039A	; 0x80039a <iDryer>
    6f84:	50 90 9b 03 	lds	r5, 0x039B	; 0x80039b <iDryer+0x1>
    6f88:	60 90 9c 03 	lds	r6, 0x039C	; 0x80039c <iDryer+0x2>
    6f8c:	70 90 9d 03 	lds	r7, 0x039D	; 0x80039d <iDryer+0x3>
    6f90:	18 16       	cp	r1, r24
    6f92:	0c f0       	brlt	.+2      	; 0x6f96 <main+0x12bc>
    6f94:	6b c0       	rjmp	.+214    	; 0x706c <main+0x1392>
    6f96:	80 91 b2 03 	lds	r24, 0x03B2	; 0x8003b2 <iDryer+0x18>
    6f9a:	88 23       	and	r24, r24
    6f9c:	09 f4       	brne	.+2      	; 0x6fa0 <main+0x12c6>
    6f9e:	66 c0       	rjmp	.+204    	; 0x706c <main+0x1392>
    6fa0:	40 92 2d 05 	sts	0x052D, r4	; 0x80052d <Input>
    6fa4:	50 92 2e 05 	sts	0x052E, r5	; 0x80052e <Input+0x1>
    6fa8:	60 92 2f 05 	sts	0x052F, r6	; 0x80052f <Input+0x2>
    6fac:	70 92 30 05 	sts	0x0530, r7	; 0x800530 <Input+0x3>
    6fb0:	0e 94 03 0d 	call	0x1a06	; 0x1a06 <_ZN3PID7ComputeEv.constprop.15>
    6fb4:	80 91 b4 03 	lds	r24, 0x03B4	; 0x8003b4 <iDryer+0x1a>
    6fb8:	88 23       	and	r24, r24
    6fba:	09 f4       	brne	.+2      	; 0x6fbe <main+0x12e4>
    6fbc:	54 c0       	rjmp	.+168    	; 0x7066 <main+0x138c>
    6fbe:	20 91 b5 03 	lds	r18, 0x03B5	; 0x8003b5 <iDryer+0x1b>
    6fc2:	30 e0       	ldi	r19, 0x00	; 0
    6fc4:	af ef       	ldi	r26, 0xFF	; 255
    6fc6:	b0 e0       	ldi	r27, 0x00	; 0
    6fc8:	0e 94 c4 3b 	call	0x7788	; 0x7788 <__umulhisi3>
    6fcc:	24 e6       	ldi	r18, 0x64	; 100
    6fce:	30 e0       	ldi	r19, 0x00	; 0
    6fd0:	40 e0       	ldi	r20, 0x00	; 0
    6fd2:	50 e0       	ldi	r21, 0x00	; 0
    6fd4:	0e 94 39 3b 	call	0x7672	; 0x7672 <__divmodsi4>
    6fd8:	c9 01       	movw	r24, r18
    6fda:	0e 94 46 0a 	call	0x148c	; 0x148c <analogWrite.constprop.33>
    6fde:	60 91 29 05 	lds	r22, 0x0529	; 0x800529 <Output>
    6fe2:	70 91 2a 05 	lds	r23, 0x052A	; 0x80052a <Output+0x1>
    6fe6:	80 91 2b 05 	lds	r24, 0x052B	; 0x80052b <Output+0x2>
    6fea:	90 91 2c 05 	lds	r25, 0x052C	; 0x80052c <Output+0x3>
    6fee:	0e 94 e7 3c 	call	0x79ce	; 0x79ce <__fixunssfsi>
    6ff2:	2b 01       	movw	r4, r22
    6ff4:	62 e0       	ldi	r22, 0x02	; 2
    6ff6:	85 e0       	ldi	r24, 0x05	; 5
    6ff8:	90 e0       	ldi	r25, 0x00	; 0
    6ffa:	0e 94 0a 19 	call	0x3214	; 0x3214 <_Z3WDTjh>
    6ffe:	80 e1       	ldi	r24, 0x10	; 16
    7000:	97 e2       	ldi	r25, 0x27	; 39
    7002:	84 19       	sub	r24, r4
    7004:	95 09       	sbc	r25, r5
    7006:	90 93 e9 02 	sts	0x02E9, r25	; 0x8002e9 <dimmer+0x1>
    700a:	80 93 e8 02 	sts	0x02E8, r24	; 0x8002e8 <dimmer>
    700e:	0e 94 fd 18 	call	0x31fa	; 0x31fa <_Z11WDT_DISABLEv>
    7012:	0e 94 e7 19 	call	0x33ce	; 0x33ce <_ZN5servo5checkEv.constprop.107>
    7016:	60 91 af 03 	lds	r22, 0x03AF	; 0x8003af <iDryer+0x15>
    701a:	70 e0       	ldi	r23, 0x00	; 0
    701c:	6e 5f       	subi	r22, 0xFE	; 254
    701e:	7f 4f       	sbci	r23, 0xFF	; 255
    7020:	07 2e       	mov	r0, r23
    7022:	00 0c       	add	r0, r0
    7024:	88 0b       	sbc	r24, r24
    7026:	99 0b       	sbc	r25, r25
    7028:	0e 94 18 3d 	call	0x7a30	; 0x7a30 <__floatsisf>
    702c:	9b 01       	movw	r18, r22
    702e:	ac 01       	movw	r20, r24
    7030:	60 91 a2 03 	lds	r22, 0x03A2	; 0x8003a2 <iDryer+0x8>
    7034:	70 91 a3 03 	lds	r23, 0x03A3	; 0x8003a3 <iDryer+0x9>
    7038:	80 91 a4 03 	lds	r24, 0x03A4	; 0x8003a4 <iDryer+0xa>
    703c:	90 91 a5 03 	lds	r25, 0x03A5	; 0x8003a5 <iDryer+0xb>
    7040:	0e 94 c8 3d 	call	0x7b90	; 0x7b90 <__gesf2>
    7044:	18 16       	cp	r1, r24
    7046:	0c f0       	brlt	.+2      	; 0x704a <main+0x1370>
    7048:	d0 cb       	rjmp	.-2144   	; 0x67ea <main+0xb10>
    704a:	80 91 b2 03 	lds	r24, 0x03B2	; 0x8003b2 <iDryer+0x18>
    704e:	81 11       	cpse	r24, r1
    7050:	cc cb       	rjmp	.-2152   	; 0x67ea <main+0xb10>
    7052:	f0 92 b2 03 	sts	0x03B2, r15	; 0x8003b2 <iDryer+0x18>
    7056:	0e 94 03 1d 	call	0x3a06	; 0x3a06 <attachInterrupt.constprop.29>
    705a:	80 91 6f 00 	lds	r24, 0x006F	; 0x80006f <__TEXT_REGION_LENGTH__+0x7e006f>
    705e:	82 60       	ori	r24, 0x02	; 2
    7060:	80 93 6f 00 	sts	0x006F, r24	; 0x80006f <__TEXT_REGION_LENGTH__+0x7e006f>
    7064:	c2 cb       	rjmp	.-2172   	; 0x67ea <main+0xb10>
    7066:	8f ef       	ldi	r24, 0xFF	; 255
    7068:	90 e0       	ldi	r25, 0x00	; 0
    706a:	b7 cf       	rjmp	.-146    	; 0x6fda <main+0x1300>
    706c:	10 92 b2 03 	sts	0x03B2, r1	; 0x8003b2 <iDryer+0x18>
    7070:	40 92 2d 05 	sts	0x052D, r4	; 0x80052d <Input>
    7074:	50 92 2e 05 	sts	0x052E, r5	; 0x80052e <Input+0x1>
    7078:	60 92 2f 05 	sts	0x052F, r6	; 0x80052f <Input+0x2>
    707c:	70 92 30 05 	sts	0x0530, r7	; 0x800530 <Input+0x3>
    7080:	60 91 ae 03 	lds	r22, 0x03AE	; 0x8003ae <iDryer+0x14>
    7084:	70 e0       	ldi	r23, 0x00	; 0
    7086:	6b 5f       	subi	r22, 0xFB	; 251
    7088:	7f 4f       	sbci	r23, 0xFF	; 255
    708a:	07 2e       	mov	r0, r23
    708c:	00 0c       	add	r0, r0
    708e:	88 0b       	sbc	r24, r24
    7090:	99 0b       	sbc	r25, r25
    7092:	0e 94 18 3d 	call	0x7a30	; 0x7a30 <__floatsisf>
    7096:	9b 01       	movw	r18, r22
    7098:	ac 01       	movw	r20, r24
    709a:	c3 01       	movw	r24, r6
    709c:	b2 01       	movw	r22, r4
    709e:	0e 94 69 3c 	call	0x78d2	; 0x78d2 <__cmpsf2>
    70a2:	87 ff       	sbrs	r24, 7
    70a4:	04 c0       	rjmp	.+8      	; 0x70ae <main+0x13d4>
    70a6:	90 e0       	ldi	r25, 0x00	; 0
    70a8:	80 e0       	ldi	r24, 0x00	; 0
    70aa:	0e 94 46 0a 	call	0x148c	; 0x148c <analogWrite.constprop.33>
    70ae:	0e 94 41 1a 	call	0x3482	; 0x3482 <_Z9heaterOFFv>
    70b2:	80 91 24 05 	lds	r24, 0x0524	; 0x800524 <Servo1+0xa>
    70b6:	88 23       	and	r24, r24
    70b8:	09 f4       	brne	.+2      	; 0x70bc <main+0x13e2>
    70ba:	ad cf       	rjmp	.-166    	; 0x7016 <main+0x133c>
    70bc:	40 90 1b 05 	lds	r4, 0x051B	; 0x80051b <Servo1+0x1>
    70c0:	50 90 1c 05 	lds	r5, 0x051C	; 0x80051c <Servo1+0x2>
    70c4:	60 90 1d 05 	lds	r6, 0x051D	; 0x80051d <Servo1+0x3>
    70c8:	70 90 1e 05 	lds	r7, 0x051E	; 0x80051e <Servo1+0x4>
    70cc:	0e 94 16 0b 	call	0x162c	; 0x162c <millis>
    70d0:	46 16       	cp	r4, r22
    70d2:	57 06       	cpc	r5, r23
    70d4:	68 06       	cpc	r6, r24
    70d6:	79 06       	cpc	r7, r25
    70d8:	08 f0       	brcs	.+2      	; 0x70dc <main+0x1402>
    70da:	9d cf       	rjmp	.-198    	; 0x7016 <main+0x133c>
    70dc:	0e 94 bf 19 	call	0x337e	; 0x337e <_ZN5servo5checkEv.part.13.constprop.108>
    70e0:	9a cf       	rjmp	.-204    	; 0x7016 <main+0x133c>

000070e2 <_GLOBAL__sub_D_menuPGM>:
    70e2:	cf 93       	push	r28
    70e4:	df 93       	push	r29
    70e6:	cd eb       	ldi	r28, 0xBD	; 189
    70e8:	d5 e0       	ldi	r29, 0x05	; 5
    70ea:	64 97       	sbiw	r28, 0x14	; 20
    70ec:	e8 81       	ld	r30, Y
    70ee:	f9 81       	ldd	r31, Y+1	; 0x01
    70f0:	01 90       	ld	r0, Z+
    70f2:	f0 81       	ld	r31, Z
    70f4:	e0 2d       	mov	r30, r0
    70f6:	ce 01       	movw	r24, r28
    70f8:	09 95       	icall
    70fa:	85 e0       	ldi	r24, 0x05	; 5
    70fc:	cd 36       	cpi	r28, 0x6D	; 109
    70fe:	d8 07       	cpc	r29, r24
    7100:	a1 f7       	brne	.-24     	; 0x70ea <_GLOBAL__sub_D_menuPGM+0x8>
    7102:	df 91       	pop	r29
    7104:	cf 91       	pop	r28
    7106:	08 95       	ret

00007108 <vfprintf>:
    7108:	ab e0       	ldi	r26, 0x0B	; 11
    710a:	b0 e0       	ldi	r27, 0x00	; 0
    710c:	ea e8       	ldi	r30, 0x8A	; 138
    710e:	f8 e3       	ldi	r31, 0x38	; 56
    7110:	0c 94 6b 3b 	jmp	0x76d6	; 0x76d6 <__prologue_saves__>
    7114:	7c 01       	movw	r14, r24
    7116:	3b 01       	movw	r6, r22
    7118:	8a 01       	movw	r16, r20
    711a:	fc 01       	movw	r30, r24
    711c:	17 82       	std	Z+7, r1	; 0x07
    711e:	16 82       	std	Z+6, r1	; 0x06
    7120:	83 81       	ldd	r24, Z+3	; 0x03
    7122:	81 ff       	sbrs	r24, 1
    7124:	c8 c1       	rjmp	.+912    	; 0x74b6 <vfprintf+0x3ae>
    7126:	ce 01       	movw	r24, r28
    7128:	01 96       	adiw	r24, 0x01	; 1
    712a:	5c 01       	movw	r10, r24
    712c:	f7 01       	movw	r30, r14
    712e:	93 81       	ldd	r25, Z+3	; 0x03
    7130:	f3 01       	movw	r30, r6
    7132:	93 fd       	sbrc	r25, 3
    7134:	85 91       	lpm	r24, Z+
    7136:	93 ff       	sbrs	r25, 3
    7138:	81 91       	ld	r24, Z+
    713a:	3f 01       	movw	r6, r30
    713c:	88 23       	and	r24, r24
    713e:	09 f4       	brne	.+2      	; 0x7142 <vfprintf+0x3a>
    7140:	53 c1       	rjmp	.+678    	; 0x73e8 <vfprintf+0x2e0>
    7142:	85 32       	cpi	r24, 0x25	; 37
    7144:	39 f4       	brne	.+14     	; 0x7154 <vfprintf+0x4c>
    7146:	93 fd       	sbrc	r25, 3
    7148:	85 91       	lpm	r24, Z+
    714a:	93 ff       	sbrs	r25, 3
    714c:	81 91       	ld	r24, Z+
    714e:	3f 01       	movw	r6, r30
    7150:	85 32       	cpi	r24, 0x25	; 37
    7152:	29 f4       	brne	.+10     	; 0x715e <vfprintf+0x56>
    7154:	b7 01       	movw	r22, r14
    7156:	90 e0       	ldi	r25, 0x00	; 0
    7158:	0e 94 74 3a 	call	0x74e8	; 0x74e8 <fputc>
    715c:	e7 cf       	rjmp	.-50     	; 0x712c <vfprintf+0x24>
    715e:	91 2c       	mov	r9, r1
    7160:	21 2c       	mov	r2, r1
    7162:	31 2c       	mov	r3, r1
    7164:	ff e1       	ldi	r31, 0x1F	; 31
    7166:	f3 15       	cp	r31, r3
    7168:	38 f0       	brcs	.+14     	; 0x7178 <vfprintf+0x70>
    716a:	8b 32       	cpi	r24, 0x2B	; 43
    716c:	11 f1       	breq	.+68     	; 0x71b2 <vfprintf+0xaa>
    716e:	90 f4       	brcc	.+36     	; 0x7194 <vfprintf+0x8c>
    7170:	80 32       	cpi	r24, 0x20	; 32
    7172:	09 f1       	breq	.+66     	; 0x71b6 <vfprintf+0xae>
    7174:	83 32       	cpi	r24, 0x23	; 35
    7176:	29 f1       	breq	.+74     	; 0x71c2 <vfprintf+0xba>
    7178:	37 fc       	sbrc	r3, 7
    717a:	3c c0       	rjmp	.+120    	; 0x71f4 <vfprintf+0xec>
    717c:	20 ed       	ldi	r18, 0xD0	; 208
    717e:	28 0f       	add	r18, r24
    7180:	2a 30       	cpi	r18, 0x0A	; 10
    7182:	50 f5       	brcc	.+84     	; 0x71d8 <vfprintf+0xd0>
    7184:	36 fe       	sbrs	r3, 6
    7186:	20 c0       	rjmp	.+64     	; 0x71c8 <vfprintf+0xc0>
    7188:	8a e0       	ldi	r24, 0x0A	; 10
    718a:	98 9e       	mul	r9, r24
    718c:	20 0d       	add	r18, r0
    718e:	11 24       	eor	r1, r1
    7190:	92 2e       	mov	r9, r18
    7192:	06 c0       	rjmp	.+12     	; 0x71a0 <vfprintf+0x98>
    7194:	8d 32       	cpi	r24, 0x2D	; 45
    7196:	91 f0       	breq	.+36     	; 0x71bc <vfprintf+0xb4>
    7198:	80 33       	cpi	r24, 0x30	; 48
    719a:	71 f7       	brne	.-36     	; 0x7178 <vfprintf+0x70>
    719c:	68 94       	set
    719e:	30 f8       	bld	r3, 0
    71a0:	f3 01       	movw	r30, r6
    71a2:	93 fd       	sbrc	r25, 3
    71a4:	85 91       	lpm	r24, Z+
    71a6:	93 ff       	sbrs	r25, 3
    71a8:	81 91       	ld	r24, Z+
    71aa:	3f 01       	movw	r6, r30
    71ac:	81 11       	cpse	r24, r1
    71ae:	da cf       	rjmp	.-76     	; 0x7164 <vfprintf+0x5c>
    71b0:	21 c0       	rjmp	.+66     	; 0x71f4 <vfprintf+0xec>
    71b2:	68 94       	set
    71b4:	31 f8       	bld	r3, 1
    71b6:	68 94       	set
    71b8:	32 f8       	bld	r3, 2
    71ba:	f2 cf       	rjmp	.-28     	; 0x71a0 <vfprintf+0x98>
    71bc:	68 94       	set
    71be:	33 f8       	bld	r3, 3
    71c0:	ef cf       	rjmp	.-34     	; 0x71a0 <vfprintf+0x98>
    71c2:	68 94       	set
    71c4:	34 f8       	bld	r3, 4
    71c6:	ec cf       	rjmp	.-40     	; 0x71a0 <vfprintf+0x98>
    71c8:	ea e0       	ldi	r30, 0x0A	; 10
    71ca:	2e 9e       	mul	r2, r30
    71cc:	20 0d       	add	r18, r0
    71ce:	11 24       	eor	r1, r1
    71d0:	22 2e       	mov	r2, r18
    71d2:	68 94       	set
    71d4:	35 f8       	bld	r3, 5
    71d6:	e4 cf       	rjmp	.-56     	; 0x71a0 <vfprintf+0x98>
    71d8:	8e 32       	cpi	r24, 0x2E	; 46
    71da:	29 f4       	brne	.+10     	; 0x71e6 <vfprintf+0xde>
    71dc:	36 fc       	sbrc	r3, 6
    71de:	04 c1       	rjmp	.+520    	; 0x73e8 <vfprintf+0x2e0>
    71e0:	68 94       	set
    71e2:	36 f8       	bld	r3, 6
    71e4:	dd cf       	rjmp	.-70     	; 0x71a0 <vfprintf+0x98>
    71e6:	8c 36       	cpi	r24, 0x6C	; 108
    71e8:	19 f4       	brne	.+6      	; 0x71f0 <vfprintf+0xe8>
    71ea:	68 94       	set
    71ec:	37 f8       	bld	r3, 7
    71ee:	d8 cf       	rjmp	.-80     	; 0x71a0 <vfprintf+0x98>
    71f0:	88 36       	cpi	r24, 0x68	; 104
    71f2:	b1 f2       	breq	.-84     	; 0x71a0 <vfprintf+0x98>
    71f4:	98 2f       	mov	r25, r24
    71f6:	9f 7d       	andi	r25, 0xDF	; 223
    71f8:	95 54       	subi	r25, 0x45	; 69
    71fa:	93 30       	cpi	r25, 0x03	; 3
    71fc:	e0 f0       	brcs	.+56     	; 0x7236 <vfprintf+0x12e>
    71fe:	83 36       	cpi	r24, 0x63	; 99
    7200:	a1 f1       	breq	.+104    	; 0x726a <vfprintf+0x162>
    7202:	83 37       	cpi	r24, 0x73	; 115
    7204:	c1 f1       	breq	.+112    	; 0x7276 <vfprintf+0x16e>
    7206:	83 35       	cpi	r24, 0x53	; 83
    7208:	09 f0       	breq	.+2      	; 0x720c <vfprintf+0x104>
    720a:	63 c0       	rjmp	.+198    	; 0x72d2 <vfprintf+0x1ca>
    720c:	28 01       	movw	r4, r16
    720e:	f2 e0       	ldi	r31, 0x02	; 2
    7210:	4f 0e       	add	r4, r31
    7212:	51 1c       	adc	r5, r1
    7214:	f8 01       	movw	r30, r16
    7216:	c0 80       	ld	r12, Z
    7218:	d1 80       	ldd	r13, Z+1	; 0x01
    721a:	69 2d       	mov	r22, r9
    721c:	70 e0       	ldi	r23, 0x00	; 0
    721e:	36 fc       	sbrc	r3, 6
    7220:	02 c0       	rjmp	.+4      	; 0x7226 <vfprintf+0x11e>
    7222:	6f ef       	ldi	r22, 0xFF	; 255
    7224:	7f ef       	ldi	r23, 0xFF	; 255
    7226:	c6 01       	movw	r24, r12
    7228:	0e 94 5e 3a 	call	0x74bc	; 0x74bc <strnlen_P>
    722c:	4c 01       	movw	r8, r24
    722e:	68 94       	set
    7230:	37 f8       	bld	r3, 7
    7232:	82 01       	movw	r16, r4
    7234:	0a c0       	rjmp	.+20     	; 0x724a <vfprintf+0x142>
    7236:	0c 5f       	subi	r16, 0xFC	; 252
    7238:	1f 4f       	sbci	r17, 0xFF	; 255
    723a:	ff e3       	ldi	r31, 0x3F	; 63
    723c:	f9 83       	std	Y+1, r31	; 0x01
    723e:	88 24       	eor	r8, r8
    7240:	83 94       	inc	r8
    7242:	91 2c       	mov	r9, r1
    7244:	65 01       	movw	r12, r10
    7246:	e8 94       	clt
    7248:	37 f8       	bld	r3, 7
    724a:	33 fe       	sbrs	r3, 3
    724c:	2d c0       	rjmp	.+90     	; 0x72a8 <vfprintf+0x1a0>
    724e:	52 2c       	mov	r5, r2
    7250:	81 14       	cp	r8, r1
    7252:	91 04       	cpc	r9, r1
    7254:	71 f5       	brne	.+92     	; 0x72b2 <vfprintf+0x1aa>
    7256:	55 20       	and	r5, r5
    7258:	09 f4       	brne	.+2      	; 0x725c <vfprintf+0x154>
    725a:	68 cf       	rjmp	.-304    	; 0x712c <vfprintf+0x24>
    725c:	b7 01       	movw	r22, r14
    725e:	80 e2       	ldi	r24, 0x20	; 32
    7260:	90 e0       	ldi	r25, 0x00	; 0
    7262:	0e 94 74 3a 	call	0x74e8	; 0x74e8 <fputc>
    7266:	5a 94       	dec	r5
    7268:	f6 cf       	rjmp	.-20     	; 0x7256 <vfprintf+0x14e>
    726a:	f8 01       	movw	r30, r16
    726c:	80 81       	ld	r24, Z
    726e:	89 83       	std	Y+1, r24	; 0x01
    7270:	0e 5f       	subi	r16, 0xFE	; 254
    7272:	1f 4f       	sbci	r17, 0xFF	; 255
    7274:	e4 cf       	rjmp	.-56     	; 0x723e <vfprintf+0x136>
    7276:	28 01       	movw	r4, r16
    7278:	f2 e0       	ldi	r31, 0x02	; 2
    727a:	4f 0e       	add	r4, r31
    727c:	51 1c       	adc	r5, r1
    727e:	f8 01       	movw	r30, r16
    7280:	c0 80       	ld	r12, Z
    7282:	d1 80       	ldd	r13, Z+1	; 0x01
    7284:	69 2d       	mov	r22, r9
    7286:	70 e0       	ldi	r23, 0x00	; 0
    7288:	36 fc       	sbrc	r3, 6
    728a:	02 c0       	rjmp	.+4      	; 0x7290 <vfprintf+0x188>
    728c:	6f ef       	ldi	r22, 0xFF	; 255
    728e:	7f ef       	ldi	r23, 0xFF	; 255
    7290:	c6 01       	movw	r24, r12
    7292:	0e 94 69 3a 	call	0x74d2	; 0x74d2 <strnlen>
    7296:	4c 01       	movw	r8, r24
    7298:	82 01       	movw	r16, r4
    729a:	d5 cf       	rjmp	.-86     	; 0x7246 <vfprintf+0x13e>
    729c:	b7 01       	movw	r22, r14
    729e:	80 e2       	ldi	r24, 0x20	; 32
    72a0:	90 e0       	ldi	r25, 0x00	; 0
    72a2:	0e 94 74 3a 	call	0x74e8	; 0x74e8 <fputc>
    72a6:	2a 94       	dec	r2
    72a8:	28 14       	cp	r2, r8
    72aa:	19 04       	cpc	r1, r9
    72ac:	09 f0       	breq	.+2      	; 0x72b0 <vfprintf+0x1a8>
    72ae:	b0 f7       	brcc	.-20     	; 0x729c <vfprintf+0x194>
    72b0:	ce cf       	rjmp	.-100    	; 0x724e <vfprintf+0x146>
    72b2:	f6 01       	movw	r30, r12
    72b4:	37 fc       	sbrc	r3, 7
    72b6:	85 91       	lpm	r24, Z+
    72b8:	37 fe       	sbrs	r3, 7
    72ba:	81 91       	ld	r24, Z+
    72bc:	6f 01       	movw	r12, r30
    72be:	b7 01       	movw	r22, r14
    72c0:	90 e0       	ldi	r25, 0x00	; 0
    72c2:	0e 94 74 3a 	call	0x74e8	; 0x74e8 <fputc>
    72c6:	51 10       	cpse	r5, r1
    72c8:	5a 94       	dec	r5
    72ca:	f1 e0       	ldi	r31, 0x01	; 1
    72cc:	8f 1a       	sub	r8, r31
    72ce:	91 08       	sbc	r9, r1
    72d0:	bf cf       	rjmp	.-130    	; 0x7250 <vfprintf+0x148>
    72d2:	84 36       	cpi	r24, 0x64	; 100
    72d4:	19 f0       	breq	.+6      	; 0x72dc <vfprintf+0x1d4>
    72d6:	89 36       	cpi	r24, 0x69	; 105
    72d8:	09 f0       	breq	.+2      	; 0x72dc <vfprintf+0x1d4>
    72da:	77 c0       	rjmp	.+238    	; 0x73ca <vfprintf+0x2c2>
    72dc:	f8 01       	movw	r30, r16
    72de:	37 fe       	sbrs	r3, 7
    72e0:	6b c0       	rjmp	.+214    	; 0x73b8 <vfprintf+0x2b0>
    72e2:	60 81       	ld	r22, Z
    72e4:	71 81       	ldd	r23, Z+1	; 0x01
    72e6:	82 81       	ldd	r24, Z+2	; 0x02
    72e8:	93 81       	ldd	r25, Z+3	; 0x03
    72ea:	0c 5f       	subi	r16, 0xFC	; 252
    72ec:	1f 4f       	sbci	r17, 0xFF	; 255
    72ee:	f3 2d       	mov	r31, r3
    72f0:	ff 76       	andi	r31, 0x6F	; 111
    72f2:	3f 2e       	mov	r3, r31
    72f4:	97 ff       	sbrs	r25, 7
    72f6:	09 c0       	rjmp	.+18     	; 0x730a <vfprintf+0x202>
    72f8:	90 95       	com	r25
    72fa:	80 95       	com	r24
    72fc:	70 95       	com	r23
    72fe:	61 95       	neg	r22
    7300:	7f 4f       	sbci	r23, 0xFF	; 255
    7302:	8f 4f       	sbci	r24, 0xFF	; 255
    7304:	9f 4f       	sbci	r25, 0xFF	; 255
    7306:	68 94       	set
    7308:	37 f8       	bld	r3, 7
    730a:	2a e0       	ldi	r18, 0x0A	; 10
    730c:	30 e0       	ldi	r19, 0x00	; 0
    730e:	a5 01       	movw	r20, r10
    7310:	0e 94 a4 3a 	call	0x7548	; 0x7548 <__ultoa_invert>
    7314:	c8 2e       	mov	r12, r24
    7316:	ca 18       	sub	r12, r10
    7318:	8c 2c       	mov	r8, r12
    731a:	43 2c       	mov	r4, r3
    731c:	36 fe       	sbrs	r3, 6
    731e:	0c c0       	rjmp	.+24     	; 0x7338 <vfprintf+0x230>
    7320:	e8 94       	clt
    7322:	40 f8       	bld	r4, 0
    7324:	c9 14       	cp	r12, r9
    7326:	40 f4       	brcc	.+16     	; 0x7338 <vfprintf+0x230>
    7328:	34 fe       	sbrs	r3, 4
    732a:	05 c0       	rjmp	.+10     	; 0x7336 <vfprintf+0x22e>
    732c:	32 fc       	sbrc	r3, 2
    732e:	03 c0       	rjmp	.+6      	; 0x7336 <vfprintf+0x22e>
    7330:	f3 2d       	mov	r31, r3
    7332:	fe 7e       	andi	r31, 0xEE	; 238
    7334:	4f 2e       	mov	r4, r31
    7336:	89 2c       	mov	r8, r9
    7338:	44 fe       	sbrs	r4, 4
    733a:	95 c0       	rjmp	.+298    	; 0x7466 <vfprintf+0x35e>
    733c:	fe 01       	movw	r30, r28
    733e:	ec 0d       	add	r30, r12
    7340:	f1 1d       	adc	r31, r1
    7342:	80 81       	ld	r24, Z
    7344:	80 33       	cpi	r24, 0x30	; 48
    7346:	09 f0       	breq	.+2      	; 0x734a <vfprintf+0x242>
    7348:	87 c0       	rjmp	.+270    	; 0x7458 <vfprintf+0x350>
    734a:	24 2d       	mov	r18, r4
    734c:	29 7e       	andi	r18, 0xE9	; 233
    734e:	42 2e       	mov	r4, r18
    7350:	84 2d       	mov	r24, r4
    7352:	88 70       	andi	r24, 0x08	; 8
    7354:	58 2e       	mov	r5, r24
    7356:	43 fc       	sbrc	r4, 3
    7358:	95 c0       	rjmp	.+298    	; 0x7484 <vfprintf+0x37c>
    735a:	40 fe       	sbrs	r4, 0
    735c:	8f c0       	rjmp	.+286    	; 0x747c <vfprintf+0x374>
    735e:	9c 2c       	mov	r9, r12
    7360:	82 14       	cp	r8, r2
    7362:	18 f4       	brcc	.+6      	; 0x736a <vfprintf+0x262>
    7364:	2c 0c       	add	r2, r12
    7366:	92 2c       	mov	r9, r2
    7368:	98 18       	sub	r9, r8
    736a:	44 fe       	sbrs	r4, 4
    736c:	91 c0       	rjmp	.+290    	; 0x7490 <vfprintf+0x388>
    736e:	b7 01       	movw	r22, r14
    7370:	80 e3       	ldi	r24, 0x30	; 48
    7372:	90 e0       	ldi	r25, 0x00	; 0
    7374:	0e 94 74 3a 	call	0x74e8	; 0x74e8 <fputc>
    7378:	42 fe       	sbrs	r4, 2
    737a:	09 c0       	rjmp	.+18     	; 0x738e <vfprintf+0x286>
    737c:	88 e7       	ldi	r24, 0x78	; 120
    737e:	90 e0       	ldi	r25, 0x00	; 0
    7380:	41 fe       	sbrs	r4, 1
    7382:	02 c0       	rjmp	.+4      	; 0x7388 <vfprintf+0x280>
    7384:	88 e5       	ldi	r24, 0x58	; 88
    7386:	90 e0       	ldi	r25, 0x00	; 0
    7388:	b7 01       	movw	r22, r14
    738a:	0e 94 74 3a 	call	0x74e8	; 0x74e8 <fputc>
    738e:	c9 14       	cp	r12, r9
    7390:	08 f4       	brcc	.+2      	; 0x7394 <vfprintf+0x28c>
    7392:	8a c0       	rjmp	.+276    	; 0x74a8 <vfprintf+0x3a0>
    7394:	ca 94       	dec	r12
    7396:	d1 2c       	mov	r13, r1
    7398:	9f ef       	ldi	r25, 0xFF	; 255
    739a:	c9 1a       	sub	r12, r25
    739c:	d9 0a       	sbc	r13, r25
    739e:	ca 0c       	add	r12, r10
    73a0:	db 1c       	adc	r13, r11
    73a2:	f6 01       	movw	r30, r12
    73a4:	82 91       	ld	r24, -Z
    73a6:	6f 01       	movw	r12, r30
    73a8:	b7 01       	movw	r22, r14
    73aa:	90 e0       	ldi	r25, 0x00	; 0
    73ac:	0e 94 74 3a 	call	0x74e8	; 0x74e8 <fputc>
    73b0:	ac 14       	cp	r10, r12
    73b2:	bd 04       	cpc	r11, r13
    73b4:	b1 f7       	brne	.-20     	; 0x73a2 <vfprintf+0x29a>
    73b6:	4f cf       	rjmp	.-354    	; 0x7256 <vfprintf+0x14e>
    73b8:	60 81       	ld	r22, Z
    73ba:	71 81       	ldd	r23, Z+1	; 0x01
    73bc:	07 2e       	mov	r0, r23
    73be:	00 0c       	add	r0, r0
    73c0:	88 0b       	sbc	r24, r24
    73c2:	99 0b       	sbc	r25, r25
    73c4:	0e 5f       	subi	r16, 0xFE	; 254
    73c6:	1f 4f       	sbci	r17, 0xFF	; 255
    73c8:	92 cf       	rjmp	.-220    	; 0x72ee <vfprintf+0x1e6>
    73ca:	d3 2c       	mov	r13, r3
    73cc:	e8 94       	clt
    73ce:	d4 f8       	bld	r13, 4
    73d0:	2a e0       	ldi	r18, 0x0A	; 10
    73d2:	30 e0       	ldi	r19, 0x00	; 0
    73d4:	85 37       	cpi	r24, 0x75	; 117
    73d6:	39 f1       	breq	.+78     	; 0x7426 <vfprintf+0x31e>
    73d8:	23 2d       	mov	r18, r3
    73da:	29 7f       	andi	r18, 0xF9	; 249
    73dc:	d2 2e       	mov	r13, r18
    73de:	8f 36       	cpi	r24, 0x6F	; 111
    73e0:	01 f1       	breq	.+64     	; 0x7422 <vfprintf+0x31a>
    73e2:	48 f4       	brcc	.+18     	; 0x73f6 <vfprintf+0x2ee>
    73e4:	88 35       	cpi	r24, 0x58	; 88
    73e6:	a9 f0       	breq	.+42     	; 0x7412 <vfprintf+0x30a>
    73e8:	f7 01       	movw	r30, r14
    73ea:	86 81       	ldd	r24, Z+6	; 0x06
    73ec:	97 81       	ldd	r25, Z+7	; 0x07
    73ee:	2b 96       	adiw	r28, 0x0b	; 11
    73f0:	e2 e1       	ldi	r30, 0x12	; 18
    73f2:	0c 94 87 3b 	jmp	0x770e	; 0x770e <__epilogue_restores__>
    73f6:	80 37       	cpi	r24, 0x70	; 112
    73f8:	49 f0       	breq	.+18     	; 0x740c <vfprintf+0x304>
    73fa:	88 37       	cpi	r24, 0x78	; 120
    73fc:	a9 f7       	brne	.-22     	; 0x73e8 <vfprintf+0x2e0>
    73fe:	d4 fe       	sbrs	r13, 4
    7400:	02 c0       	rjmp	.+4      	; 0x7406 <vfprintf+0x2fe>
    7402:	68 94       	set
    7404:	d2 f8       	bld	r13, 2
    7406:	20 e1       	ldi	r18, 0x10	; 16
    7408:	30 e0       	ldi	r19, 0x00	; 0
    740a:	0d c0       	rjmp	.+26     	; 0x7426 <vfprintf+0x31e>
    740c:	68 94       	set
    740e:	d4 f8       	bld	r13, 4
    7410:	f6 cf       	rjmp	.-20     	; 0x73fe <vfprintf+0x2f6>
    7412:	34 fe       	sbrs	r3, 4
    7414:	03 c0       	rjmp	.+6      	; 0x741c <vfprintf+0x314>
    7416:	82 2f       	mov	r24, r18
    7418:	86 60       	ori	r24, 0x06	; 6
    741a:	d8 2e       	mov	r13, r24
    741c:	20 e1       	ldi	r18, 0x10	; 16
    741e:	32 e0       	ldi	r19, 0x02	; 2
    7420:	02 c0       	rjmp	.+4      	; 0x7426 <vfprintf+0x31e>
    7422:	28 e0       	ldi	r18, 0x08	; 8
    7424:	30 e0       	ldi	r19, 0x00	; 0
    7426:	f8 01       	movw	r30, r16
    7428:	d7 fe       	sbrs	r13, 7
    742a:	0f c0       	rjmp	.+30     	; 0x744a <vfprintf+0x342>
    742c:	60 81       	ld	r22, Z
    742e:	71 81       	ldd	r23, Z+1	; 0x01
    7430:	82 81       	ldd	r24, Z+2	; 0x02
    7432:	93 81       	ldd	r25, Z+3	; 0x03
    7434:	0c 5f       	subi	r16, 0xFC	; 252
    7436:	1f 4f       	sbci	r17, 0xFF	; 255
    7438:	a5 01       	movw	r20, r10
    743a:	0e 94 a4 3a 	call	0x7548	; 0x7548 <__ultoa_invert>
    743e:	c8 2e       	mov	r12, r24
    7440:	ca 18       	sub	r12, r10
    7442:	3d 2c       	mov	r3, r13
    7444:	e8 94       	clt
    7446:	37 f8       	bld	r3, 7
    7448:	67 cf       	rjmp	.-306    	; 0x7318 <vfprintf+0x210>
    744a:	60 81       	ld	r22, Z
    744c:	71 81       	ldd	r23, Z+1	; 0x01
    744e:	90 e0       	ldi	r25, 0x00	; 0
    7450:	80 e0       	ldi	r24, 0x00	; 0
    7452:	0e 5f       	subi	r16, 0xFE	; 254
    7454:	1f 4f       	sbci	r17, 0xFF	; 255
    7456:	f0 cf       	rjmp	.-32     	; 0x7438 <vfprintf+0x330>
    7458:	42 fc       	sbrc	r4, 2
    745a:	02 c0       	rjmp	.+4      	; 0x7460 <vfprintf+0x358>
    745c:	83 94       	inc	r8
    745e:	78 cf       	rjmp	.-272    	; 0x7350 <vfprintf+0x248>
    7460:	83 94       	inc	r8
    7462:	83 94       	inc	r8
    7464:	75 cf       	rjmp	.-278    	; 0x7350 <vfprintf+0x248>
    7466:	84 2d       	mov	r24, r4
    7468:	86 78       	andi	r24, 0x86	; 134
    746a:	09 f4       	brne	.+2      	; 0x746e <vfprintf+0x366>
    746c:	71 cf       	rjmp	.-286    	; 0x7350 <vfprintf+0x248>
    746e:	f6 cf       	rjmp	.-20     	; 0x745c <vfprintf+0x354>
    7470:	b7 01       	movw	r22, r14
    7472:	80 e2       	ldi	r24, 0x20	; 32
    7474:	90 e0       	ldi	r25, 0x00	; 0
    7476:	0e 94 74 3a 	call	0x74e8	; 0x74e8 <fputc>
    747a:	83 94       	inc	r8
    747c:	82 14       	cp	r8, r2
    747e:	c0 f3       	brcs	.-16     	; 0x7470 <vfprintf+0x368>
    7480:	51 2c       	mov	r5, r1
    7482:	73 cf       	rjmp	.-282    	; 0x736a <vfprintf+0x262>
    7484:	52 2c       	mov	r5, r2
    7486:	58 18       	sub	r5, r8
    7488:	82 14       	cp	r8, r2
    748a:	08 f4       	brcc	.+2      	; 0x748e <vfprintf+0x386>
    748c:	6e cf       	rjmp	.-292    	; 0x736a <vfprintf+0x262>
    748e:	f8 cf       	rjmp	.-16     	; 0x7480 <vfprintf+0x378>
    7490:	84 2d       	mov	r24, r4
    7492:	86 78       	andi	r24, 0x86	; 134
    7494:	09 f4       	brne	.+2      	; 0x7498 <vfprintf+0x390>
    7496:	7b cf       	rjmp	.-266    	; 0x738e <vfprintf+0x286>
    7498:	8b e2       	ldi	r24, 0x2B	; 43
    749a:	41 fe       	sbrs	r4, 1
    749c:	80 e2       	ldi	r24, 0x20	; 32
    749e:	47 fc       	sbrc	r4, 7
    74a0:	8d e2       	ldi	r24, 0x2D	; 45
    74a2:	b7 01       	movw	r22, r14
    74a4:	90 e0       	ldi	r25, 0x00	; 0
    74a6:	71 cf       	rjmp	.-286    	; 0x738a <vfprintf+0x282>
    74a8:	b7 01       	movw	r22, r14
    74aa:	80 e3       	ldi	r24, 0x30	; 48
    74ac:	90 e0       	ldi	r25, 0x00	; 0
    74ae:	0e 94 74 3a 	call	0x74e8	; 0x74e8 <fputc>
    74b2:	9a 94       	dec	r9
    74b4:	6c cf       	rjmp	.-296    	; 0x738e <vfprintf+0x286>
    74b6:	8f ef       	ldi	r24, 0xFF	; 255
    74b8:	9f ef       	ldi	r25, 0xFF	; 255
    74ba:	99 cf       	rjmp	.-206    	; 0x73ee <vfprintf+0x2e6>

000074bc <strnlen_P>:
    74bc:	fc 01       	movw	r30, r24
    74be:	05 90       	lpm	r0, Z+
    74c0:	61 50       	subi	r22, 0x01	; 1
    74c2:	70 40       	sbci	r23, 0x00	; 0
    74c4:	01 10       	cpse	r0, r1
    74c6:	d8 f7       	brcc	.-10     	; 0x74be <strnlen_P+0x2>
    74c8:	80 95       	com	r24
    74ca:	90 95       	com	r25
    74cc:	8e 0f       	add	r24, r30
    74ce:	9f 1f       	adc	r25, r31
    74d0:	08 95       	ret

000074d2 <strnlen>:
    74d2:	fc 01       	movw	r30, r24
    74d4:	61 50       	subi	r22, 0x01	; 1
    74d6:	70 40       	sbci	r23, 0x00	; 0
    74d8:	01 90       	ld	r0, Z+
    74da:	01 10       	cpse	r0, r1
    74dc:	d8 f7       	brcc	.-10     	; 0x74d4 <strnlen+0x2>
    74de:	80 95       	com	r24
    74e0:	90 95       	com	r25
    74e2:	8e 0f       	add	r24, r30
    74e4:	9f 1f       	adc	r25, r31
    74e6:	08 95       	ret

000074e8 <fputc>:
    74e8:	0f 93       	push	r16
    74ea:	1f 93       	push	r17
    74ec:	cf 93       	push	r28
    74ee:	df 93       	push	r29
    74f0:	18 2f       	mov	r17, r24
    74f2:	09 2f       	mov	r16, r25
    74f4:	eb 01       	movw	r28, r22
    74f6:	8b 81       	ldd	r24, Y+3	; 0x03
    74f8:	81 fd       	sbrc	r24, 1
    74fa:	09 c0       	rjmp	.+18     	; 0x750e <fputc+0x26>
    74fc:	1f ef       	ldi	r17, 0xFF	; 255
    74fe:	0f ef       	ldi	r16, 0xFF	; 255
    7500:	81 2f       	mov	r24, r17
    7502:	90 2f       	mov	r25, r16
    7504:	df 91       	pop	r29
    7506:	cf 91       	pop	r28
    7508:	1f 91       	pop	r17
    750a:	0f 91       	pop	r16
    750c:	08 95       	ret
    750e:	82 ff       	sbrs	r24, 2
    7510:	14 c0       	rjmp	.+40     	; 0x753a <fputc+0x52>
    7512:	2e 81       	ldd	r18, Y+6	; 0x06
    7514:	3f 81       	ldd	r19, Y+7	; 0x07
    7516:	8c 81       	ldd	r24, Y+4	; 0x04
    7518:	9d 81       	ldd	r25, Y+5	; 0x05
    751a:	28 17       	cp	r18, r24
    751c:	39 07       	cpc	r19, r25
    751e:	3c f4       	brge	.+14     	; 0x752e <fputc+0x46>
    7520:	e8 81       	ld	r30, Y
    7522:	f9 81       	ldd	r31, Y+1	; 0x01
    7524:	cf 01       	movw	r24, r30
    7526:	01 96       	adiw	r24, 0x01	; 1
    7528:	99 83       	std	Y+1, r25	; 0x01
    752a:	88 83       	st	Y, r24
    752c:	10 83       	st	Z, r17
    752e:	8e 81       	ldd	r24, Y+6	; 0x06
    7530:	9f 81       	ldd	r25, Y+7	; 0x07
    7532:	01 96       	adiw	r24, 0x01	; 1
    7534:	9f 83       	std	Y+7, r25	; 0x07
    7536:	8e 83       	std	Y+6, r24	; 0x06
    7538:	e3 cf       	rjmp	.-58     	; 0x7500 <fputc+0x18>
    753a:	e8 85       	ldd	r30, Y+8	; 0x08
    753c:	f9 85       	ldd	r31, Y+9	; 0x09
    753e:	81 2f       	mov	r24, r17
    7540:	09 95       	icall
    7542:	89 2b       	or	r24, r25
    7544:	a1 f3       	breq	.-24     	; 0x752e <fputc+0x46>
    7546:	da cf       	rjmp	.-76     	; 0x74fc <fputc+0x14>

00007548 <__ultoa_invert>:
    7548:	fa 01       	movw	r30, r20
    754a:	aa 27       	eor	r26, r26
    754c:	28 30       	cpi	r18, 0x08	; 8
    754e:	51 f1       	breq	.+84     	; 0x75a4 <__ultoa_invert+0x5c>
    7550:	20 31       	cpi	r18, 0x10	; 16
    7552:	81 f1       	breq	.+96     	; 0x75b4 <__ultoa_invert+0x6c>
    7554:	e8 94       	clt
    7556:	6f 93       	push	r22
    7558:	6e 7f       	andi	r22, 0xFE	; 254
    755a:	6e 5f       	subi	r22, 0xFE	; 254
    755c:	7f 4f       	sbci	r23, 0xFF	; 255
    755e:	8f 4f       	sbci	r24, 0xFF	; 255
    7560:	9f 4f       	sbci	r25, 0xFF	; 255
    7562:	af 4f       	sbci	r26, 0xFF	; 255
    7564:	b1 e0       	ldi	r27, 0x01	; 1
    7566:	3e d0       	rcall	.+124    	; 0x75e4 <__ultoa_invert+0x9c>
    7568:	b4 e0       	ldi	r27, 0x04	; 4
    756a:	3c d0       	rcall	.+120    	; 0x75e4 <__ultoa_invert+0x9c>
    756c:	67 0f       	add	r22, r23
    756e:	78 1f       	adc	r23, r24
    7570:	89 1f       	adc	r24, r25
    7572:	9a 1f       	adc	r25, r26
    7574:	a1 1d       	adc	r26, r1
    7576:	68 0f       	add	r22, r24
    7578:	79 1f       	adc	r23, r25
    757a:	8a 1f       	adc	r24, r26
    757c:	91 1d       	adc	r25, r1
    757e:	a1 1d       	adc	r26, r1
    7580:	6a 0f       	add	r22, r26
    7582:	71 1d       	adc	r23, r1
    7584:	81 1d       	adc	r24, r1
    7586:	91 1d       	adc	r25, r1
    7588:	a1 1d       	adc	r26, r1
    758a:	20 d0       	rcall	.+64     	; 0x75cc <__ultoa_invert+0x84>
    758c:	09 f4       	brne	.+2      	; 0x7590 <__ultoa_invert+0x48>
    758e:	68 94       	set
    7590:	3f 91       	pop	r19
    7592:	2a e0       	ldi	r18, 0x0A	; 10
    7594:	26 9f       	mul	r18, r22
    7596:	11 24       	eor	r1, r1
    7598:	30 19       	sub	r19, r0
    759a:	30 5d       	subi	r19, 0xD0	; 208
    759c:	31 93       	st	Z+, r19
    759e:	de f6       	brtc	.-74     	; 0x7556 <__ultoa_invert+0xe>
    75a0:	cf 01       	movw	r24, r30
    75a2:	08 95       	ret
    75a4:	46 2f       	mov	r20, r22
    75a6:	47 70       	andi	r20, 0x07	; 7
    75a8:	40 5d       	subi	r20, 0xD0	; 208
    75aa:	41 93       	st	Z+, r20
    75ac:	b3 e0       	ldi	r27, 0x03	; 3
    75ae:	0f d0       	rcall	.+30     	; 0x75ce <__ultoa_invert+0x86>
    75b0:	c9 f7       	brne	.-14     	; 0x75a4 <__ultoa_invert+0x5c>
    75b2:	f6 cf       	rjmp	.-20     	; 0x75a0 <__ultoa_invert+0x58>
    75b4:	46 2f       	mov	r20, r22
    75b6:	4f 70       	andi	r20, 0x0F	; 15
    75b8:	40 5d       	subi	r20, 0xD0	; 208
    75ba:	4a 33       	cpi	r20, 0x3A	; 58
    75bc:	18 f0       	brcs	.+6      	; 0x75c4 <__ultoa_invert+0x7c>
    75be:	49 5d       	subi	r20, 0xD9	; 217
    75c0:	31 fd       	sbrc	r19, 1
    75c2:	40 52       	subi	r20, 0x20	; 32
    75c4:	41 93       	st	Z+, r20
    75c6:	02 d0       	rcall	.+4      	; 0x75cc <__ultoa_invert+0x84>
    75c8:	a9 f7       	brne	.-22     	; 0x75b4 <__ultoa_invert+0x6c>
    75ca:	ea cf       	rjmp	.-44     	; 0x75a0 <__ultoa_invert+0x58>
    75cc:	b4 e0       	ldi	r27, 0x04	; 4
    75ce:	a6 95       	lsr	r26
    75d0:	97 95       	ror	r25
    75d2:	87 95       	ror	r24
    75d4:	77 95       	ror	r23
    75d6:	67 95       	ror	r22
    75d8:	ba 95       	dec	r27
    75da:	c9 f7       	brne	.-14     	; 0x75ce <__ultoa_invert+0x86>
    75dc:	00 97       	sbiw	r24, 0x00	; 0
    75de:	61 05       	cpc	r22, r1
    75e0:	71 05       	cpc	r23, r1
    75e2:	08 95       	ret
    75e4:	9b 01       	movw	r18, r22
    75e6:	ac 01       	movw	r20, r24
    75e8:	0a 2e       	mov	r0, r26
    75ea:	06 94       	lsr	r0
    75ec:	57 95       	ror	r21
    75ee:	47 95       	ror	r20
    75f0:	37 95       	ror	r19
    75f2:	27 95       	ror	r18
    75f4:	ba 95       	dec	r27
    75f6:	c9 f7       	brne	.-14     	; 0x75ea <__ultoa_invert+0xa2>
    75f8:	62 0f       	add	r22, r18
    75fa:	73 1f       	adc	r23, r19
    75fc:	84 1f       	adc	r24, r20
    75fe:	95 1f       	adc	r25, r21
    7600:	a0 1d       	adc	r26, r0
    7602:	08 95       	ret

00007604 <eeprom_read_block>:
    7604:	dc 01       	movw	r26, r24
    7606:	cb 01       	movw	r24, r22

00007608 <eeprom_read_blraw>:
    7608:	fc 01       	movw	r30, r24
    760a:	f9 99       	sbic	0x1f, 1	; 31
    760c:	fe cf       	rjmp	.-4      	; 0x760a <eeprom_read_blraw+0x2>
    760e:	06 c0       	rjmp	.+12     	; 0x761c <eeprom_read_blraw+0x14>
    7610:	f2 bd       	out	0x22, r31	; 34
    7612:	e1 bd       	out	0x21, r30	; 33
    7614:	f8 9a       	sbi	0x1f, 0	; 31
    7616:	31 96       	adiw	r30, 0x01	; 1
    7618:	00 b4       	in	r0, 0x20	; 32
    761a:	0d 92       	st	X+, r0
    761c:	41 50       	subi	r20, 0x01	; 1
    761e:	50 40       	sbci	r21, 0x00	; 0
    7620:	b8 f7       	brcc	.-18     	; 0x7610 <eeprom_read_blraw+0x8>
    7622:	08 95       	ret

00007624 <eeprom_read_dword>:
    7624:	a6 e1       	ldi	r26, 0x16	; 22
    7626:	b0 e0       	ldi	r27, 0x00	; 0
    7628:	44 e0       	ldi	r20, 0x04	; 4
    762a:	50 e0       	ldi	r21, 0x00	; 0
    762c:	0c 94 04 3b 	jmp	0x7608	; 0x7608 <eeprom_read_blraw>

00007630 <eeprom_read_word>:
    7630:	a8 e1       	ldi	r26, 0x18	; 24
    7632:	b0 e0       	ldi	r27, 0x00	; 0
    7634:	42 e0       	ldi	r20, 0x02	; 2
    7636:	50 e0       	ldi	r21, 0x00	; 0
    7638:	0c 94 04 3b 	jmp	0x7608	; 0x7608 <eeprom_read_blraw>

0000763c <eeprom_write_dword>:
    763c:	24 2f       	mov	r18, r20
    763e:	0e 94 2c 3b 	call	0x7658	; 0x7658 <eeprom_write_r18>
    7642:	25 2f       	mov	r18, r21
    7644:	0e 94 2c 3b 	call	0x7658	; 0x7658 <eeprom_write_r18>
    7648:	0c 94 26 3b 	jmp	0x764c	; 0x764c <eeprom_write_word>

0000764c <eeprom_write_word>:
    764c:	0e 94 2b 3b 	call	0x7656	; 0x7656 <eeprom_write_byte>
    7650:	27 2f       	mov	r18, r23
    7652:	0c 94 2c 3b 	jmp	0x7658	; 0x7658 <eeprom_write_r18>

00007656 <eeprom_write_byte>:
    7656:	26 2f       	mov	r18, r22

00007658 <eeprom_write_r18>:
    7658:	f9 99       	sbic	0x1f, 1	; 31
    765a:	fe cf       	rjmp	.-4      	; 0x7658 <eeprom_write_r18>
    765c:	1f ba       	out	0x1f, r1	; 31
    765e:	92 bd       	out	0x22, r25	; 34
    7660:	81 bd       	out	0x21, r24	; 33
    7662:	20 bd       	out	0x20, r18	; 32
    7664:	0f b6       	in	r0, 0x3f	; 63
    7666:	f8 94       	cli
    7668:	fa 9a       	sbi	0x1f, 2	; 31
    766a:	f9 9a       	sbi	0x1f, 1	; 31
    766c:	0f be       	out	0x3f, r0	; 63
    766e:	01 96       	adiw	r24, 0x01	; 1
    7670:	08 95       	ret

00007672 <__divmodsi4>:
    7672:	05 2e       	mov	r0, r21
    7674:	97 fb       	bst	r25, 7
    7676:	1e f4       	brtc	.+6      	; 0x767e <__divmodsi4+0xc>
    7678:	00 94       	com	r0
    767a:	0e 94 50 3b 	call	0x76a0	; 0x76a0 <__negsi2>
    767e:	57 fd       	sbrc	r21, 7
    7680:	07 d0       	rcall	.+14     	; 0x7690 <__divmodsi4_neg2>
    7682:	0e 94 a2 3b 	call	0x7744	; 0x7744 <__udivmodsi4>
    7686:	07 fc       	sbrc	r0, 7
    7688:	03 d0       	rcall	.+6      	; 0x7690 <__divmodsi4_neg2>
    768a:	4e f4       	brtc	.+18     	; 0x769e <__divmodsi4_exit>
    768c:	0c 94 50 3b 	jmp	0x76a0	; 0x76a0 <__negsi2>

00007690 <__divmodsi4_neg2>:
    7690:	50 95       	com	r21
    7692:	40 95       	com	r20
    7694:	30 95       	com	r19
    7696:	21 95       	neg	r18
    7698:	3f 4f       	sbci	r19, 0xFF	; 255
    769a:	4f 4f       	sbci	r20, 0xFF	; 255
    769c:	5f 4f       	sbci	r21, 0xFF	; 255

0000769e <__divmodsi4_exit>:
    769e:	08 95       	ret

000076a0 <__negsi2>:
    76a0:	90 95       	com	r25
    76a2:	80 95       	com	r24
    76a4:	70 95       	com	r23
    76a6:	61 95       	neg	r22
    76a8:	7f 4f       	sbci	r23, 0xFF	; 255
    76aa:	8f 4f       	sbci	r24, 0xFF	; 255
    76ac:	9f 4f       	sbci	r25, 0xFF	; 255
    76ae:	08 95       	ret

000076b0 <__muluhisi3>:
    76b0:	0e 94 c4 3b 	call	0x7788	; 0x7788 <__umulhisi3>
    76b4:	a5 9f       	mul	r26, r21
    76b6:	90 0d       	add	r25, r0
    76b8:	b4 9f       	mul	r27, r20
    76ba:	90 0d       	add	r25, r0
    76bc:	a4 9f       	mul	r26, r20
    76be:	80 0d       	add	r24, r0
    76c0:	91 1d       	adc	r25, r1
    76c2:	11 24       	eor	r1, r1
    76c4:	08 95       	ret

000076c6 <__mulshisi3>:
    76c6:	b7 ff       	sbrs	r27, 7
    76c8:	0c 94 58 3b 	jmp	0x76b0	; 0x76b0 <__muluhisi3>

000076cc <__mulohisi3>:
    76cc:	0e 94 58 3b 	call	0x76b0	; 0x76b0 <__muluhisi3>
    76d0:	82 1b       	sub	r24, r18
    76d2:	93 0b       	sbc	r25, r19
    76d4:	08 95       	ret

000076d6 <__prologue_saves__>:
    76d6:	2f 92       	push	r2
    76d8:	3f 92       	push	r3
    76da:	4f 92       	push	r4
    76dc:	5f 92       	push	r5
    76de:	6f 92       	push	r6
    76e0:	7f 92       	push	r7
    76e2:	8f 92       	push	r8
    76e4:	9f 92       	push	r9
    76e6:	af 92       	push	r10
    76e8:	bf 92       	push	r11
    76ea:	cf 92       	push	r12
    76ec:	df 92       	push	r13
    76ee:	ef 92       	push	r14
    76f0:	ff 92       	push	r15
    76f2:	0f 93       	push	r16
    76f4:	1f 93       	push	r17
    76f6:	cf 93       	push	r28
    76f8:	df 93       	push	r29
    76fa:	cd b7       	in	r28, 0x3d	; 61
    76fc:	de b7       	in	r29, 0x3e	; 62
    76fe:	ca 1b       	sub	r28, r26
    7700:	db 0b       	sbc	r29, r27
    7702:	0f b6       	in	r0, 0x3f	; 63
    7704:	f8 94       	cli
    7706:	de bf       	out	0x3e, r29	; 62
    7708:	0f be       	out	0x3f, r0	; 63
    770a:	cd bf       	out	0x3d, r28	; 61
    770c:	09 94       	ijmp

0000770e <__epilogue_restores__>:
    770e:	2a 88       	ldd	r2, Y+18	; 0x12
    7710:	39 88       	ldd	r3, Y+17	; 0x11
    7712:	48 88       	ldd	r4, Y+16	; 0x10
    7714:	5f 84       	ldd	r5, Y+15	; 0x0f
    7716:	6e 84       	ldd	r6, Y+14	; 0x0e
    7718:	7d 84       	ldd	r7, Y+13	; 0x0d
    771a:	8c 84       	ldd	r8, Y+12	; 0x0c
    771c:	9b 84       	ldd	r9, Y+11	; 0x0b
    771e:	aa 84       	ldd	r10, Y+10	; 0x0a
    7720:	b9 84       	ldd	r11, Y+9	; 0x09
    7722:	c8 84       	ldd	r12, Y+8	; 0x08
    7724:	df 80       	ldd	r13, Y+7	; 0x07
    7726:	ee 80       	ldd	r14, Y+6	; 0x06
    7728:	fd 80       	ldd	r15, Y+5	; 0x05
    772a:	0c 81       	ldd	r16, Y+4	; 0x04
    772c:	1b 81       	ldd	r17, Y+3	; 0x03
    772e:	aa 81       	ldd	r26, Y+2	; 0x02
    7730:	b9 81       	ldd	r27, Y+1	; 0x01
    7732:	ce 0f       	add	r28, r30
    7734:	d1 1d       	adc	r29, r1
    7736:	0f b6       	in	r0, 0x3f	; 63
    7738:	f8 94       	cli
    773a:	de bf       	out	0x3e, r29	; 62
    773c:	0f be       	out	0x3f, r0	; 63
    773e:	cd bf       	out	0x3d, r28	; 61
    7740:	ed 01       	movw	r28, r26
    7742:	08 95       	ret

00007744 <__udivmodsi4>:
    7744:	a1 e2       	ldi	r26, 0x21	; 33
    7746:	1a 2e       	mov	r1, r26
    7748:	aa 1b       	sub	r26, r26
    774a:	bb 1b       	sub	r27, r27
    774c:	fd 01       	movw	r30, r26
    774e:	0d c0       	rjmp	.+26     	; 0x776a <__udivmodsi4_ep>

00007750 <__udivmodsi4_loop>:
    7750:	aa 1f       	adc	r26, r26
    7752:	bb 1f       	adc	r27, r27
    7754:	ee 1f       	adc	r30, r30
    7756:	ff 1f       	adc	r31, r31
    7758:	a2 17       	cp	r26, r18
    775a:	b3 07       	cpc	r27, r19
    775c:	e4 07       	cpc	r30, r20
    775e:	f5 07       	cpc	r31, r21
    7760:	20 f0       	brcs	.+8      	; 0x776a <__udivmodsi4_ep>
    7762:	a2 1b       	sub	r26, r18
    7764:	b3 0b       	sbc	r27, r19
    7766:	e4 0b       	sbc	r30, r20
    7768:	f5 0b       	sbc	r31, r21

0000776a <__udivmodsi4_ep>:
    776a:	66 1f       	adc	r22, r22
    776c:	77 1f       	adc	r23, r23
    776e:	88 1f       	adc	r24, r24
    7770:	99 1f       	adc	r25, r25
    7772:	1a 94       	dec	r1
    7774:	69 f7       	brne	.-38     	; 0x7750 <__udivmodsi4_loop>
    7776:	60 95       	com	r22
    7778:	70 95       	com	r23
    777a:	80 95       	com	r24
    777c:	90 95       	com	r25
    777e:	9b 01       	movw	r18, r22
    7780:	ac 01       	movw	r20, r24
    7782:	bd 01       	movw	r22, r26
    7784:	cf 01       	movw	r24, r30
    7786:	08 95       	ret

00007788 <__umulhisi3>:
    7788:	a2 9f       	mul	r26, r18
    778a:	b0 01       	movw	r22, r0
    778c:	b3 9f       	mul	r27, r19
    778e:	c0 01       	movw	r24, r0
    7790:	a3 9f       	mul	r26, r19
    7792:	70 0d       	add	r23, r0
    7794:	81 1d       	adc	r24, r1
    7796:	11 24       	eor	r1, r1
    7798:	91 1d       	adc	r25, r1
    779a:	b2 9f       	mul	r27, r18
    779c:	70 0d       	add	r23, r0
    779e:	81 1d       	adc	r24, r1
    77a0:	11 24       	eor	r1, r1
    77a2:	91 1d       	adc	r25, r1
    77a4:	08 95       	ret

000077a6 <__mulsi3>:
    77a6:	db 01       	movw	r26, r22
    77a8:	8f 93       	push	r24
    77aa:	9f 93       	push	r25
    77ac:	0e 94 58 3b 	call	0x76b0	; 0x76b0 <__muluhisi3>
    77b0:	bf 91       	pop	r27
    77b2:	af 91       	pop	r26
    77b4:	a2 9f       	mul	r26, r18
    77b6:	80 0d       	add	r24, r0
    77b8:	91 1d       	adc	r25, r1
    77ba:	a3 9f       	mul	r26, r19
    77bc:	90 0d       	add	r25, r0
    77be:	b2 9f       	mul	r27, r18
    77c0:	90 0d       	add	r25, r0
    77c2:	11 24       	eor	r1, r1
    77c4:	08 95       	ret

000077c6 <__udivmodqi4>:
    77c6:	99 1b       	sub	r25, r25
    77c8:	79 e0       	ldi	r23, 0x09	; 9
    77ca:	04 c0       	rjmp	.+8      	; 0x77d4 <__udivmodqi4_ep>

000077cc <__udivmodqi4_loop>:
    77cc:	99 1f       	adc	r25, r25
    77ce:	96 17       	cp	r25, r22
    77d0:	08 f0       	brcs	.+2      	; 0x77d4 <__udivmodqi4_ep>
    77d2:	96 1b       	sub	r25, r22

000077d4 <__udivmodqi4_ep>:
    77d4:	88 1f       	adc	r24, r24
    77d6:	7a 95       	dec	r23
    77d8:	c9 f7       	brne	.-14     	; 0x77cc <__udivmodqi4_loop>
    77da:	80 95       	com	r24
    77dc:	08 95       	ret

000077de <__usmulhisi3>:
    77de:	0e 94 c4 3b 	call	0x7788	; 0x7788 <__umulhisi3>

000077e2 <__usmulhisi3_tail>:
    77e2:	b7 ff       	sbrs	r27, 7
    77e4:	08 95       	ret
    77e6:	82 1b       	sub	r24, r18
    77e8:	93 0b       	sbc	r25, r19
    77ea:	08 95       	ret

000077ec <__tablejump2__>:
    77ec:	ee 0f       	add	r30, r30
    77ee:	ff 1f       	adc	r31, r31
    77f0:	05 90       	lpm	r0, Z+
    77f2:	f4 91       	lpm	r31, Z
    77f4:	e0 2d       	mov	r30, r0
    77f6:	09 94       	ijmp

000077f8 <__subsf3>:
    77f8:	50 58       	subi	r21, 0x80	; 128

000077fa <__addsf3>:
    77fa:	bb 27       	eor	r27, r27
    77fc:	aa 27       	eor	r26, r26
    77fe:	0e 94 14 3c 	call	0x7828	; 0x7828 <__addsf3x>
    7802:	0c 94 8e 3d 	jmp	0x7b1c	; 0x7b1c <__fp_round>
    7806:	0e 94 80 3d 	call	0x7b00	; 0x7b00 <__fp_pscA>
    780a:	38 f0       	brcs	.+14     	; 0x781a <__addsf3+0x20>
    780c:	0e 94 87 3d 	call	0x7b0e	; 0x7b0e <__fp_pscB>
    7810:	20 f0       	brcs	.+8      	; 0x781a <__addsf3+0x20>
    7812:	39 f4       	brne	.+14     	; 0x7822 <__addsf3+0x28>
    7814:	9f 3f       	cpi	r25, 0xFF	; 255
    7816:	19 f4       	brne	.+6      	; 0x781e <__addsf3+0x24>
    7818:	26 f4       	brtc	.+8      	; 0x7822 <__addsf3+0x28>
    781a:	0c 94 7d 3d 	jmp	0x7afa	; 0x7afa <__fp_nan>
    781e:	0e f4       	brtc	.+2      	; 0x7822 <__addsf3+0x28>
    7820:	e0 95       	com	r30
    7822:	e7 fb       	bst	r30, 7
    7824:	0c 94 77 3d 	jmp	0x7aee	; 0x7aee <__fp_inf>

00007828 <__addsf3x>:
    7828:	e9 2f       	mov	r30, r25
    782a:	0e 94 9f 3d 	call	0x7b3e	; 0x7b3e <__fp_split3>
    782e:	58 f3       	brcs	.-42     	; 0x7806 <__addsf3+0xc>
    7830:	ba 17       	cp	r27, r26
    7832:	62 07       	cpc	r22, r18
    7834:	73 07       	cpc	r23, r19
    7836:	84 07       	cpc	r24, r20
    7838:	95 07       	cpc	r25, r21
    783a:	20 f0       	brcs	.+8      	; 0x7844 <__addsf3x+0x1c>
    783c:	79 f4       	brne	.+30     	; 0x785c <__addsf3x+0x34>
    783e:	a6 f5       	brtc	.+104    	; 0x78a8 <__addsf3x+0x80>
    7840:	0c 94 c1 3d 	jmp	0x7b82	; 0x7b82 <__fp_zero>
    7844:	0e f4       	brtc	.+2      	; 0x7848 <__addsf3x+0x20>
    7846:	e0 95       	com	r30
    7848:	0b 2e       	mov	r0, r27
    784a:	ba 2f       	mov	r27, r26
    784c:	a0 2d       	mov	r26, r0
    784e:	0b 01       	movw	r0, r22
    7850:	b9 01       	movw	r22, r18
    7852:	90 01       	movw	r18, r0
    7854:	0c 01       	movw	r0, r24
    7856:	ca 01       	movw	r24, r20
    7858:	a0 01       	movw	r20, r0
    785a:	11 24       	eor	r1, r1
    785c:	ff 27       	eor	r31, r31
    785e:	59 1b       	sub	r21, r25
    7860:	99 f0       	breq	.+38     	; 0x7888 <__addsf3x+0x60>
    7862:	59 3f       	cpi	r21, 0xF9	; 249
    7864:	50 f4       	brcc	.+20     	; 0x787a <__addsf3x+0x52>
    7866:	50 3e       	cpi	r21, 0xE0	; 224
    7868:	68 f1       	brcs	.+90     	; 0x78c4 <__addsf3x+0x9c>
    786a:	1a 16       	cp	r1, r26
    786c:	f0 40       	sbci	r31, 0x00	; 0
    786e:	a2 2f       	mov	r26, r18
    7870:	23 2f       	mov	r18, r19
    7872:	34 2f       	mov	r19, r20
    7874:	44 27       	eor	r20, r20
    7876:	58 5f       	subi	r21, 0xF8	; 248
    7878:	f3 cf       	rjmp	.-26     	; 0x7860 <__addsf3x+0x38>
    787a:	46 95       	lsr	r20
    787c:	37 95       	ror	r19
    787e:	27 95       	ror	r18
    7880:	a7 95       	ror	r26
    7882:	f0 40       	sbci	r31, 0x00	; 0
    7884:	53 95       	inc	r21
    7886:	c9 f7       	brne	.-14     	; 0x787a <__addsf3x+0x52>
    7888:	7e f4       	brtc	.+30     	; 0x78a8 <__addsf3x+0x80>
    788a:	1f 16       	cp	r1, r31
    788c:	ba 0b       	sbc	r27, r26
    788e:	62 0b       	sbc	r22, r18
    7890:	73 0b       	sbc	r23, r19
    7892:	84 0b       	sbc	r24, r20
    7894:	ba f0       	brmi	.+46     	; 0x78c4 <__addsf3x+0x9c>
    7896:	91 50       	subi	r25, 0x01	; 1
    7898:	a1 f0       	breq	.+40     	; 0x78c2 <__addsf3x+0x9a>
    789a:	ff 0f       	add	r31, r31
    789c:	bb 1f       	adc	r27, r27
    789e:	66 1f       	adc	r22, r22
    78a0:	77 1f       	adc	r23, r23
    78a2:	88 1f       	adc	r24, r24
    78a4:	c2 f7       	brpl	.-16     	; 0x7896 <__addsf3x+0x6e>
    78a6:	0e c0       	rjmp	.+28     	; 0x78c4 <__addsf3x+0x9c>
    78a8:	ba 0f       	add	r27, r26
    78aa:	62 1f       	adc	r22, r18
    78ac:	73 1f       	adc	r23, r19
    78ae:	84 1f       	adc	r24, r20
    78b0:	48 f4       	brcc	.+18     	; 0x78c4 <__addsf3x+0x9c>
    78b2:	87 95       	ror	r24
    78b4:	77 95       	ror	r23
    78b6:	67 95       	ror	r22
    78b8:	b7 95       	ror	r27
    78ba:	f7 95       	ror	r31
    78bc:	9e 3f       	cpi	r25, 0xFE	; 254
    78be:	08 f0       	brcs	.+2      	; 0x78c2 <__addsf3x+0x9a>
    78c0:	b0 cf       	rjmp	.-160    	; 0x7822 <__addsf3+0x28>
    78c2:	93 95       	inc	r25
    78c4:	88 0f       	add	r24, r24
    78c6:	08 f0       	brcs	.+2      	; 0x78ca <__addsf3x+0xa2>
    78c8:	99 27       	eor	r25, r25
    78ca:	ee 0f       	add	r30, r30
    78cc:	97 95       	ror	r25
    78ce:	87 95       	ror	r24
    78d0:	08 95       	ret

000078d2 <__cmpsf2>:
    78d2:	0e 94 53 3d 	call	0x7aa6	; 0x7aa6 <__fp_cmp>
    78d6:	08 f4       	brcc	.+2      	; 0x78da <__cmpsf2+0x8>
    78d8:	81 e0       	ldi	r24, 0x01	; 1
    78da:	08 95       	ret

000078dc <__divsf3>:
    78dc:	0e 94 82 3c 	call	0x7904	; 0x7904 <__divsf3x>
    78e0:	0c 94 8e 3d 	jmp	0x7b1c	; 0x7b1c <__fp_round>
    78e4:	0e 94 87 3d 	call	0x7b0e	; 0x7b0e <__fp_pscB>
    78e8:	58 f0       	brcs	.+22     	; 0x7900 <__divsf3+0x24>
    78ea:	0e 94 80 3d 	call	0x7b00	; 0x7b00 <__fp_pscA>
    78ee:	40 f0       	brcs	.+16     	; 0x7900 <__divsf3+0x24>
    78f0:	29 f4       	brne	.+10     	; 0x78fc <__divsf3+0x20>
    78f2:	5f 3f       	cpi	r21, 0xFF	; 255
    78f4:	29 f0       	breq	.+10     	; 0x7900 <__divsf3+0x24>
    78f6:	0c 94 77 3d 	jmp	0x7aee	; 0x7aee <__fp_inf>
    78fa:	51 11       	cpse	r21, r1
    78fc:	0c 94 c2 3d 	jmp	0x7b84	; 0x7b84 <__fp_szero>
    7900:	0c 94 7d 3d 	jmp	0x7afa	; 0x7afa <__fp_nan>

00007904 <__divsf3x>:
    7904:	0e 94 9f 3d 	call	0x7b3e	; 0x7b3e <__fp_split3>
    7908:	68 f3       	brcs	.-38     	; 0x78e4 <__divsf3+0x8>

0000790a <__divsf3_pse>:
    790a:	99 23       	and	r25, r25
    790c:	b1 f3       	breq	.-20     	; 0x78fa <__divsf3+0x1e>
    790e:	55 23       	and	r21, r21
    7910:	91 f3       	breq	.-28     	; 0x78f6 <__divsf3+0x1a>
    7912:	95 1b       	sub	r25, r21
    7914:	55 0b       	sbc	r21, r21
    7916:	bb 27       	eor	r27, r27
    7918:	aa 27       	eor	r26, r26
    791a:	62 17       	cp	r22, r18
    791c:	73 07       	cpc	r23, r19
    791e:	84 07       	cpc	r24, r20
    7920:	38 f0       	brcs	.+14     	; 0x7930 <__divsf3_pse+0x26>
    7922:	9f 5f       	subi	r25, 0xFF	; 255
    7924:	5f 4f       	sbci	r21, 0xFF	; 255
    7926:	22 0f       	add	r18, r18
    7928:	33 1f       	adc	r19, r19
    792a:	44 1f       	adc	r20, r20
    792c:	aa 1f       	adc	r26, r26
    792e:	a9 f3       	breq	.-22     	; 0x791a <__divsf3_pse+0x10>
    7930:	35 d0       	rcall	.+106    	; 0x799c <__divsf3_pse+0x92>
    7932:	0e 2e       	mov	r0, r30
    7934:	3a f0       	brmi	.+14     	; 0x7944 <__divsf3_pse+0x3a>
    7936:	e0 e8       	ldi	r30, 0x80	; 128
    7938:	32 d0       	rcall	.+100    	; 0x799e <__divsf3_pse+0x94>
    793a:	91 50       	subi	r25, 0x01	; 1
    793c:	50 40       	sbci	r21, 0x00	; 0
    793e:	e6 95       	lsr	r30
    7940:	00 1c       	adc	r0, r0
    7942:	ca f7       	brpl	.-14     	; 0x7936 <__divsf3_pse+0x2c>
    7944:	2b d0       	rcall	.+86     	; 0x799c <__divsf3_pse+0x92>
    7946:	fe 2f       	mov	r31, r30
    7948:	29 d0       	rcall	.+82     	; 0x799c <__divsf3_pse+0x92>
    794a:	66 0f       	add	r22, r22
    794c:	77 1f       	adc	r23, r23
    794e:	88 1f       	adc	r24, r24
    7950:	bb 1f       	adc	r27, r27
    7952:	26 17       	cp	r18, r22
    7954:	37 07       	cpc	r19, r23
    7956:	48 07       	cpc	r20, r24
    7958:	ab 07       	cpc	r26, r27
    795a:	b0 e8       	ldi	r27, 0x80	; 128
    795c:	09 f0       	breq	.+2      	; 0x7960 <__divsf3_pse+0x56>
    795e:	bb 0b       	sbc	r27, r27
    7960:	80 2d       	mov	r24, r0
    7962:	bf 01       	movw	r22, r30
    7964:	ff 27       	eor	r31, r31
    7966:	93 58       	subi	r25, 0x83	; 131
    7968:	5f 4f       	sbci	r21, 0xFF	; 255
    796a:	3a f0       	brmi	.+14     	; 0x797a <__divsf3_pse+0x70>
    796c:	9e 3f       	cpi	r25, 0xFE	; 254
    796e:	51 05       	cpc	r21, r1
    7970:	78 f0       	brcs	.+30     	; 0x7990 <__divsf3_pse+0x86>
    7972:	0c 94 77 3d 	jmp	0x7aee	; 0x7aee <__fp_inf>
    7976:	0c 94 c2 3d 	jmp	0x7b84	; 0x7b84 <__fp_szero>
    797a:	5f 3f       	cpi	r21, 0xFF	; 255
    797c:	e4 f3       	brlt	.-8      	; 0x7976 <__divsf3_pse+0x6c>
    797e:	98 3e       	cpi	r25, 0xE8	; 232
    7980:	d4 f3       	brlt	.-12     	; 0x7976 <__divsf3_pse+0x6c>
    7982:	86 95       	lsr	r24
    7984:	77 95       	ror	r23
    7986:	67 95       	ror	r22
    7988:	b7 95       	ror	r27
    798a:	f7 95       	ror	r31
    798c:	9f 5f       	subi	r25, 0xFF	; 255
    798e:	c9 f7       	brne	.-14     	; 0x7982 <__divsf3_pse+0x78>
    7990:	88 0f       	add	r24, r24
    7992:	91 1d       	adc	r25, r1
    7994:	96 95       	lsr	r25
    7996:	87 95       	ror	r24
    7998:	97 f9       	bld	r25, 7
    799a:	08 95       	ret
    799c:	e1 e0       	ldi	r30, 0x01	; 1
    799e:	66 0f       	add	r22, r22
    79a0:	77 1f       	adc	r23, r23
    79a2:	88 1f       	adc	r24, r24
    79a4:	bb 1f       	adc	r27, r27
    79a6:	62 17       	cp	r22, r18
    79a8:	73 07       	cpc	r23, r19
    79aa:	84 07       	cpc	r24, r20
    79ac:	ba 07       	cpc	r27, r26
    79ae:	20 f0       	brcs	.+8      	; 0x79b8 <__divsf3_pse+0xae>
    79b0:	62 1b       	sub	r22, r18
    79b2:	73 0b       	sbc	r23, r19
    79b4:	84 0b       	sbc	r24, r20
    79b6:	ba 0b       	sbc	r27, r26
    79b8:	ee 1f       	adc	r30, r30
    79ba:	88 f7       	brcc	.-30     	; 0x799e <__divsf3_pse+0x94>
    79bc:	e0 95       	com	r30
    79be:	08 95       	ret

000079c0 <__fixsfsi>:
    79c0:	0e 94 e7 3c 	call	0x79ce	; 0x79ce <__fixunssfsi>
    79c4:	68 94       	set
    79c6:	b1 11       	cpse	r27, r1
    79c8:	0c 94 c2 3d 	jmp	0x7b84	; 0x7b84 <__fp_szero>
    79cc:	08 95       	ret

000079ce <__fixunssfsi>:
    79ce:	0e 94 a7 3d 	call	0x7b4e	; 0x7b4e <__fp_splitA>
    79d2:	88 f0       	brcs	.+34     	; 0x79f6 <__fixunssfsi+0x28>
    79d4:	9f 57       	subi	r25, 0x7F	; 127
    79d6:	98 f0       	brcs	.+38     	; 0x79fe <__fixunssfsi+0x30>
    79d8:	b9 2f       	mov	r27, r25
    79da:	99 27       	eor	r25, r25
    79dc:	b7 51       	subi	r27, 0x17	; 23
    79de:	b0 f0       	brcs	.+44     	; 0x7a0c <__fixunssfsi+0x3e>
    79e0:	e1 f0       	breq	.+56     	; 0x7a1a <__fixunssfsi+0x4c>
    79e2:	66 0f       	add	r22, r22
    79e4:	77 1f       	adc	r23, r23
    79e6:	88 1f       	adc	r24, r24
    79e8:	99 1f       	adc	r25, r25
    79ea:	1a f0       	brmi	.+6      	; 0x79f2 <__fixunssfsi+0x24>
    79ec:	ba 95       	dec	r27
    79ee:	c9 f7       	brne	.-14     	; 0x79e2 <__fixunssfsi+0x14>
    79f0:	14 c0       	rjmp	.+40     	; 0x7a1a <__fixunssfsi+0x4c>
    79f2:	b1 30       	cpi	r27, 0x01	; 1
    79f4:	91 f0       	breq	.+36     	; 0x7a1a <__fixunssfsi+0x4c>
    79f6:	0e 94 c1 3d 	call	0x7b82	; 0x7b82 <__fp_zero>
    79fa:	b1 e0       	ldi	r27, 0x01	; 1
    79fc:	08 95       	ret
    79fe:	0c 94 c1 3d 	jmp	0x7b82	; 0x7b82 <__fp_zero>
    7a02:	67 2f       	mov	r22, r23
    7a04:	78 2f       	mov	r23, r24
    7a06:	88 27       	eor	r24, r24
    7a08:	b8 5f       	subi	r27, 0xF8	; 248
    7a0a:	39 f0       	breq	.+14     	; 0x7a1a <__fixunssfsi+0x4c>
    7a0c:	b9 3f       	cpi	r27, 0xF9	; 249
    7a0e:	cc f3       	brlt	.-14     	; 0x7a02 <__fixunssfsi+0x34>
    7a10:	86 95       	lsr	r24
    7a12:	77 95       	ror	r23
    7a14:	67 95       	ror	r22
    7a16:	b3 95       	inc	r27
    7a18:	d9 f7       	brne	.-10     	; 0x7a10 <__fixunssfsi+0x42>
    7a1a:	3e f4       	brtc	.+14     	; 0x7a2a <__fixunssfsi+0x5c>
    7a1c:	90 95       	com	r25
    7a1e:	80 95       	com	r24
    7a20:	70 95       	com	r23
    7a22:	61 95       	neg	r22
    7a24:	7f 4f       	sbci	r23, 0xFF	; 255
    7a26:	8f 4f       	sbci	r24, 0xFF	; 255
    7a28:	9f 4f       	sbci	r25, 0xFF	; 255
    7a2a:	08 95       	ret

00007a2c <__floatunsisf>:
    7a2c:	e8 94       	clt
    7a2e:	09 c0       	rjmp	.+18     	; 0x7a42 <__floatsisf+0x12>

00007a30 <__floatsisf>:
    7a30:	97 fb       	bst	r25, 7
    7a32:	3e f4       	brtc	.+14     	; 0x7a42 <__floatsisf+0x12>
    7a34:	90 95       	com	r25
    7a36:	80 95       	com	r24
    7a38:	70 95       	com	r23
    7a3a:	61 95       	neg	r22
    7a3c:	7f 4f       	sbci	r23, 0xFF	; 255
    7a3e:	8f 4f       	sbci	r24, 0xFF	; 255
    7a40:	9f 4f       	sbci	r25, 0xFF	; 255
    7a42:	99 23       	and	r25, r25
    7a44:	a9 f0       	breq	.+42     	; 0x7a70 <__floatsisf+0x40>
    7a46:	f9 2f       	mov	r31, r25
    7a48:	96 e9       	ldi	r25, 0x96	; 150
    7a4a:	bb 27       	eor	r27, r27
    7a4c:	93 95       	inc	r25
    7a4e:	f6 95       	lsr	r31
    7a50:	87 95       	ror	r24
    7a52:	77 95       	ror	r23
    7a54:	67 95       	ror	r22
    7a56:	b7 95       	ror	r27
    7a58:	f1 11       	cpse	r31, r1
    7a5a:	f8 cf       	rjmp	.-16     	; 0x7a4c <__floatsisf+0x1c>
    7a5c:	fa f4       	brpl	.+62     	; 0x7a9c <__floatsisf+0x6c>
    7a5e:	bb 0f       	add	r27, r27
    7a60:	11 f4       	brne	.+4      	; 0x7a66 <__floatsisf+0x36>
    7a62:	60 ff       	sbrs	r22, 0
    7a64:	1b c0       	rjmp	.+54     	; 0x7a9c <__floatsisf+0x6c>
    7a66:	6f 5f       	subi	r22, 0xFF	; 255
    7a68:	7f 4f       	sbci	r23, 0xFF	; 255
    7a6a:	8f 4f       	sbci	r24, 0xFF	; 255
    7a6c:	9f 4f       	sbci	r25, 0xFF	; 255
    7a6e:	16 c0       	rjmp	.+44     	; 0x7a9c <__floatsisf+0x6c>
    7a70:	88 23       	and	r24, r24
    7a72:	11 f0       	breq	.+4      	; 0x7a78 <__floatsisf+0x48>
    7a74:	96 e9       	ldi	r25, 0x96	; 150
    7a76:	11 c0       	rjmp	.+34     	; 0x7a9a <__floatsisf+0x6a>
    7a78:	77 23       	and	r23, r23
    7a7a:	21 f0       	breq	.+8      	; 0x7a84 <__floatsisf+0x54>
    7a7c:	9e e8       	ldi	r25, 0x8E	; 142
    7a7e:	87 2f       	mov	r24, r23
    7a80:	76 2f       	mov	r23, r22
    7a82:	05 c0       	rjmp	.+10     	; 0x7a8e <__floatsisf+0x5e>
    7a84:	66 23       	and	r22, r22
    7a86:	71 f0       	breq	.+28     	; 0x7aa4 <__floatsisf+0x74>
    7a88:	96 e8       	ldi	r25, 0x86	; 134
    7a8a:	86 2f       	mov	r24, r22
    7a8c:	70 e0       	ldi	r23, 0x00	; 0
    7a8e:	60 e0       	ldi	r22, 0x00	; 0
    7a90:	2a f0       	brmi	.+10     	; 0x7a9c <__floatsisf+0x6c>
    7a92:	9a 95       	dec	r25
    7a94:	66 0f       	add	r22, r22
    7a96:	77 1f       	adc	r23, r23
    7a98:	88 1f       	adc	r24, r24
    7a9a:	da f7       	brpl	.-10     	; 0x7a92 <__floatsisf+0x62>
    7a9c:	88 0f       	add	r24, r24
    7a9e:	96 95       	lsr	r25
    7aa0:	87 95       	ror	r24
    7aa2:	97 f9       	bld	r25, 7
    7aa4:	08 95       	ret

00007aa6 <__fp_cmp>:
    7aa6:	99 0f       	add	r25, r25
    7aa8:	00 08       	sbc	r0, r0
    7aaa:	55 0f       	add	r21, r21
    7aac:	aa 0b       	sbc	r26, r26
    7aae:	e0 e8       	ldi	r30, 0x80	; 128
    7ab0:	fe ef       	ldi	r31, 0xFE	; 254
    7ab2:	16 16       	cp	r1, r22
    7ab4:	17 06       	cpc	r1, r23
    7ab6:	e8 07       	cpc	r30, r24
    7ab8:	f9 07       	cpc	r31, r25
    7aba:	c0 f0       	brcs	.+48     	; 0x7aec <__fp_cmp+0x46>
    7abc:	12 16       	cp	r1, r18
    7abe:	13 06       	cpc	r1, r19
    7ac0:	e4 07       	cpc	r30, r20
    7ac2:	f5 07       	cpc	r31, r21
    7ac4:	98 f0       	brcs	.+38     	; 0x7aec <__fp_cmp+0x46>
    7ac6:	62 1b       	sub	r22, r18
    7ac8:	73 0b       	sbc	r23, r19
    7aca:	84 0b       	sbc	r24, r20
    7acc:	95 0b       	sbc	r25, r21
    7ace:	39 f4       	brne	.+14     	; 0x7ade <__fp_cmp+0x38>
    7ad0:	0a 26       	eor	r0, r26
    7ad2:	61 f0       	breq	.+24     	; 0x7aec <__fp_cmp+0x46>
    7ad4:	23 2b       	or	r18, r19
    7ad6:	24 2b       	or	r18, r20
    7ad8:	25 2b       	or	r18, r21
    7ada:	21 f4       	brne	.+8      	; 0x7ae4 <__fp_cmp+0x3e>
    7adc:	08 95       	ret
    7ade:	0a 26       	eor	r0, r26
    7ae0:	09 f4       	brne	.+2      	; 0x7ae4 <__fp_cmp+0x3e>
    7ae2:	a1 40       	sbci	r26, 0x01	; 1
    7ae4:	a6 95       	lsr	r26
    7ae6:	8f ef       	ldi	r24, 0xFF	; 255
    7ae8:	81 1d       	adc	r24, r1
    7aea:	81 1d       	adc	r24, r1
    7aec:	08 95       	ret

00007aee <__fp_inf>:
    7aee:	97 f9       	bld	r25, 7
    7af0:	9f 67       	ori	r25, 0x7F	; 127
    7af2:	80 e8       	ldi	r24, 0x80	; 128
    7af4:	70 e0       	ldi	r23, 0x00	; 0
    7af6:	60 e0       	ldi	r22, 0x00	; 0
    7af8:	08 95       	ret

00007afa <__fp_nan>:
    7afa:	9f ef       	ldi	r25, 0xFF	; 255
    7afc:	80 ec       	ldi	r24, 0xC0	; 192
    7afe:	08 95       	ret

00007b00 <__fp_pscA>:
    7b00:	00 24       	eor	r0, r0
    7b02:	0a 94       	dec	r0
    7b04:	16 16       	cp	r1, r22
    7b06:	17 06       	cpc	r1, r23
    7b08:	18 06       	cpc	r1, r24
    7b0a:	09 06       	cpc	r0, r25
    7b0c:	08 95       	ret

00007b0e <__fp_pscB>:
    7b0e:	00 24       	eor	r0, r0
    7b10:	0a 94       	dec	r0
    7b12:	12 16       	cp	r1, r18
    7b14:	13 06       	cpc	r1, r19
    7b16:	14 06       	cpc	r1, r20
    7b18:	05 06       	cpc	r0, r21
    7b1a:	08 95       	ret

00007b1c <__fp_round>:
    7b1c:	09 2e       	mov	r0, r25
    7b1e:	03 94       	inc	r0
    7b20:	00 0c       	add	r0, r0
    7b22:	11 f4       	brne	.+4      	; 0x7b28 <__fp_round+0xc>
    7b24:	88 23       	and	r24, r24
    7b26:	52 f0       	brmi	.+20     	; 0x7b3c <__fp_round+0x20>
    7b28:	bb 0f       	add	r27, r27
    7b2a:	40 f4       	brcc	.+16     	; 0x7b3c <__fp_round+0x20>
    7b2c:	bf 2b       	or	r27, r31
    7b2e:	11 f4       	brne	.+4      	; 0x7b34 <__fp_round+0x18>
    7b30:	60 ff       	sbrs	r22, 0
    7b32:	04 c0       	rjmp	.+8      	; 0x7b3c <__fp_round+0x20>
    7b34:	6f 5f       	subi	r22, 0xFF	; 255
    7b36:	7f 4f       	sbci	r23, 0xFF	; 255
    7b38:	8f 4f       	sbci	r24, 0xFF	; 255
    7b3a:	9f 4f       	sbci	r25, 0xFF	; 255
    7b3c:	08 95       	ret

00007b3e <__fp_split3>:
    7b3e:	57 fd       	sbrc	r21, 7
    7b40:	90 58       	subi	r25, 0x80	; 128
    7b42:	44 0f       	add	r20, r20
    7b44:	55 1f       	adc	r21, r21
    7b46:	59 f0       	breq	.+22     	; 0x7b5e <__fp_splitA+0x10>
    7b48:	5f 3f       	cpi	r21, 0xFF	; 255
    7b4a:	71 f0       	breq	.+28     	; 0x7b68 <__fp_splitA+0x1a>
    7b4c:	47 95       	ror	r20

00007b4e <__fp_splitA>:
    7b4e:	88 0f       	add	r24, r24
    7b50:	97 fb       	bst	r25, 7
    7b52:	99 1f       	adc	r25, r25
    7b54:	61 f0       	breq	.+24     	; 0x7b6e <__fp_splitA+0x20>
    7b56:	9f 3f       	cpi	r25, 0xFF	; 255
    7b58:	79 f0       	breq	.+30     	; 0x7b78 <__fp_splitA+0x2a>
    7b5a:	87 95       	ror	r24
    7b5c:	08 95       	ret
    7b5e:	12 16       	cp	r1, r18
    7b60:	13 06       	cpc	r1, r19
    7b62:	14 06       	cpc	r1, r20
    7b64:	55 1f       	adc	r21, r21
    7b66:	f2 cf       	rjmp	.-28     	; 0x7b4c <__fp_split3+0xe>
    7b68:	46 95       	lsr	r20
    7b6a:	f1 df       	rcall	.-30     	; 0x7b4e <__fp_splitA>
    7b6c:	08 c0       	rjmp	.+16     	; 0x7b7e <__fp_splitA+0x30>
    7b6e:	16 16       	cp	r1, r22
    7b70:	17 06       	cpc	r1, r23
    7b72:	18 06       	cpc	r1, r24
    7b74:	99 1f       	adc	r25, r25
    7b76:	f1 cf       	rjmp	.-30     	; 0x7b5a <__fp_splitA+0xc>
    7b78:	86 95       	lsr	r24
    7b7a:	71 05       	cpc	r23, r1
    7b7c:	61 05       	cpc	r22, r1
    7b7e:	08 94       	sec
    7b80:	08 95       	ret

00007b82 <__fp_zero>:
    7b82:	e8 94       	clt

00007b84 <__fp_szero>:
    7b84:	bb 27       	eor	r27, r27
    7b86:	66 27       	eor	r22, r22
    7b88:	77 27       	eor	r23, r23
    7b8a:	cb 01       	movw	r24, r22
    7b8c:	97 f9       	bld	r25, 7
    7b8e:	08 95       	ret

00007b90 <__gesf2>:
    7b90:	0e 94 53 3d 	call	0x7aa6	; 0x7aa6 <__fp_cmp>
    7b94:	08 f4       	brcc	.+2      	; 0x7b98 <__gesf2+0x8>
    7b96:	8f ef       	ldi	r24, 0xFF	; 255
    7b98:	08 95       	ret

00007b9a <__mulsf3>:
    7b9a:	0e 94 e0 3d 	call	0x7bc0	; 0x7bc0 <__mulsf3x>
    7b9e:	0c 94 8e 3d 	jmp	0x7b1c	; 0x7b1c <__fp_round>
    7ba2:	0e 94 80 3d 	call	0x7b00	; 0x7b00 <__fp_pscA>
    7ba6:	38 f0       	brcs	.+14     	; 0x7bb6 <__mulsf3+0x1c>
    7ba8:	0e 94 87 3d 	call	0x7b0e	; 0x7b0e <__fp_pscB>
    7bac:	20 f0       	brcs	.+8      	; 0x7bb6 <__mulsf3+0x1c>
    7bae:	95 23       	and	r25, r21
    7bb0:	11 f0       	breq	.+4      	; 0x7bb6 <__mulsf3+0x1c>
    7bb2:	0c 94 77 3d 	jmp	0x7aee	; 0x7aee <__fp_inf>
    7bb6:	0c 94 7d 3d 	jmp	0x7afa	; 0x7afa <__fp_nan>
    7bba:	11 24       	eor	r1, r1
    7bbc:	0c 94 c2 3d 	jmp	0x7b84	; 0x7b84 <__fp_szero>

00007bc0 <__mulsf3x>:
    7bc0:	0e 94 9f 3d 	call	0x7b3e	; 0x7b3e <__fp_split3>
    7bc4:	70 f3       	brcs	.-36     	; 0x7ba2 <__mulsf3+0x8>

00007bc6 <__mulsf3_pse>:
    7bc6:	95 9f       	mul	r25, r21
    7bc8:	c1 f3       	breq	.-16     	; 0x7bba <__mulsf3+0x20>
    7bca:	95 0f       	add	r25, r21
    7bcc:	50 e0       	ldi	r21, 0x00	; 0
    7bce:	55 1f       	adc	r21, r21
    7bd0:	62 9f       	mul	r22, r18
    7bd2:	f0 01       	movw	r30, r0
    7bd4:	72 9f       	mul	r23, r18
    7bd6:	bb 27       	eor	r27, r27
    7bd8:	f0 0d       	add	r31, r0
    7bda:	b1 1d       	adc	r27, r1
    7bdc:	63 9f       	mul	r22, r19
    7bde:	aa 27       	eor	r26, r26
    7be0:	f0 0d       	add	r31, r0
    7be2:	b1 1d       	adc	r27, r1
    7be4:	aa 1f       	adc	r26, r26
    7be6:	64 9f       	mul	r22, r20
    7be8:	66 27       	eor	r22, r22
    7bea:	b0 0d       	add	r27, r0
    7bec:	a1 1d       	adc	r26, r1
    7bee:	66 1f       	adc	r22, r22
    7bf0:	82 9f       	mul	r24, r18
    7bf2:	22 27       	eor	r18, r18
    7bf4:	b0 0d       	add	r27, r0
    7bf6:	a1 1d       	adc	r26, r1
    7bf8:	62 1f       	adc	r22, r18
    7bfa:	73 9f       	mul	r23, r19
    7bfc:	b0 0d       	add	r27, r0
    7bfe:	a1 1d       	adc	r26, r1
    7c00:	62 1f       	adc	r22, r18
    7c02:	83 9f       	mul	r24, r19
    7c04:	a0 0d       	add	r26, r0
    7c06:	61 1d       	adc	r22, r1
    7c08:	22 1f       	adc	r18, r18
    7c0a:	74 9f       	mul	r23, r20
    7c0c:	33 27       	eor	r19, r19
    7c0e:	a0 0d       	add	r26, r0
    7c10:	61 1d       	adc	r22, r1
    7c12:	23 1f       	adc	r18, r19
    7c14:	84 9f       	mul	r24, r20
    7c16:	60 0d       	add	r22, r0
    7c18:	21 1d       	adc	r18, r1
    7c1a:	82 2f       	mov	r24, r18
    7c1c:	76 2f       	mov	r23, r22
    7c1e:	6a 2f       	mov	r22, r26
    7c20:	11 24       	eor	r1, r1
    7c22:	9f 57       	subi	r25, 0x7F	; 127
    7c24:	50 40       	sbci	r21, 0x00	; 0
    7c26:	9a f0       	brmi	.+38     	; 0x7c4e <__mulsf3_pse+0x88>
    7c28:	f1 f0       	breq	.+60     	; 0x7c66 <__mulsf3_pse+0xa0>
    7c2a:	88 23       	and	r24, r24
    7c2c:	4a f0       	brmi	.+18     	; 0x7c40 <__mulsf3_pse+0x7a>
    7c2e:	ee 0f       	add	r30, r30
    7c30:	ff 1f       	adc	r31, r31
    7c32:	bb 1f       	adc	r27, r27
    7c34:	66 1f       	adc	r22, r22
    7c36:	77 1f       	adc	r23, r23
    7c38:	88 1f       	adc	r24, r24
    7c3a:	91 50       	subi	r25, 0x01	; 1
    7c3c:	50 40       	sbci	r21, 0x00	; 0
    7c3e:	a9 f7       	brne	.-22     	; 0x7c2a <__mulsf3_pse+0x64>
    7c40:	9e 3f       	cpi	r25, 0xFE	; 254
    7c42:	51 05       	cpc	r21, r1
    7c44:	80 f0       	brcs	.+32     	; 0x7c66 <__mulsf3_pse+0xa0>
    7c46:	0c 94 77 3d 	jmp	0x7aee	; 0x7aee <__fp_inf>
    7c4a:	0c 94 c2 3d 	jmp	0x7b84	; 0x7b84 <__fp_szero>
    7c4e:	5f 3f       	cpi	r21, 0xFF	; 255
    7c50:	e4 f3       	brlt	.-8      	; 0x7c4a <__mulsf3_pse+0x84>
    7c52:	98 3e       	cpi	r25, 0xE8	; 232
    7c54:	d4 f3       	brlt	.-12     	; 0x7c4a <__mulsf3_pse+0x84>
    7c56:	86 95       	lsr	r24
    7c58:	77 95       	ror	r23
    7c5a:	67 95       	ror	r22
    7c5c:	b7 95       	ror	r27
    7c5e:	f7 95       	ror	r31
    7c60:	e7 95       	ror	r30
    7c62:	9f 5f       	subi	r25, 0xFF	; 255
    7c64:	c1 f7       	brne	.-16     	; 0x7c56 <__mulsf3_pse+0x90>
    7c66:	fe 2b       	or	r31, r30
    7c68:	88 0f       	add	r24, r24
    7c6a:	91 1d       	adc	r25, r1
    7c6c:	96 95       	lsr	r25
    7c6e:	87 95       	ror	r24
    7c70:	97 f9       	bld	r25, 7
    7c72:	08 95       	ret

00007c74 <malloc>:
    7c74:	0f 93       	push	r16
    7c76:	1f 93       	push	r17
    7c78:	cf 93       	push	r28
    7c7a:	df 93       	push	r29
    7c7c:	82 30       	cpi	r24, 0x02	; 2
    7c7e:	91 05       	cpc	r25, r1
    7c80:	10 f4       	brcc	.+4      	; 0x7c86 <malloc+0x12>
    7c82:	82 e0       	ldi	r24, 0x02	; 2
    7c84:	90 e0       	ldi	r25, 0x00	; 0
    7c86:	e0 91 c7 06 	lds	r30, 0x06C7	; 0x8006c7 <__flp>
    7c8a:	f0 91 c8 06 	lds	r31, 0x06C8	; 0x8006c8 <__flp+0x1>
    7c8e:	30 e0       	ldi	r19, 0x00	; 0
    7c90:	20 e0       	ldi	r18, 0x00	; 0
    7c92:	b0 e0       	ldi	r27, 0x00	; 0
    7c94:	a0 e0       	ldi	r26, 0x00	; 0
    7c96:	30 97       	sbiw	r30, 0x00	; 0
    7c98:	99 f4       	brne	.+38     	; 0x7cc0 <malloc+0x4c>
    7c9a:	21 15       	cp	r18, r1
    7c9c:	31 05       	cpc	r19, r1
    7c9e:	09 f4       	brne	.+2      	; 0x7ca2 <malloc+0x2e>
    7ca0:	4a c0       	rjmp	.+148    	; 0x7d36 <malloc+0xc2>
    7ca2:	28 1b       	sub	r18, r24
    7ca4:	39 0b       	sbc	r19, r25
    7ca6:	24 30       	cpi	r18, 0x04	; 4
    7ca8:	31 05       	cpc	r19, r1
    7caa:	d8 f5       	brcc	.+118    	; 0x7d22 <malloc+0xae>
    7cac:	8a 81       	ldd	r24, Y+2	; 0x02
    7cae:	9b 81       	ldd	r25, Y+3	; 0x03
    7cb0:	61 15       	cp	r22, r1
    7cb2:	71 05       	cpc	r23, r1
    7cb4:	89 f1       	breq	.+98     	; 0x7d18 <malloc+0xa4>
    7cb6:	fb 01       	movw	r30, r22
    7cb8:	93 83       	std	Z+3, r25	; 0x03
    7cba:	82 83       	std	Z+2, r24	; 0x02
    7cbc:	fe 01       	movw	r30, r28
    7cbe:	11 c0       	rjmp	.+34     	; 0x7ce2 <malloc+0x6e>
    7cc0:	40 81       	ld	r20, Z
    7cc2:	51 81       	ldd	r21, Z+1	; 0x01
    7cc4:	02 81       	ldd	r16, Z+2	; 0x02
    7cc6:	13 81       	ldd	r17, Z+3	; 0x03
    7cc8:	48 17       	cp	r20, r24
    7cca:	59 07       	cpc	r21, r25
    7ccc:	e0 f0       	brcs	.+56     	; 0x7d06 <malloc+0x92>
    7cce:	48 17       	cp	r20, r24
    7cd0:	59 07       	cpc	r21, r25
    7cd2:	99 f4       	brne	.+38     	; 0x7cfa <malloc+0x86>
    7cd4:	10 97       	sbiw	r26, 0x00	; 0
    7cd6:	61 f0       	breq	.+24     	; 0x7cf0 <malloc+0x7c>
    7cd8:	12 96       	adiw	r26, 0x02	; 2
    7cda:	0c 93       	st	X, r16
    7cdc:	12 97       	sbiw	r26, 0x02	; 2
    7cde:	13 96       	adiw	r26, 0x03	; 3
    7ce0:	1c 93       	st	X, r17
    7ce2:	32 96       	adiw	r30, 0x02	; 2
    7ce4:	cf 01       	movw	r24, r30
    7ce6:	df 91       	pop	r29
    7ce8:	cf 91       	pop	r28
    7cea:	1f 91       	pop	r17
    7cec:	0f 91       	pop	r16
    7cee:	08 95       	ret
    7cf0:	00 93 c7 06 	sts	0x06C7, r16	; 0x8006c7 <__flp>
    7cf4:	10 93 c8 06 	sts	0x06C8, r17	; 0x8006c8 <__flp+0x1>
    7cf8:	f4 cf       	rjmp	.-24     	; 0x7ce2 <malloc+0x6e>
    7cfa:	21 15       	cp	r18, r1
    7cfc:	31 05       	cpc	r19, r1
    7cfe:	51 f0       	breq	.+20     	; 0x7d14 <malloc+0xa0>
    7d00:	42 17       	cp	r20, r18
    7d02:	53 07       	cpc	r21, r19
    7d04:	38 f0       	brcs	.+14     	; 0x7d14 <malloc+0xa0>
    7d06:	a9 01       	movw	r20, r18
    7d08:	db 01       	movw	r26, r22
    7d0a:	9a 01       	movw	r18, r20
    7d0c:	bd 01       	movw	r22, r26
    7d0e:	df 01       	movw	r26, r30
    7d10:	f8 01       	movw	r30, r16
    7d12:	c1 cf       	rjmp	.-126    	; 0x7c96 <malloc+0x22>
    7d14:	ef 01       	movw	r28, r30
    7d16:	f9 cf       	rjmp	.-14     	; 0x7d0a <malloc+0x96>
    7d18:	90 93 c8 06 	sts	0x06C8, r25	; 0x8006c8 <__flp+0x1>
    7d1c:	80 93 c7 06 	sts	0x06C7, r24	; 0x8006c7 <__flp>
    7d20:	cd cf       	rjmp	.-102    	; 0x7cbc <malloc+0x48>
    7d22:	fe 01       	movw	r30, r28
    7d24:	e2 0f       	add	r30, r18
    7d26:	f3 1f       	adc	r31, r19
    7d28:	81 93       	st	Z+, r24
    7d2a:	91 93       	st	Z+, r25
    7d2c:	22 50       	subi	r18, 0x02	; 2
    7d2e:	31 09       	sbc	r19, r1
    7d30:	39 83       	std	Y+1, r19	; 0x01
    7d32:	28 83       	st	Y, r18
    7d34:	d7 cf       	rjmp	.-82     	; 0x7ce4 <malloc+0x70>
    7d36:	20 91 c5 06 	lds	r18, 0x06C5	; 0x8006c5 <__brkval>
    7d3a:	30 91 c6 06 	lds	r19, 0x06C6	; 0x8006c6 <__brkval+0x1>
    7d3e:	23 2b       	or	r18, r19
    7d40:	41 f4       	brne	.+16     	; 0x7d52 <malloc+0xde>
    7d42:	20 91 0d 01 	lds	r18, 0x010D	; 0x80010d <__malloc_heap_start>
    7d46:	30 91 0e 01 	lds	r19, 0x010E	; 0x80010e <__malloc_heap_start+0x1>
    7d4a:	30 93 c6 06 	sts	0x06C6, r19	; 0x8006c6 <__brkval+0x1>
    7d4e:	20 93 c5 06 	sts	0x06C5, r18	; 0x8006c5 <__brkval>
    7d52:	20 91 0b 01 	lds	r18, 0x010B	; 0x80010b <__malloc_heap_end>
    7d56:	30 91 0c 01 	lds	r19, 0x010C	; 0x80010c <__malloc_heap_end+0x1>
    7d5a:	21 15       	cp	r18, r1
    7d5c:	31 05       	cpc	r19, r1
    7d5e:	41 f4       	brne	.+16     	; 0x7d70 <malloc+0xfc>
    7d60:	2d b7       	in	r18, 0x3d	; 61
    7d62:	3e b7       	in	r19, 0x3e	; 62
    7d64:	40 91 0f 01 	lds	r20, 0x010F	; 0x80010f <__malloc_margin>
    7d68:	50 91 10 01 	lds	r21, 0x0110	; 0x800110 <__malloc_margin+0x1>
    7d6c:	24 1b       	sub	r18, r20
    7d6e:	35 0b       	sbc	r19, r21
    7d70:	e0 91 c5 06 	lds	r30, 0x06C5	; 0x8006c5 <__brkval>
    7d74:	f0 91 c6 06 	lds	r31, 0x06C6	; 0x8006c6 <__brkval+0x1>
    7d78:	e2 17       	cp	r30, r18
    7d7a:	f3 07       	cpc	r31, r19
    7d7c:	a0 f4       	brcc	.+40     	; 0x7da6 <malloc+0x132>
    7d7e:	2e 1b       	sub	r18, r30
    7d80:	3f 0b       	sbc	r19, r31
    7d82:	28 17       	cp	r18, r24
    7d84:	39 07       	cpc	r19, r25
    7d86:	78 f0       	brcs	.+30     	; 0x7da6 <malloc+0x132>
    7d88:	ac 01       	movw	r20, r24
    7d8a:	4e 5f       	subi	r20, 0xFE	; 254
    7d8c:	5f 4f       	sbci	r21, 0xFF	; 255
    7d8e:	24 17       	cp	r18, r20
    7d90:	35 07       	cpc	r19, r21
    7d92:	48 f0       	brcs	.+18     	; 0x7da6 <malloc+0x132>
    7d94:	4e 0f       	add	r20, r30
    7d96:	5f 1f       	adc	r21, r31
    7d98:	50 93 c6 06 	sts	0x06C6, r21	; 0x8006c6 <__brkval+0x1>
    7d9c:	40 93 c5 06 	sts	0x06C5, r20	; 0x8006c5 <__brkval>
    7da0:	81 93       	st	Z+, r24
    7da2:	91 93       	st	Z+, r25
    7da4:	9f cf       	rjmp	.-194    	; 0x7ce4 <malloc+0x70>
    7da6:	f0 e0       	ldi	r31, 0x00	; 0
    7da8:	e0 e0       	ldi	r30, 0x00	; 0
    7daa:	9c cf       	rjmp	.-200    	; 0x7ce4 <malloc+0x70>

00007dac <free>:
    7dac:	cf 93       	push	r28
    7dae:	df 93       	push	r29
    7db0:	00 97       	sbiw	r24, 0x00	; 0
    7db2:	e9 f0       	breq	.+58     	; 0x7dee <free+0x42>
    7db4:	fc 01       	movw	r30, r24
    7db6:	32 97       	sbiw	r30, 0x02	; 2
    7db8:	13 82       	std	Z+3, r1	; 0x03
    7dba:	12 82       	std	Z+2, r1	; 0x02
    7dbc:	a0 91 c7 06 	lds	r26, 0x06C7	; 0x8006c7 <__flp>
    7dc0:	b0 91 c8 06 	lds	r27, 0x06C8	; 0x8006c8 <__flp+0x1>
    7dc4:	ed 01       	movw	r28, r26
    7dc6:	30 e0       	ldi	r19, 0x00	; 0
    7dc8:	20 e0       	ldi	r18, 0x00	; 0
    7dca:	10 97       	sbiw	r26, 0x00	; 0
    7dcc:	a1 f4       	brne	.+40     	; 0x7df6 <free+0x4a>
    7dce:	20 81       	ld	r18, Z
    7dd0:	31 81       	ldd	r19, Z+1	; 0x01
    7dd2:	82 0f       	add	r24, r18
    7dd4:	93 1f       	adc	r25, r19
    7dd6:	20 91 c5 06 	lds	r18, 0x06C5	; 0x8006c5 <__brkval>
    7dda:	30 91 c6 06 	lds	r19, 0x06C6	; 0x8006c6 <__brkval+0x1>
    7dde:	28 17       	cp	r18, r24
    7de0:	39 07       	cpc	r19, r25
    7de2:	09 f0       	breq	.+2      	; 0x7de6 <free+0x3a>
    7de4:	61 c0       	rjmp	.+194    	; 0x7ea8 <free+0xfc>
    7de6:	f0 93 c6 06 	sts	0x06C6, r31	; 0x8006c6 <__brkval+0x1>
    7dea:	e0 93 c5 06 	sts	0x06C5, r30	; 0x8006c5 <__brkval>
    7dee:	df 91       	pop	r29
    7df0:	cf 91       	pop	r28
    7df2:	08 95       	ret
    7df4:	ea 01       	movw	r28, r20
    7df6:	ce 17       	cp	r28, r30
    7df8:	df 07       	cpc	r29, r31
    7dfa:	e8 f5       	brcc	.+122    	; 0x7e76 <free+0xca>
    7dfc:	4a 81       	ldd	r20, Y+2	; 0x02
    7dfe:	5b 81       	ldd	r21, Y+3	; 0x03
    7e00:	9e 01       	movw	r18, r28
    7e02:	41 15       	cp	r20, r1
    7e04:	51 05       	cpc	r21, r1
    7e06:	b1 f7       	brne	.-20     	; 0x7df4 <free+0x48>
    7e08:	e9 01       	movw	r28, r18
    7e0a:	fb 83       	std	Y+3, r31	; 0x03
    7e0c:	ea 83       	std	Y+2, r30	; 0x02
    7e0e:	49 91       	ld	r20, Y+
    7e10:	59 91       	ld	r21, Y+
    7e12:	c4 0f       	add	r28, r20
    7e14:	d5 1f       	adc	r29, r21
    7e16:	ec 17       	cp	r30, r28
    7e18:	fd 07       	cpc	r31, r29
    7e1a:	61 f4       	brne	.+24     	; 0x7e34 <free+0x88>
    7e1c:	80 81       	ld	r24, Z
    7e1e:	91 81       	ldd	r25, Z+1	; 0x01
    7e20:	02 96       	adiw	r24, 0x02	; 2
    7e22:	84 0f       	add	r24, r20
    7e24:	95 1f       	adc	r25, r21
    7e26:	e9 01       	movw	r28, r18
    7e28:	99 83       	std	Y+1, r25	; 0x01
    7e2a:	88 83       	st	Y, r24
    7e2c:	82 81       	ldd	r24, Z+2	; 0x02
    7e2e:	93 81       	ldd	r25, Z+3	; 0x03
    7e30:	9b 83       	std	Y+3, r25	; 0x03
    7e32:	8a 83       	std	Y+2, r24	; 0x02
    7e34:	f0 e0       	ldi	r31, 0x00	; 0
    7e36:	e0 e0       	ldi	r30, 0x00	; 0
    7e38:	12 96       	adiw	r26, 0x02	; 2
    7e3a:	8d 91       	ld	r24, X+
    7e3c:	9c 91       	ld	r25, X
    7e3e:	13 97       	sbiw	r26, 0x03	; 3
    7e40:	00 97       	sbiw	r24, 0x00	; 0
    7e42:	b9 f5       	brne	.+110    	; 0x7eb2 <free+0x106>
    7e44:	2d 91       	ld	r18, X+
    7e46:	3c 91       	ld	r19, X
    7e48:	11 97       	sbiw	r26, 0x01	; 1
    7e4a:	cd 01       	movw	r24, r26
    7e4c:	02 96       	adiw	r24, 0x02	; 2
    7e4e:	82 0f       	add	r24, r18
    7e50:	93 1f       	adc	r25, r19
    7e52:	20 91 c5 06 	lds	r18, 0x06C5	; 0x8006c5 <__brkval>
    7e56:	30 91 c6 06 	lds	r19, 0x06C6	; 0x8006c6 <__brkval+0x1>
    7e5a:	28 17       	cp	r18, r24
    7e5c:	39 07       	cpc	r19, r25
    7e5e:	39 f6       	brne	.-114    	; 0x7dee <free+0x42>
    7e60:	30 97       	sbiw	r30, 0x00	; 0
    7e62:	51 f5       	brne	.+84     	; 0x7eb8 <free+0x10c>
    7e64:	10 92 c8 06 	sts	0x06C8, r1	; 0x8006c8 <__flp+0x1>
    7e68:	10 92 c7 06 	sts	0x06C7, r1	; 0x8006c7 <__flp>
    7e6c:	b0 93 c6 06 	sts	0x06C6, r27	; 0x8006c6 <__brkval+0x1>
    7e70:	a0 93 c5 06 	sts	0x06C5, r26	; 0x8006c5 <__brkval>
    7e74:	bc cf       	rjmp	.-136    	; 0x7dee <free+0x42>
    7e76:	d3 83       	std	Z+3, r29	; 0x03
    7e78:	c2 83       	std	Z+2, r28	; 0x02
    7e7a:	40 81       	ld	r20, Z
    7e7c:	51 81       	ldd	r21, Z+1	; 0x01
    7e7e:	84 0f       	add	r24, r20
    7e80:	95 1f       	adc	r25, r21
    7e82:	c8 17       	cp	r28, r24
    7e84:	d9 07       	cpc	r29, r25
    7e86:	61 f4       	brne	.+24     	; 0x7ea0 <free+0xf4>
    7e88:	4e 5f       	subi	r20, 0xFE	; 254
    7e8a:	5f 4f       	sbci	r21, 0xFF	; 255
    7e8c:	88 81       	ld	r24, Y
    7e8e:	99 81       	ldd	r25, Y+1	; 0x01
    7e90:	48 0f       	add	r20, r24
    7e92:	59 1f       	adc	r21, r25
    7e94:	51 83       	std	Z+1, r21	; 0x01
    7e96:	40 83       	st	Z, r20
    7e98:	8a 81       	ldd	r24, Y+2	; 0x02
    7e9a:	9b 81       	ldd	r25, Y+3	; 0x03
    7e9c:	93 83       	std	Z+3, r25	; 0x03
    7e9e:	82 83       	std	Z+2, r24	; 0x02
    7ea0:	21 15       	cp	r18, r1
    7ea2:	31 05       	cpc	r19, r1
    7ea4:	09 f0       	breq	.+2      	; 0x7ea8 <free+0xfc>
    7ea6:	b0 cf       	rjmp	.-160    	; 0x7e08 <free+0x5c>
    7ea8:	f0 93 c8 06 	sts	0x06C8, r31	; 0x8006c8 <__flp+0x1>
    7eac:	e0 93 c7 06 	sts	0x06C7, r30	; 0x8006c7 <__flp>
    7eb0:	9e cf       	rjmp	.-196    	; 0x7dee <free+0x42>
    7eb2:	fd 01       	movw	r30, r26
    7eb4:	dc 01       	movw	r26, r24
    7eb6:	c0 cf       	rjmp	.-128    	; 0x7e38 <free+0x8c>
    7eb8:	13 82       	std	Z+3, r1	; 0x03
    7eba:	12 82       	std	Z+2, r1	; 0x02
    7ebc:	d7 cf       	rjmp	.-82     	; 0x7e6c <free+0xc0>

00007ebe <memset>:
    7ebe:	dc 01       	movw	r26, r24
    7ec0:	01 c0       	rjmp	.+2      	; 0x7ec4 <memset+0x6>
    7ec2:	6d 93       	st	X+, r22
    7ec4:	41 50       	subi	r20, 0x01	; 1
    7ec6:	50 40       	sbci	r21, 0x00	; 0
    7ec8:	e0 f7       	brcc	.-8      	; 0x7ec2 <memset+0x4>
    7eca:	08 95       	ret

00007ecc <strcpy>:
    7ecc:	fb 01       	movw	r30, r22
    7ece:	dc 01       	movw	r26, r24
    7ed0:	01 90       	ld	r0, Z+
    7ed2:	0d 92       	st	X+, r0
    7ed4:	00 20       	and	r0, r0
    7ed6:	e1 f7       	brne	.-8      	; 0x7ed0 <strcpy+0x4>
    7ed8:	08 95       	ret

00007eda <sprintf>:
    7eda:	ae e0       	ldi	r26, 0x0E	; 14
    7edc:	b0 e0       	ldi	r27, 0x00	; 0
    7ede:	e3 e7       	ldi	r30, 0x73	; 115
    7ee0:	ff e3       	ldi	r31, 0x3F	; 63
    7ee2:	0c 94 79 3b 	jmp	0x76f2	; 0x76f2 <__prologue_saves__+0x1c>
    7ee6:	0d 89       	ldd	r16, Y+21	; 0x15
    7ee8:	1e 89       	ldd	r17, Y+22	; 0x16
    7eea:	86 e0       	ldi	r24, 0x06	; 6
    7eec:	8c 83       	std	Y+4, r24	; 0x04
    7eee:	1a 83       	std	Y+2, r17	; 0x02
    7ef0:	09 83       	std	Y+1, r16	; 0x01
    7ef2:	8f ef       	ldi	r24, 0xFF	; 255
    7ef4:	9f e7       	ldi	r25, 0x7F	; 127
    7ef6:	9e 83       	std	Y+6, r25	; 0x06
    7ef8:	8d 83       	std	Y+5, r24	; 0x05
    7efa:	ae 01       	movw	r20, r28
    7efc:	47 5e       	subi	r20, 0xE7	; 231
    7efe:	5f 4f       	sbci	r21, 0xFF	; 255
    7f00:	6f 89       	ldd	r22, Y+23	; 0x17
    7f02:	78 8d       	ldd	r23, Y+24	; 0x18
    7f04:	ce 01       	movw	r24, r28
    7f06:	01 96       	adiw	r24, 0x01	; 1
    7f08:	0e 94 84 38 	call	0x7108	; 0x7108 <vfprintf>
    7f0c:	2f 81       	ldd	r18, Y+7	; 0x07
    7f0e:	38 85       	ldd	r19, Y+8	; 0x08
    7f10:	02 0f       	add	r16, r18
    7f12:	13 1f       	adc	r17, r19
    7f14:	f8 01       	movw	r30, r16
    7f16:	10 82       	st	Z, r1
    7f18:	2e 96       	adiw	r28, 0x0e	; 14
    7f1a:	e4 e0       	ldi	r30, 0x04	; 4
    7f1c:	0c 94 95 3b 	jmp	0x772a	; 0x772a <__epilogue_restores__+0x1c>

00007f20 <__do_global_dtors>:
    7f20:	14 e0       	ldi	r17, 0x04	; 4
    7f22:	c3 e3       	ldi	r28, 0x33	; 51
    7f24:	d4 e0       	ldi	r29, 0x04	; 4
    7f26:	04 c0       	rjmp	.+8      	; 0x7f30 <__do_global_dtors+0x10>
    7f28:	fe 01       	movw	r30, r28
    7f2a:	0e 94 f6 3b 	call	0x77ec	; 0x77ec <__tablejump2__>
    7f2e:	21 96       	adiw	r28, 0x01	; 1
    7f30:	c4 33       	cpi	r28, 0x34	; 52
    7f32:	d1 07       	cpc	r29, r17
    7f34:	c9 f7       	brne	.-14     	; 0x7f28 <__do_global_dtors+0x8>
    7f36:	f8 94       	cli

00007f38 <__stop_program>:
    7f38:	ff cf       	rjmp	.-2      	; 0x7f38 <__stop_program>
