
/Users/ruslanpavluchenko/Documents/PlatformIO/Projects/iDryer/.pio/build/EEP/firmware.elf:     file format elf32-avr

Sections:
Idx Name          Size      VMA       LMA       File off  Algn
  0 .data         0000015a  00800100  00007f3a  00007fee  2**0
                  CONTENTS, ALLOC, LOAD, DATA
  1 .text         00007f3a  00000000  00000000  000000b4  2**1
                  CONTENTS, ALLOC, LOAD, READONLY, CODE
  2 .bss          0000046f  0080025a  0080025a  00008148  2**0
                  ALLOC
  3 .eeprom       000001c4  00810000  00810000  00008148  2**0
                  CONTENTS, ALLOC, LOAD, DATA
  4 .comment      00000011  00000000  00000000  0000830c  2**0
                  CONTENTS, READONLY
  5 .note.gnu.avr.deviceinfo 00000040  00000000  00000000  00008320  2**2
                  CONTENTS, READONLY, OCTETS
  6 .debug_aranges 00000220  00000000  00000000  00008360  2**3
                  CONTENTS, READONLY, DEBUGGING, OCTETS
  7 .debug_info   00001182  00000000  00000000  00008580  2**0
                  CONTENTS, READONLY, DEBUGGING, OCTETS
  8 .debug_abbrev 000006f6  00000000  00000000  00009702  2**0
                  CONTENTS, READONLY, DEBUGGING, OCTETS
  9 .debug_line   00000b04  00000000  00000000  00009df8  2**0
                  CONTENTS, READONLY, DEBUGGING, OCTETS
 10 .debug_str    00000208  00000000  00000000  0000a8fc  2**0
                  CONTENTS, READONLY, DEBUGGING, OCTETS

Disassembly of section .text:

00000000 <__vectors>:
       0:	0c 94 34 04 	jmp	0x868	; 0x868 <__dtors_end>
       4:	0c 94 80 2a 	jmp	0x5500	; 0x5500 <__vector_1>
       8:	0c 94 59 2a 	jmp	0x54b2	; 0x54b2 <__vector_2>
       c:	0c 94 5c 04 	jmp	0x8b8	; 0x8b8 <__bad_interrupt>
      10:	0c 94 46 2b 	jmp	0x568c	; 0x568c <__vector_4>
      14:	0c 94 5c 04 	jmp	0x8b8	; 0x8b8 <__bad_interrupt>
      18:	0c 94 ff 2a 	jmp	0x55fe	; 0x55fe <__vector_6>
      1c:	0c 94 5c 04 	jmp	0x8b8	; 0x8b8 <__bad_interrupt>
      20:	0c 94 5c 04 	jmp	0x8b8	; 0x8b8 <__bad_interrupt>
      24:	0c 94 5c 04 	jmp	0x8b8	; 0x8b8 <__bad_interrupt>
      28:	0c 94 5c 04 	jmp	0x8b8	; 0x8b8 <__bad_interrupt>
      2c:	0c 94 94 2b 	jmp	0x5728	; 0x5728 <__vector_11>
      30:	0c 94 5c 04 	jmp	0x8b8	; 0x8b8 <__bad_interrupt>
      34:	0c 94 5c 04 	jmp	0x8b8	; 0x8b8 <__bad_interrupt>
      38:	0c 94 5c 04 	jmp	0x8b8	; 0x8b8 <__bad_interrupt>
      3c:	0c 94 5c 04 	jmp	0x8b8	; 0x8b8 <__bad_interrupt>
      40:	0c 94 0f 2a 	jmp	0x541e	; 0x541e <__vector_16>
      44:	0c 94 5c 04 	jmp	0x8b8	; 0x8b8 <__bad_interrupt>
      48:	0c 94 cd 2a 	jmp	0x559a	; 0x559a <__vector_18>
      4c:	0c 94 a7 2a 	jmp	0x554e	; 0x554e <__vector_19>
      50:	0c 94 5c 04 	jmp	0x8b8	; 0x8b8 <__bad_interrupt>
      54:	0c 94 5c 04 	jmp	0x8b8	; 0x8b8 <__bad_interrupt>
      58:	0c 94 5c 04 	jmp	0x8b8	; 0x8b8 <__bad_interrupt>
      5c:	0c 94 5c 04 	jmp	0x8b8	; 0x8b8 <__bad_interrupt>
      60:	0c 94 e4 28 	jmp	0x51c8	; 0x51c8 <__vector_24>
      64:	0c 94 5c 04 	jmp	0x8b8	; 0x8b8 <__bad_interrupt>

00000068 <_ZL3s18>:
      68:	d0 93 d0 a0 00                                      .....

0000006d <_ZL3s17>:
      6d:	d0 92 d0 95 d0 a1 00                                .......

00000074 <_ZL3s16>:
      74:	d0 a3 d0 a1 d0 a2 d0 90 d0 9d d0 9e d0 92 d0 98     ................
	...

00000085 <_ZL3s15>:
      85:	d0 a3 d0 a1 d0 a2 d0 90 d0 9d d0 9e d0 92 d0 9a     ................
      95:	d0 90 00                                            ...

00000098 <_ZL3s14>:
      98:	d0 9a d0 90 d0 a2 d0 a3 d0 a8 d0 9a d0 90 00        ...............

000000a7 <_ZL3s13>:
      a7:	d0 a3 d0 94 d0 90 d0 9b d0 98 00                    ...........

000000b2 <_ZL3s12>:
      b2:	d0 9f d0 95 d0 a0 d0 95 d0 93 d0 a0 d0 a3 d0 97     ................
      c2:	d0 98 00                                            ...

000000c5 <_ZL3s11>:
      c5:	d0 a2 d0 95 d0 a0 d0 9c d0 98 d0 a1 d0 a2 d0 9e     ................
      d5:	d0 a0 00                                            ...

000000d8 <_ZL3s10>:
      d8:	d0 9f d0 a0 d0 9e d0 92 d0 95 d0 a0 d0 ac 00        ...............

000000e7 <_ZL2s9>:
      e7:	d0 9e d0 a8 d0 98 d0 91 d0 9a d0 90 00              .............

000000f4 <_ZL2s8>:
      f4:	d0 92 d0 9b d0 90 d0 96 d0 9d d0 9e d0 a1 d0 a2     ................
     104:	d0 ac 00                                            ...

00000107 <_ZL2s7>:
     107:	d0 9d d0 90 d0 93 d0 a0 d0 95 d0 92 d0 90 d0 a2     ................
     117:	d0 95 d0 9b d0 ac 00                                .......

0000011e <_ZL2s6>:
     11e:	d0 92 d0 9e d0 97 d0 94 d0 a3 d0 a5 00              .............

0000012b <_ZL2s5>:
     12b:	d0 a1 d0 9e d0 a5 d0 a0 d0 90 d0 9d d0 95 d0 9d     ................
     13b:	d0 9e 00                                            ...

0000013e <_ZL2s4>:
     13e:	d0 9e d0 a5 d0 9b d0 90 d0 96 d0 94 d0 95 d0 9d     ................
     14e:	d0 98 d0 95 00                                      .....

00000153 <_ZL2s3>:
     153:	30 2e 35 2e 30 00                                   0.5.0.

00000159 <_ZL2s2>:
     159:	d0 92 d0 95 d0 a0 d0 a1 d0 98 d0 af 00              .............

00000166 <_ZL2s1>:
     166:	d0 90 d0 99 d0 94 d0 a0 d0 90 d0 99 00              .............

00000173 <_ZL2s0>:
     173:	d0 9f d0 a0 d0 9e d0 a8 d0 98 d0 92 d0 9a d0 90     ................
	...

00000184 <_ZL11temptable_6>:
     184:	10 00 5e 01 c0 01 fa 00 f0 01 f5 00 30 02 f0 00     ..^.........0...
     194:	70 02 eb 00 a0 02 e6 00 c0 02 e1 00 10 03 dc 00     p...............
     1a4:	50 03 d7 00 e0 03 d2 00 70 04 cd 00 e0 04 c8 00     P.......p.......
     1b4:	e0 05 be 00 60 06 b9 00 40 07 aa 00 f0 08 a0 00     ....`...@.......
     1c4:	70 0b 96 00 f0 0d 8c 00 e0 10 82 00 e0 13 78 00     p.............x.
     1d4:	f0 17 6e 00 d0 19 69 00 70 1b 64 00 40 1e 5f 00     ..n...i.p.d.@._.
     1e4:	10 20 5a 00 f0 25 50 00 80 29 46 00 d0 30 3c 00     . Z..%P..)F..0<.
     1f4:	a0 32 37 00 10 35 32 00 20 39 2d 00 20 39 28 00     .27..52. 9-. 9(.
     204:	70 3a 23 00 a0 3b 1e 00 a0 3c 19 00 20 3d 16 00     p:#..;...<.. =..
     214:	00 3f 03 00 f0 3f 00 00                             .?...?..

0000021c <_ZL3i51>:
     21c:	d0 a3 d0 a1 d0 a2 d0 90 d0 9d d0 9e d0 92 d0 9a     ................
     22c:	d0 90 00                                            ...

0000022f <_ZL3i50>:
     22f:	d0 a2 d0 90 d0 a0 d0 90 00                          .........

00000238 <_ZL3i49>:
     238:	d0 9a d0 90 d0 a2 d0 a3 d0 a8 d0 9a d0 90 20 34     .............. 4
	...

00000249 <_ZL3i48>:
     249:	d0 a3 d0 a1 d0 a2 d0 90 d0 9d d0 9e d0 92 d0 9a     ................
     259:	d0 90 00                                            ...

0000025c <_ZL3i47>:
     25c:	d0 a2 d0 90 d0 a0 d0 90 00                          .........

00000265 <_ZL3i46>:
     265:	d0 9a d0 90 d0 a2 d0 a3 d0 a8 d0 9a d0 90 20 33     .............. 3
	...

00000276 <_ZL3i45>:
     276:	d0 a3 d0 a1 d0 a2 d0 90 d0 9d d0 9e d0 92 d0 9a     ................
     286:	d0 90 00                                            ...

00000289 <_ZL3i44>:
     289:	d0 a2 d0 90 d0 a0 d0 90 00                          .........

00000292 <_ZL3i43>:
     292:	d0 9a d0 90 d0 a2 d0 a3 d0 a8 d0 9a d0 90 20 32     .............. 2
	...

000002a3 <_ZL3i42>:
     2a3:	d0 a3 d0 a1 d0 a2 d0 90 d0 9d d0 9e d0 92 d0 9a     ................
     2b3:	d0 90 00                                            ...

000002b6 <_ZL3i41>:
     2b6:	d0 a2 d0 90 d0 a0 d0 90 00                          .........

000002bf <_ZL3i40>:
     2bf:	d0 9a d0 90 d0 a2 d0 a3 d0 a8 d0 9a d0 90 20 31     .............. 1
	...

000002d0 <_ZL3i39>:
     2d0:	d0 92 d0 95 d0 a1 d0 ab 00                          .........

000002d9 <_ZL3i38>:
     2d9:	d0 a1 d0 9e d0 a5 d0 a0 d0 90 d0 9d d0 98 d0 a2     ................
     2e9:	d0 ac 00                                            ...

000002ec <_ZL3i37>:
     2ec:	d0 a2 d0 95 d0 a1 d0 a2 00                          .........

000002f5 <_ZL3i36>:
     2f5:	d0 a3 d0 93 d0 9e d0 9b 00                          .........

000002fe <_ZL3i35>:
     2fe:	d0 9e d0 a2 d0 9a d0 a0 d0 ab d0 a2 d0 9e 00        ...............

0000030d <_ZL3i34>:
     30d:	d0 97 d0 90 d0 9a d0 a0 d0 ab d0 a2 d0 9e 00        ...............

0000031c <_ZL3i33>:
     31c:	d0 a1 d0 95 d0 a0 d0 92 d0 9e 00                    ...........

00000327 <_ZL3i32>:
     327:	d0 94 d0 95 d0 9b d0 ac d0 a2 d0 90 00              .............

00000334 <_ZL3i31>:
     334:	d0 9e d0 91 d0 94 d0 a3 d0 92 00                    ...........

0000033f <_ZL3i28>:
     33f:	d0 92 d0 a0 d0 95 d0 9c d0 af 2f d0 9c d0 a1 00     ........../.....

0000034f <_ZL3i27>:
     34f:	d0 90 d0 92 d0 a2 d0 9e d0 9f d0 98 d0 94 00        ...............

0000035e <_ZL3i26>:
     35e:	d0 9a d0 94 00                                      .....

00000363 <_ZL3i25>:
     363:	d0 9a d0 98 00                                      .....

00000368 <_ZL3i24>:
     368:	d0 9a d0 9f 00                                      .....

0000036d <_ZL3i23>:
     36d:	d0 9f d0 98 d0 94 00                                .......

00000374 <_ZL3i22>:
     374:	d0 9d d0 90 d0 a1 d0 a2 d0 a0 d0 9e d0 99 d0 9a     ................
     384:	d0 98 00                                            ...

00000387 <_ZL3i18>:
     387:	d0 90 d0 91 d0 a1 00                                .......

0000038e <_ZL3i14>:
     38e:	d0 9f d0 95 d0 a2 d0 93 00                          .........

00000397 <_ZL3i10>:
     397:	d0 9f d0 9b d0 90 00                                .......

0000039e <_ZL2i9>:
     39e:	d0 9f d0 a0 d0 95 d0 a1 d0 95 d0 a2 d0 ab 00        ...............

000003ad <_ZL2i7>:
     3ad:	d0 92 d0 9b d0 90 d0 96 d0 9d d0 9e d0 a1 d0 a2     ................
     3bd:	d0 ac 00                                            ...

000003c0 <_ZL2i5>:
     3c0:	d0 a5 d0 a0 d0 90 d0 9d d0 95 d0 9d d0 98 d0 95     ................
	...

000003d1 <_ZL2i4>:
     3d1:	d0 a1 d0 a2 d0 90 d0 a0 d0 a2 00                    ...........

000003dc <_ZL2i3>:
     3dc:	d0 92 d0 a0 d0 95 d0 9c d0 af 00                    ...........

000003e7 <_ZL2i2>:
     3e7:	d0 a2 d0 95 d0 9c d0 9f d0 95 d0 a0 d0 90 d0 a2     ................
     3f7:	d0 a3 d0 a0 d0 90 00                                .......

000003fe <_ZL2i1>:
     3fe:	d0 a1 d0 a3 d0 a8 d0 9a d0 90 00                    ...........

00000409 <_ZL2i0>:
     409:	d0 9c d0 95 d0 9d d0 ae 00                          .........

00000412 <_ZL10serviceTxt>:
     412:	73 01 66 01 59 01 53 01 3e 01 2b 01 1e 01 07 01     s.f.Y.S.>.+.....
     422:	f4 00 e7 00 d8 00 c5 00 b2 00 a7 00 98 00 85 00     ................
     432:	74 00 6d 00 68 00                                   t.m.h.

00000438 <port_to_mode_PGM>:
     438:	00 00 00 00 24 00 27 00 2a 00                       ....$.'.*.

00000442 <port_to_output_PGM>:
     442:	00 00 00 00 25 00 28 00 2b 00                       ....%.(.+.

0000044c <port_to_input_PGM>:
     44c:	00 00 00 00 23 00 26 00 29 00                       ....#.&.).

00000456 <digital_pin_to_port_PGM>:
     456:	04 04 04 04 04 04 04 04 02 02 02 02 02 02 03 03     ................
     466:	03 03 03 03 02 02 03                                .......

0000046d <digital_pin_to_bit_mask_PGM>:
     46d:	01 02 04 08 10 20 40 80 01 02 04 08 10 20 01 02     ..... @...... ..
     47d:	04 08 10 20 40 80 40                                ... @.@

00000484 <digital_pin_to_timer_PGM>:
     484:	00 00 00 09 00 03 02 00 00 04 05 08 00 00 00 00     ................
     494:	00 00 00 00 00 00 00                                .......

0000049b <_ZL7menuTxt>:
     49b:	09 04 fe 03 e7 03 dc 03 d1 03 c0 03 e7 03 ad 03     ................
     4ab:	d1 03 9e 03 97 03 e7 03 dc 03 d1 03 8e 03 e7 03     ................
     4bb:	dc 03 d1 03 87 03 e7 03 dc 03 d1 03 74 03 6d 03     ............t.m.
     4cb:	68 03 63 03 5e 03 4f 03 3f 03 e7 03 d1 03 34 03     h.c.^.O.?.....4.
     4db:	27 03 1c 03 0d 03 fe 02 f5 02 ec 02 d9 02 d0 02     '...............
     4eb:	bf 02 b6 02 a3 02 92 02 89 02 76 02 65 02 5c 02     ..........v.e.\.
     4fb:	49 02 38 02 2f 02 1c 02                             I.8./...

00000503 <_ZL9u8g2_font>:
     503:	3a 00 03 02 04 04 04 05 05 08 10 00 fe 0e fe 0b     :...............
     513:	ff 00 00 00 00 01 43 20 05 00 e8 31 21 08 a1 0c     ......C ...1!...
     523:	31 0e 89 00 22 08 45 8a 31 32 b7 00 23 0f a6 09     1...".E.12..#...
     533:	b1 7a 1a 86 24 6a 19 86 a8 27 00 24 11 a7 09 f1     .z..$j...'.$....
     543:	c2 41 89 22 29 9c c7 48 aa 0c 62 06 25 14 a7 09     .A.")..H..b.%...
     553:	71 34 29 29 25 91 92 c6 69 22 25 51 52 d2 14 00     q4))%...i"%QR...
     563:	26 11 a7 09 b1 b6 52 56 09 c5 24 d2 12 31 c9 a4     &.....RV..$..1..
     573:	29 27 07 41 8c 31 86 00 28 0c c3 fb b0 92 28 89     )'.A.1..(.....(.
     583:	7a 8b b2 00 29 0c c3 fa 30 b2 28 8b 7a 89 92 08     z...)...0.(.z...
     593:	2a 0d 77 19 f1 4a 95 b6 2d 69 aa 65 00 2b 0b 77     *.w..J..-i.e.+.w
     5a3:	19 f1 e2 da 30 64 71 0d 2c 08 42 eb 30 94 44 01     ....0dq.,.B.0.D.
     5b3:	2d 07 14 4a 31 86 00 2e 07 22 0b 31 86 00 2f 0c     -..J1....".1../.
     5c3:	a6 09 71 8b d5 30 0d ab 29 00 30 11 a6 09 b1 b4     ..q..0..).0.....
     5d3:	28 09 b5 29 51 a2 4d 4c a2 4c 02 31 0b a5 0a b1     (..)Q.ML.L.1....
     5e3:	32 29 09 fb 34 08 32 0e a6 09 71 86 24 14 d3 4c     2)..4.2...q.$..L
     5f3:	0b ab e9 30 33 10 a6 09 71 86 24 14 d3 68 4e 45     ...03...q.$..hNE
     603:	31 19 12 00 34 10 a6 09 31 43 2d 89 2a 59 92 25     1...4...1C-.*Y.%
     613:	c3 98 56 00 35 0e a6 09 31 0e 69 75 90 d3 54 4c     ..V.5...1.iu..TL
     623:	86 04 36 0e a6 09 b1 a6 30 4d 07 25 74 4c 86 04     ..6.....0M.%tL..
     633:	37 0b a6 09 31 ae c5 b4 98 36 01 38 0f a6 09 71     7...1....6.8...q
     643:	86 24 34 26 43 12 3a 26 43 02 39 0e a6 09 71 86     .$4&C.:&C.9...q.
     653:	24 34 26 83 da 18 4d 00 00 00 00 04 ff ff 04 10     $4&...M.........
     663:	0e a6 09 b1 b4 a8 25 14 87 41 74 0c 04 11 0f a6     ......%..At.....
     673:	09 31 06 25 ad 0e 4a e8 38 2c 00 04 12 0f a6 09     .1.%..J.8,......
     683:	31 06 25 34 0e 4b e8 38 2c 00 04 13 0a a6 09 31     1.%4.K.8,......1
     693:	0e 69 7f 05 04 14 13 c8 e8 30 c7 28 8c c2 28 eb     .i.......0.(..(.
     6a3:	53 18 85 c9 70 96 03 04 15 0d a6 09 31 0e 69 75     S...p.......1.iu
     6b3:	50 d2 d6 61 04 16 13 a7 09 31 a2 48 aa 34 25 b5     P..a.....1.H.4%.
     6c3:	71 4b 4a 49 53 24 15 04 17 11 a6 09 71 86 24 4c     qKJIS$......q.$L
     6d3:	2b 43 1a a7 62 32 24 00 04 18 11 a6 09 31 42 ed     +C..b2$......1B.
     6e3:	94 48 89 12 29 d1 b6 89 01 04 19 14 d6 09 71 a2     .H..).........q.
     6f3:	4c 47 42 ed 94 48 89 12 29 d1 b6 89 01 04 1a 11     LGB..H..).......
     703:	a6 09 31 b2 a9 4b 96 64 62 92 45 b5 24 0c 04 1b     ..1..K.db.E.$...
     713:	0e a6 09 b1 86 a8 ff 4b 96 64 62 00 04 1c 0e a6     .......K.db.....
     723:	09 31 42 71 1a a2 c5 a3 63 00 04 1d 0c a6 09 31     .1Bq....c......1
     733:	42 c7 61 10 3d 06 04 1e 0d a6 09 71 86 24 f4 c7     B.a.=......q.$..
     743:	64 48 00 04 1f 0a a6 09 31 0e a1 7f 0c 04 20 0d     dH......1..... .
     753:	a6 09 31 06 25 34 0e 4b da 15 04 21 0e a6 09 71     ..1.%4.K...!...q
     763:	86 24 b4 76 14 93 21 01 04 22 0b a7 09 31 0e 59     .$.v..!.."...1.Y
     773:	dc df 00 04 23 12 a7 09 31 52 35 c9 a2 ac 12 26     ....#...1R5....&
     783:	69 9c a6 22 00 04 24 14 b7 09 f1 c2 41 89 22 29     i.."..$.....A.")
     793:	92 22 29 92 2a 83 18 d7 00 04 25 10 a6 09 31 42     .").*.....%...1B
     7a3:	31 89 da 44 2d 6a 09 c5 00 04 26 17 c7 e9 30 c2     1..D-j....&...0.
     7b3:	24 4c c2 24 4c c2 24 4c c2 24 4c c2 64 18 e2 02     $L.$L.$L.$L.d...
     7c3:	04 27 0b a6 09 31 42 df 94 25 6d 04 28 16 a7 09     .'...1B..%m.(...
     7d3:	31 a2 48 8a a4 48 8a a4 48 8a a4 48 8a a4 68 18     1.H..H..H..H..h.
     7e3:	04 04 29 1a c8 e8 30 a2 4a 54 89 2a 51 25 aa 44     ..)...0.JT.*Q%.D
     7f3:	95 a8 12 55 a2 ca 30 e8 40 0e 04 04 2a 11 a7 09     ...U..0.@...*...
     803:	31 e6 e6 21 2b 65 51 16 65 d1 90 00 04 2b 12 a6     1..!+eQ.e....+..
     813:	09 31 42 c7 21 92 12 29 91 12 29 19 a2 00 04 2c     .1B.!..)..)....,
     823:	0d a6 09 31 d2 d6 41 09 1d 87 05 04 2d 0f a6 09     ...1..A.....-...
     833:	71 a6 2c 4e 93 41 ad 6a d1 04 04 2e 15 a6 09 31     q.,N.A.j.......1
     843:	22 a5 a4 44 4a 34 44 4a a4 44 4a a4 44 16 00 04     "..DJ4DJ.DJ.D...
     853:	2f 10 a6 09 71 86 d1 98 0c 52 25 4b 32 51 0c 00     /...q....R%K2Q..
	...

00000864 <__ctors_start>:
     864:	ca 2b       	or	r28, r26

00000866 <__ctors_end>:
     866:	71 38       	cpi	r23, 0x81	; 129

00000868 <__dtors_end>:
     868:	11 24       	eor	r1, r1
     86a:	1f be       	out	0x3f, r1	; 63
     86c:	cf ef       	ldi	r28, 0xFF	; 255
     86e:	d8 e0       	ldi	r29, 0x08	; 8
     870:	de bf       	out	0x3e, r29	; 62
     872:	cd bf       	out	0x3d, r28	; 61

00000874 <__do_copy_data>:
     874:	12 e0       	ldi	r17, 0x02	; 2
     876:	a0 e0       	ldi	r26, 0x00	; 0
     878:	b1 e0       	ldi	r27, 0x01	; 1
     87a:	ea e3       	ldi	r30, 0x3A	; 58
     87c:	ff e7       	ldi	r31, 0x7F	; 127
     87e:	02 c0       	rjmp	.+4      	; 0x884 <__do_copy_data+0x10>
     880:	05 90       	lpm	r0, Z+
     882:	0d 92       	st	X+, r0
     884:	aa 35       	cpi	r26, 0x5A	; 90
     886:	b1 07       	cpc	r27, r17
     888:	d9 f7       	brne	.-10     	; 0x880 <__do_copy_data+0xc>

0000088a <__do_clear_bss>:
     88a:	26 e0       	ldi	r18, 0x06	; 6
     88c:	aa e5       	ldi	r26, 0x5A	; 90
     88e:	b2 e0       	ldi	r27, 0x02	; 2
     890:	01 c0       	rjmp	.+2      	; 0x894 <.do_clear_bss_start>

00000892 <.do_clear_bss_loop>:
     892:	1d 92       	st	X+, r1

00000894 <.do_clear_bss_start>:
     894:	a9 3c       	cpi	r26, 0xC9	; 201
     896:	b2 07       	cpc	r27, r18
     898:	e1 f7       	brne	.-8      	; 0x892 <.do_clear_bss_loop>

0000089a <__do_global_ctors>:
     89a:	14 e0       	ldi	r17, 0x04	; 4
     89c:	c3 e3       	ldi	r28, 0x33	; 51
     89e:	d4 e0       	ldi	r29, 0x04	; 4
     8a0:	04 c0       	rjmp	.+8      	; 0x8aa <__do_global_ctors+0x10>
     8a2:	21 97       	sbiw	r28, 0x01	; 1
     8a4:	fe 01       	movw	r30, r28
     8a6:	0e 94 f6 3b 	call	0x77ec	; 0x77ec <__tablejump2__>
     8aa:	c2 33       	cpi	r28, 0x32	; 50
     8ac:	d1 07       	cpc	r29, r17
     8ae:	c9 f7       	brne	.-14     	; 0x8a2 <__do_global_ctors+0x8>
     8b0:	0e 94 6d 2e 	call	0x5cda	; 0x5cda <main>
     8b4:	0c 94 90 3f 	jmp	0x7f20	; 0x7f20 <__do_global_dtors>

000008b8 <__bad_interrupt>:
     8b8:	0c 94 00 00 	jmp	0	; 0x0 <__vectors>

000008bc <u8x8_ascii_next>:
     8bc:	66 23       	and	r22, r22
     8be:	29 f0       	breq	.+10     	; 0x8ca <u8x8_ascii_next+0xe>
     8c0:	6a 30       	cpi	r22, 0x0A	; 10
     8c2:	19 f0       	breq	.+6      	; 0x8ca <u8x8_ascii_next+0xe>
     8c4:	86 2f       	mov	r24, r22
     8c6:	90 e0       	ldi	r25, 0x00	; 0
     8c8:	08 95       	ret
     8ca:	8f ef       	ldi	r24, 0xFF	; 255
     8cc:	9f ef       	ldi	r25, 0xFF	; 255
     8ce:	08 95       	ret

000008d0 <u8g2_ll_hvline_vertical_top_lsb>:
     8d0:	af 92       	push	r10
     8d2:	bf 92       	push	r11
     8d4:	cf 92       	push	r12
     8d6:	df 92       	push	r13
     8d8:	ef 92       	push	r14
     8da:	ff 92       	push	r15
     8dc:	0f 93       	push	r16
     8de:	cf 93       	push	r28
     8e0:	df 93       	push	r29
     8e2:	ec 01       	movw	r28, r24
     8e4:	da 01       	movw	r26, r20
     8e6:	79 01       	movw	r14, r18
     8e8:	94 2f       	mov	r25, r20
     8ea:	97 70       	andi	r25, 0x07	; 7
     8ec:	e1 e0       	ldi	r30, 0x01	; 1
     8ee:	f0 e0       	ldi	r31, 0x00	; 0
     8f0:	9f 01       	movw	r18, r30
     8f2:	09 2e       	mov	r0, r25
     8f4:	01 c0       	rjmp	.+2      	; 0x8f8 <u8g2_ll_hvline_vertical_top_lsb+0x28>
     8f6:	22 0f       	add	r18, r18
     8f8:	0a 94       	dec	r0
     8fa:	ea f7       	brpl	.-6      	; 0x8f6 <u8g2_ll_hvline_vertical_top_lsb+0x26>
     8fc:	52 2f       	mov	r21, r18
     8fe:	6e 01       	movw	r12, r28
     900:	8a e8       	ldi	r24, 0x8A	; 138
     902:	c8 0e       	add	r12, r24
     904:	d1 1c       	adc	r13, r1
     906:	f6 01       	movw	r30, r12
     908:	80 81       	ld	r24, Z
     90a:	40 e0       	ldi	r20, 0x00	; 0
     90c:	82 30       	cpi	r24, 0x02	; 2
     90e:	18 f4       	brcc	.+6      	; 0x916 <__stack+0x17>
     910:	42 2f       	mov	r20, r18
     912:	81 30       	cpi	r24, 0x01	; 1
     914:	49 f1       	breq	.+82     	; 0x968 <__stack+0x69>
     916:	5d 01       	movw	r10, r26
     918:	f8 ef       	ldi	r31, 0xF8	; 248
     91a:	af 22       	and	r10, r31
     91c:	e8 ad       	ldd	r30, Y+56	; 0x38
     91e:	f9 ad       	ldd	r31, Y+57	; 0x39
     920:	28 81       	ld	r18, Y
     922:	39 81       	ldd	r19, Y+1	; 0x01
     924:	d9 01       	movw	r26, r18
     926:	50 96       	adiw	r26, 0x10	; 16
     928:	8c 91       	ld	r24, X
     92a:	8a 9d       	mul	r24, r10
     92c:	90 01       	movw	r18, r0
     92e:	8b 9d       	mul	r24, r11
     930:	30 0d       	add	r19, r0
     932:	11 24       	eor	r1, r1
     934:	62 0f       	add	r22, r18
     936:	73 1f       	adc	r23, r19
     938:	df 01       	movw	r26, r30
     93a:	a6 0f       	add	r26, r22
     93c:	b7 1f       	adc	r27, r23
     93e:	01 11       	cpse	r16, r1
     940:	1a c0       	rjmp	.+52     	; 0x976 <__stack+0x77>
     942:	ea 0e       	add	r14, r26
     944:	fb 1e       	adc	r15, r27
     946:	8c 91       	ld	r24, X
     948:	84 2b       	or	r24, r20
     94a:	85 27       	eor	r24, r21
     94c:	8d 93       	st	X+, r24
     94e:	ae 15       	cp	r26, r14
     950:	bf 05       	cpc	r27, r15
     952:	c9 f7       	brne	.-14     	; 0x946 <__stack+0x47>
     954:	df 91       	pop	r29
     956:	cf 91       	pop	r28
     958:	0f 91       	pop	r16
     95a:	ff 90       	pop	r15
     95c:	ef 90       	pop	r14
     95e:	df 90       	pop	r13
     960:	cf 90       	pop	r12
     962:	bf 90       	pop	r11
     964:	af 90       	pop	r10
     966:	08 95       	ret
     968:	50 e0       	ldi	r21, 0x00	; 0
     96a:	d5 cf       	rjmp	.-86     	; 0x916 <__stack+0x17>
     96c:	44 0f       	add	r20, r20
     96e:	55 0f       	add	r21, r21
     970:	e1 14       	cp	r14, r1
     972:	f1 04       	cpc	r15, r1
     974:	79 f3       	breq	.-34     	; 0x954 <__stack+0x55>
     976:	3c 91       	ld	r19, X
     978:	34 2b       	or	r19, r20
     97a:	35 27       	eor	r19, r21
     97c:	3c 93       	st	X, r19
     97e:	9f 5f       	subi	r25, 0xFF	; 255
     980:	97 70       	andi	r25, 0x07	; 7
     982:	e1 e0       	ldi	r30, 0x01	; 1
     984:	ee 1a       	sub	r14, r30
     986:	f1 08       	sbc	r15, r1
     988:	91 11       	cpse	r25, r1
     98a:	f0 cf       	rjmp	.-32     	; 0x96c <__stack+0x6d>
     98c:	2c ad       	ldd	r18, Y+60	; 0x3c
     98e:	3d ad       	ldd	r19, Y+61	; 0x3d
     990:	a2 0f       	add	r26, r18
     992:	b3 1f       	adc	r27, r19
     994:	f6 01       	movw	r30, r12
     996:	80 81       	ld	r24, Z
     998:	82 30       	cpi	r24, 0x02	; 2
     99a:	28 f4       	brcc	.+10     	; 0x9a6 <__stack+0xa7>
     99c:	81 30       	cpi	r24, 0x01	; 1
     99e:	09 f0       	breq	.+2      	; 0x9a2 <__stack+0xa3>
     9a0:	51 e0       	ldi	r21, 0x01	; 1
     9a2:	41 e0       	ldi	r20, 0x01	; 1
     9a4:	e5 cf       	rjmp	.-54     	; 0x970 <__stack+0x71>
     9a6:	51 e0       	ldi	r21, 0x01	; 1
     9a8:	e3 cf       	rjmp	.-58     	; 0x970 <__stack+0x71>

000009aa <u8x8_dummy_cb>:
     9aa:	80 e0       	ldi	r24, 0x00	; 0
     9ac:	08 95       	ret

000009ae <u8g2_font_calc_vref_font>:
     9ae:	90 e0       	ldi	r25, 0x00	; 0
     9b0:	80 e0       	ldi	r24, 0x00	; 0
     9b2:	08 95       	ret

000009b4 <_ZN3PID10SetTuningsEdddi.constprop.72>:
     9b4:	4f 92       	push	r4
     9b6:	5f 92       	push	r5
     9b8:	6f 92       	push	r6
     9ba:	7f 92       	push	r7
     9bc:	8f 92       	push	r8
     9be:	9f 92       	push	r9
     9c0:	af 92       	push	r10
     9c2:	bf 92       	push	r11
     9c4:	cf 92       	push	r12
     9c6:	df 92       	push	r13
     9c8:	ef 92       	push	r14
     9ca:	ff 92       	push	r15
     9cc:	0f 93       	push	r16
     9ce:	1f 93       	push	r17
     9d0:	cf 93       	push	r28
     9d2:	df 93       	push	r29
     9d4:	00 d0       	rcall	.+0      	; 0x9d6 <_ZN3PID10SetTuningsEdddi.constprop.72+0x22>
     9d6:	00 d0       	rcall	.+0      	; 0x9d8 <_ZN3PID10SetTuningsEdddi.constprop.72+0x24>
     9d8:	cd b7       	in	r28, 0x3d	; 61
     9da:	de b7       	in	r29, 0x3e	; 62
     9dc:	4b 01       	movw	r8, r22
     9de:	5c 01       	movw	r10, r24
     9e0:	29 01       	movw	r4, r18
     9e2:	3a 01       	movw	r6, r20
     9e4:	67 01       	movw	r12, r14
     9e6:	78 01       	movw	r14, r16
     9e8:	20 e0       	ldi	r18, 0x00	; 0
     9ea:	30 e0       	ldi	r19, 0x00	; 0
     9ec:	a9 01       	movw	r20, r18
     9ee:	0e 94 69 3c 	call	0x78d2	; 0x78d2 <__cmpsf2>
     9f2:	87 fd       	sbrc	r24, 7
     9f4:	a3 c0       	rjmp	.+326    	; 0xb3c <_ZN3PID10SetTuningsEdddi.constprop.72+0x188>
     9f6:	20 e0       	ldi	r18, 0x00	; 0
     9f8:	30 e0       	ldi	r19, 0x00	; 0
     9fa:	a9 01       	movw	r20, r18
     9fc:	c3 01       	movw	r24, r6
     9fe:	b2 01       	movw	r22, r4
     a00:	0e 94 69 3c 	call	0x78d2	; 0x78d2 <__cmpsf2>
     a04:	87 fd       	sbrc	r24, 7
     a06:	9a c0       	rjmp	.+308    	; 0xb3c <_ZN3PID10SetTuningsEdddi.constprop.72+0x188>
     a08:	20 e0       	ldi	r18, 0x00	; 0
     a0a:	30 e0       	ldi	r19, 0x00	; 0
     a0c:	a9 01       	movw	r20, r18
     a0e:	c8 01       	movw	r24, r16
     a10:	b6 01       	movw	r22, r12
     a12:	0e 94 69 3c 	call	0x78d2	; 0x78d2 <__cmpsf2>
     a16:	87 fd       	sbrc	r24, 7
     a18:	91 c0       	rjmp	.+290    	; 0xb3c <_ZN3PID10SetTuningsEdddi.constprop.72+0x188>
     a1a:	81 e0       	ldi	r24, 0x01	; 1
     a1c:	90 e0       	ldi	r25, 0x00	; 0
     a1e:	90 93 4c 05 	sts	0x054C, r25	; 0x80054c <pid+0x1b>
     a22:	80 93 4b 05 	sts	0x054B, r24	; 0x80054b <pid+0x1a>
     a26:	80 93 6c 05 	sts	0x056C, r24	; 0x80056c <pid+0x3b>
     a2a:	80 92 31 05 	sts	0x0531, r8	; 0x800531 <pid>
     a2e:	90 92 32 05 	sts	0x0532, r9	; 0x800532 <pid+0x1>
     a32:	a0 92 33 05 	sts	0x0533, r10	; 0x800533 <pid+0x2>
     a36:	b0 92 34 05 	sts	0x0534, r11	; 0x800534 <pid+0x3>
     a3a:	40 92 35 05 	sts	0x0535, r4	; 0x800535 <pid+0x4>
     a3e:	50 92 36 05 	sts	0x0536, r5	; 0x800536 <pid+0x5>
     a42:	60 92 37 05 	sts	0x0537, r6	; 0x800537 <pid+0x6>
     a46:	70 92 38 05 	sts	0x0538, r7	; 0x800538 <pid+0x7>
     a4a:	c0 92 39 05 	sts	0x0539, r12	; 0x800539 <pid+0x8>
     a4e:	d0 92 3a 05 	sts	0x053A, r13	; 0x80053a <pid+0x9>
     a52:	e0 92 3b 05 	sts	0x053B, r14	; 0x80053b <pid+0xa>
     a56:	f0 92 3c 05 	sts	0x053C, r15	; 0x80053c <pid+0xb>
     a5a:	60 91 5f 05 	lds	r22, 0x055F	; 0x80055f <pid+0x2e>
     a5e:	70 91 60 05 	lds	r23, 0x0560	; 0x800560 <pid+0x2f>
     a62:	80 91 61 05 	lds	r24, 0x0561	; 0x800561 <pid+0x30>
     a66:	90 91 62 05 	lds	r25, 0x0562	; 0x800562 <pid+0x31>
     a6a:	0e 94 16 3d 	call	0x7a2c	; 0x7a2c <__floatunsisf>
     a6e:	20 e0       	ldi	r18, 0x00	; 0
     a70:	30 e0       	ldi	r19, 0x00	; 0
     a72:	4a e7       	ldi	r20, 0x7A	; 122
     a74:	54 e4       	ldi	r21, 0x44	; 68
     a76:	0e 94 6e 3c 	call	0x78dc	; 0x78dc <__divsf3>
     a7a:	69 83       	std	Y+1, r22	; 0x01
     a7c:	7a 83       	std	Y+2, r23	; 0x02
     a7e:	8b 83       	std	Y+3, r24	; 0x03
     a80:	9c 83       	std	Y+4, r25	; 0x04
     a82:	80 92 3d 05 	sts	0x053D, r8	; 0x80053d <pid+0xc>
     a86:	90 92 3e 05 	sts	0x053E, r9	; 0x80053e <pid+0xd>
     a8a:	a0 92 3f 05 	sts	0x053F, r10	; 0x80053f <pid+0xe>
     a8e:	b0 92 40 05 	sts	0x0540, r11	; 0x800540 <pid+0xf>
     a92:	9b 01       	movw	r18, r22
     a94:	ac 01       	movw	r20, r24
     a96:	c3 01       	movw	r24, r6
     a98:	b2 01       	movw	r22, r4
     a9a:	0e 94 cd 3d 	call	0x7b9a	; 0x7b9a <__mulsf3>
     a9e:	2b 01       	movw	r4, r22
     aa0:	3c 01       	movw	r6, r24
     aa2:	40 92 41 05 	sts	0x0541, r4	; 0x800541 <pid+0x10>
     aa6:	50 92 42 05 	sts	0x0542, r5	; 0x800542 <pid+0x11>
     aaa:	60 92 43 05 	sts	0x0543, r6	; 0x800543 <pid+0x12>
     aae:	70 92 44 05 	sts	0x0544, r7	; 0x800544 <pid+0x13>
     ab2:	29 81       	ldd	r18, Y+1	; 0x01
     ab4:	3a 81       	ldd	r19, Y+2	; 0x02
     ab6:	4b 81       	ldd	r20, Y+3	; 0x03
     ab8:	5c 81       	ldd	r21, Y+4	; 0x04
     aba:	c8 01       	movw	r24, r16
     abc:	b6 01       	movw	r22, r12
     abe:	0e 94 6e 3c 	call	0x78dc	; 0x78dc <__divsf3>
     ac2:	6b 01       	movw	r12, r22
     ac4:	7c 01       	movw	r14, r24
     ac6:	c0 92 45 05 	sts	0x0545, r12	; 0x800545 <pid+0x14>
     aca:	d0 92 46 05 	sts	0x0546, r13	; 0x800546 <pid+0x15>
     ace:	e0 92 47 05 	sts	0x0547, r14	; 0x800547 <pid+0x16>
     ad2:	f0 92 48 05 	sts	0x0548, r15	; 0x800548 <pid+0x17>
     ad6:	80 91 49 05 	lds	r24, 0x0549	; 0x800549 <pid+0x18>
     ada:	90 91 4a 05 	lds	r25, 0x054A	; 0x80054a <pid+0x19>
     ade:	01 97       	sbiw	r24, 0x01	; 1
     ae0:	69 f5       	brne	.+90     	; 0xb3c <_ZN3PID10SetTuningsEdddi.constprop.72+0x188>
     ae2:	a5 01       	movw	r20, r10
     ae4:	94 01       	movw	r18, r8
     ae6:	60 e0       	ldi	r22, 0x00	; 0
     ae8:	70 e0       	ldi	r23, 0x00	; 0
     aea:	cb 01       	movw	r24, r22
     aec:	0e 94 fc 3b 	call	0x77f8	; 0x77f8 <__subsf3>
     af0:	60 93 3d 05 	sts	0x053D, r22	; 0x80053d <pid+0xc>
     af4:	70 93 3e 05 	sts	0x053E, r23	; 0x80053e <pid+0xd>
     af8:	80 93 3f 05 	sts	0x053F, r24	; 0x80053f <pid+0xe>
     afc:	90 93 40 05 	sts	0x0540, r25	; 0x800540 <pid+0xf>
     b00:	a3 01       	movw	r20, r6
     b02:	92 01       	movw	r18, r4
     b04:	60 e0       	ldi	r22, 0x00	; 0
     b06:	70 e0       	ldi	r23, 0x00	; 0
     b08:	cb 01       	movw	r24, r22
     b0a:	0e 94 fc 3b 	call	0x77f8	; 0x77f8 <__subsf3>
     b0e:	60 93 41 05 	sts	0x0541, r22	; 0x800541 <pid+0x10>
     b12:	70 93 42 05 	sts	0x0542, r23	; 0x800542 <pid+0x11>
     b16:	80 93 43 05 	sts	0x0543, r24	; 0x800543 <pid+0x12>
     b1a:	90 93 44 05 	sts	0x0544, r25	; 0x800544 <pid+0x13>
     b1e:	a7 01       	movw	r20, r14
     b20:	96 01       	movw	r18, r12
     b22:	60 e0       	ldi	r22, 0x00	; 0
     b24:	70 e0       	ldi	r23, 0x00	; 0
     b26:	cb 01       	movw	r24, r22
     b28:	0e 94 fc 3b 	call	0x77f8	; 0x77f8 <__subsf3>
     b2c:	60 93 45 05 	sts	0x0545, r22	; 0x800545 <pid+0x14>
     b30:	70 93 46 05 	sts	0x0546, r23	; 0x800546 <pid+0x15>
     b34:	80 93 47 05 	sts	0x0547, r24	; 0x800547 <pid+0x16>
     b38:	90 93 48 05 	sts	0x0548, r25	; 0x800548 <pid+0x17>
     b3c:	0f 90       	pop	r0
     b3e:	0f 90       	pop	r0
     b40:	0f 90       	pop	r0
     b42:	0f 90       	pop	r0
     b44:	df 91       	pop	r29
     b46:	cf 91       	pop	r28
     b48:	1f 91       	pop	r17
     b4a:	0f 91       	pop	r16
     b4c:	ff 90       	pop	r15
     b4e:	ef 90       	pop	r14
     b50:	df 90       	pop	r13
     b52:	cf 90       	pop	r12
     b54:	bf 90       	pop	r11
     b56:	af 90       	pop	r10
     b58:	9f 90       	pop	r9
     b5a:	8f 90       	pop	r8
     b5c:	7f 90       	pop	r7
     b5e:	6f 90       	pop	r6
     b60:	5f 90       	pop	r5
     b62:	4f 90       	pop	r4
     b64:	08 95       	ret

00000b66 <_ZN7Timer_19setPeriodEm.constprop.155>:
     b66:	ef 92       	push	r14
     b68:	ff 92       	push	r15
     b6a:	1f 93       	push	r17
     b6c:	cf 93       	push	r28
     b6e:	df 93       	push	r29
     b70:	61 15       	cp	r22, r1
     b72:	71 05       	cpc	r23, r1
     b74:	81 05       	cpc	r24, r1
     b76:	91 05       	cpc	r25, r1
     b78:	09 f4       	brne	.+2      	; 0xb7c <_ZN7Timer_19setPeriodEm.constprop.155+0x16>
     b7a:	77 c0       	rjmp	.+238    	; 0xc6a <_ZN7Timer_19setPeriodEm.constprop.155+0x104>
     b7c:	dc 01       	movw	r26, r24
     b7e:	cb 01       	movw	r24, r22
     b80:	81 30       	cpi	r24, 0x01	; 1
     b82:	91 05       	cpc	r25, r1
     b84:	20 e4       	ldi	r18, 0x40	; 64
     b86:	a2 07       	cpc	r26, r18
     b88:	b1 05       	cpc	r27, r1
     b8a:	20 f0       	brcs	.+8      	; 0xb94 <_ZN7Timer_19setPeriodEm.constprop.155+0x2e>
     b8c:	80 e0       	ldi	r24, 0x00	; 0
     b8e:	90 e0       	ldi	r25, 0x00	; 0
     b90:	a0 e4       	ldi	r26, 0x40	; 64
     b92:	b0 e0       	ldi	r27, 0x00	; 0
     b94:	bc 01       	movw	r22, r24
     b96:	cd 01       	movw	r24, r26
     b98:	24 e0       	ldi	r18, 0x04	; 4
     b9a:	66 0f       	add	r22, r22
     b9c:	77 1f       	adc	r23, r23
     b9e:	88 1f       	adc	r24, r24
     ba0:	99 1f       	adc	r25, r25
     ba2:	2a 95       	dec	r18
     ba4:	d1 f7       	brne	.-12     	; 0xb9a <_ZN7Timer_19setPeriodEm.constprop.155+0x34>
     ba6:	61 15       	cp	r22, r1
     ba8:	71 05       	cpc	r23, r1
     baa:	21 e0       	ldi	r18, 0x01	; 1
     bac:	82 07       	cpc	r24, r18
     bae:	91 05       	cpc	r25, r1
     bb0:	08 f4       	brcc	.+2      	; 0xbb4 <_ZN7Timer_19setPeriodEm.constprop.155+0x4e>
     bb2:	60 c0       	rjmp	.+192    	; 0xc74 <_ZN7Timer_19setPeriodEm.constprop.155+0x10e>
     bb4:	61 15       	cp	r22, r1
     bb6:	71 05       	cpc	r23, r1
     bb8:	28 e0       	ldi	r18, 0x08	; 8
     bba:	82 07       	cpc	r24, r18
     bbc:	91 05       	cpc	r25, r1
     bbe:	08 f4       	brcc	.+2      	; 0xbc2 <_ZN7Timer_19setPeriodEm.constprop.155+0x5c>
     bc0:	5d c0       	rjmp	.+186    	; 0xc7c <_ZN7Timer_19setPeriodEm.constprop.155+0x116>
     bc2:	c0 e4       	ldi	r28, 0x40	; 64
     bc4:	d0 e0       	ldi	r29, 0x00	; 0
     bc6:	13 e0       	ldi	r17, 0x03	; 3
     bc8:	61 15       	cp	r22, r1
     bca:	71 05       	cpc	r23, r1
     bcc:	20 e4       	ldi	r18, 0x40	; 64
     bce:	82 07       	cpc	r24, r18
     bd0:	91 05       	cpc	r25, r1
     bd2:	60 f0       	brcs	.+24     	; 0xbec <_ZN7Timer_19setPeriodEm.constprop.155+0x86>
     bd4:	c0 e0       	ldi	r28, 0x00	; 0
     bd6:	d4 e0       	ldi	r29, 0x04	; 4
     bd8:	15 e0       	ldi	r17, 0x05	; 5
     bda:	61 15       	cp	r22, r1
     bdc:	71 05       	cpc	r23, r1
     bde:	81 05       	cpc	r24, r1
     be0:	21 e0       	ldi	r18, 0x01	; 1
     be2:	92 07       	cpc	r25, r18
     be4:	18 f4       	brcc	.+6      	; 0xbec <_ZN7Timer_19setPeriodEm.constprop.155+0x86>
     be6:	c0 e0       	ldi	r28, 0x00	; 0
     be8:	d1 e0       	ldi	r29, 0x01	; 1
     bea:	14 e0       	ldi	r17, 0x04	; 4
     bec:	f1 2c       	mov	r15, r1
     bee:	e1 2c       	mov	r14, r1
     bf0:	61 15       	cp	r22, r1
     bf2:	71 05       	cpc	r23, r1
     bf4:	81 05       	cpc	r24, r1
     bf6:	24 e0       	ldi	r18, 0x04	; 4
     bf8:	92 07       	cpc	r25, r18
     bfa:	31 f0       	breq	.+12     	; 0xc08 <_ZN7Timer_19setPeriodEm.constprop.155+0xa2>
     bfc:	9e 01       	movw	r18, r28
     bfe:	50 e0       	ldi	r21, 0x00	; 0
     c00:	40 e0       	ldi	r20, 0x00	; 0
     c02:	0e 94 a2 3b 	call	0x7744	; 0x7744 <__udivmodsi4>
     c06:	79 01       	movw	r14, r18
     c08:	80 91 80 00 	lds	r24, 0x0080	; 0x800080 <__TEXT_REGION_LENGTH__+0x7e0080>
     c0c:	80 7f       	andi	r24, 0xF0	; 240
     c0e:	80 93 80 00 	sts	0x0080, r24	; 0x800080 <__TEXT_REGION_LENGTH__+0x7e0080>
     c12:	18 61       	ori	r17, 0x18	; 24
     c14:	10 93 81 00 	sts	0x0081, r17	; 0x800081 <__TEXT_REGION_LENGTH__+0x7e0081>
     c18:	c7 01       	movw	r24, r14
     c1a:	01 97       	sbiw	r24, 0x01	; 1
     c1c:	90 93 87 00 	sts	0x0087, r25	; 0x800087 <__TEXT_REGION_LENGTH__+0x7e0087>
     c20:	80 93 86 00 	sts	0x0086, r24	; 0x800086 <__TEXT_REGION_LENGTH__+0x7e0086>
     c24:	80 91 81 00 	lds	r24, 0x0081	; 0x800081 <__TEXT_REGION_LENGTH__+0x7e0081>
     c28:	87 70       	andi	r24, 0x07	; 7
     c2a:	80 93 f0 03 	sts	0x03F0, r24	; 0x8003f0 <Timer1>
     c2e:	9e 01       	movw	r18, r28
     c30:	50 e0       	ldi	r21, 0x00	; 0
     c32:	40 e0       	ldi	r20, 0x00	; 0
     c34:	60 e0       	ldi	r22, 0x00	; 0
     c36:	74 e2       	ldi	r23, 0x24	; 36
     c38:	84 ef       	ldi	r24, 0xF4	; 244
     c3a:	90 e0       	ldi	r25, 0x00	; 0
     c3c:	0e 94 39 3b 	call	0x7672	; 0x7672 <__divmodsi4>
     c40:	ca 01       	movw	r24, r20
     c42:	b9 01       	movw	r22, r18
     c44:	97 01       	movw	r18, r14
     c46:	50 e0       	ldi	r21, 0x00	; 0
     c48:	40 e0       	ldi	r20, 0x00	; 0
     c4a:	0e 94 39 3b 	call	0x7672	; 0x7672 <__divmodsi4>
     c4e:	60 e4       	ldi	r22, 0x40	; 64
     c50:	72 e4       	ldi	r23, 0x42	; 66
     c52:	8f e0       	ldi	r24, 0x0F	; 15
     c54:	90 e0       	ldi	r25, 0x00	; 0
     c56:	0e 94 a2 3b 	call	0x7744	; 0x7744 <__udivmodsi4>
     c5a:	ca 01       	movw	r24, r20
     c5c:	b9 01       	movw	r22, r18
     c5e:	df 91       	pop	r29
     c60:	cf 91       	pop	r28
     c62:	1f 91       	pop	r17
     c64:	ff 90       	pop	r15
     c66:	ef 90       	pop	r14
     c68:	08 95       	ret
     c6a:	81 e0       	ldi	r24, 0x01	; 1
     c6c:	90 e0       	ldi	r25, 0x00	; 0
     c6e:	a0 e0       	ldi	r26, 0x00	; 0
     c70:	b0 e0       	ldi	r27, 0x00	; 0
     c72:	90 cf       	rjmp	.-224    	; 0xb94 <_ZN7Timer_19setPeriodEm.constprop.155+0x2e>
     c74:	11 e0       	ldi	r17, 0x01	; 1
     c76:	c1 e0       	ldi	r28, 0x01	; 1
     c78:	d0 e0       	ldi	r29, 0x00	; 0
     c7a:	c0 cf       	rjmp	.-128    	; 0xbfc <_ZN7Timer_19setPeriodEm.constprop.155+0x96>
     c7c:	12 e0       	ldi	r17, 0x02	; 2
     c7e:	c8 e0       	ldi	r28, 0x08	; 8
     c80:	d0 e0       	ldi	r29, 0x00	; 0
     c82:	bc cf       	rjmp	.-136    	; 0xbfc <_ZN7Timer_19setPeriodEm.constprop.155+0x96>

00000c84 <_ZN11VirtEncoder7pollEncEa.constprop.131>:
     c84:	0f 93       	push	r16
     c86:	1f 93       	push	r17
     c88:	90 91 d3 05 	lds	r25, 0x05D3	; 0x8005d3 <enc+0x12>
     c8c:	29 2f       	mov	r18, r25
     c8e:	22 95       	swap	r18
     c90:	20 7f       	andi	r18, 0xF0	; 240
     c92:	25 95       	asr	r18
     c94:	25 95       	asr	r18
     c96:	25 95       	asr	r18
     c98:	25 95       	asr	r18
     c9a:	02 2e       	mov	r0, r18
     c9c:	00 0c       	add	r0, r0
     c9e:	33 0b       	sbc	r19, r19
     ca0:	48 2f       	mov	r20, r24
     ca2:	08 2e       	mov	r0, r24
     ca4:	00 0c       	add	r0, r0
     ca6:	55 0b       	sbc	r21, r21
     ca8:	24 17       	cp	r18, r20
     caa:	35 07       	cpc	r19, r21
     cac:	21 f4       	brne	.+8      	; 0xcb6 <_ZN11VirtEncoder7pollEncEa.constprop.131+0x32>
     cae:	80 e0       	ldi	r24, 0x00	; 0
     cb0:	1f 91       	pop	r17
     cb2:	0f 91       	pop	r16
     cb4:	08 95       	ret
     cb6:	22 0f       	add	r18, r18
     cb8:	33 1f       	adc	r19, r19
     cba:	22 0f       	add	r18, r18
     cbc:	33 1f       	adc	r19, r19
     cbe:	24 2b       	or	r18, r20
     cc0:	35 2b       	or	r19, r21
     cc2:	22 0f       	add	r18, r18
     cc4:	33 1f       	adc	r19, r19
     cc6:	41 e6       	ldi	r20, 0x61	; 97
     cc8:	56 e1       	ldi	r21, 0x16	; 22
     cca:	64 e9       	ldi	r22, 0x94	; 148
     ccc:	79 e4       	ldi	r23, 0x49	; 73
     cce:	04 c0       	rjmp	.+8      	; 0xcd8 <_ZN11VirtEncoder7pollEncEa.constprop.131+0x54>
     cd0:	75 95       	asr	r23
     cd2:	67 95       	ror	r22
     cd4:	57 95       	ror	r21
     cd6:	47 95       	ror	r20
     cd8:	2a 95       	dec	r18
     cda:	d2 f7       	brpl	.-12     	; 0xcd0 <_ZN11VirtEncoder7pollEncEa.constprop.131+0x4c>
     cdc:	43 70       	andi	r20, 0x03	; 3
     cde:	95 95       	asr	r25
     ce0:	95 95       	asr	r25
     ce2:	95 95       	asr	r25
     ce4:	95 95       	asr	r25
     ce6:	91 50       	subi	r25, 0x01	; 1
     ce8:	49 0f       	add	r20, r25
     cea:	42 95       	swap	r20
     cec:	40 7f       	andi	r20, 0xF0	; 240
     cee:	45 95       	asr	r20
     cf0:	45 95       	asr	r20
     cf2:	45 95       	asr	r20
     cf4:	45 95       	asr	r20
     cf6:	94 2f       	mov	r25, r20
     cf8:	92 95       	swap	r25
     cfa:	90 7f       	andi	r25, 0xF0	; 240
     cfc:	28 2f       	mov	r18, r24
     cfe:	2f 70       	andi	r18, 0x0F	; 15
     d00:	92 2b       	or	r25, r18
     d02:	90 93 d3 05 	sts	0x05D3, r25	; 0x8005d3 <enc+0x12>
     d06:	90 7f       	andi	r25, 0xF0	; 240
     d08:	91 f2       	breq	.-92     	; 0xcae <_ZN11VirtEncoder7pollEncEa.constprop.131+0x2a>
     d0a:	90 91 d2 05 	lds	r25, 0x05D2	; 0x8005d2 <enc+0x11>
     d0e:	29 2f       	mov	r18, r25
     d10:	23 70       	andi	r18, 0x03	; 3
     d12:	21 30       	cpi	r18, 0x01	; 1
     d14:	89 f1       	breq	.+98     	; 0xd78 <_ZN11VirtEncoder7pollEncEa.constprop.131+0xf4>
     d16:	60 f1       	brcs	.+88     	; 0xd70 <_ZN11VirtEncoder7pollEncEa.constprop.131+0xec>
     d18:	22 30       	cpi	r18, 0x02	; 2
     d1a:	89 f1       	breq	.+98     	; 0xd7e <_ZN11VirtEncoder7pollEncEa.constprop.131+0xfa>
     d1c:	81 e0       	ldi	r24, 0x01	; 1
     d1e:	14 16       	cp	r1, r20
     d20:	0c f0       	brlt	.+2      	; 0xd24 <_ZN11VirtEncoder7pollEncEa.constprop.131+0xa0>
     d22:	80 e0       	ldi	r24, 0x00	; 0
     d24:	92 fb       	bst	r25, 2
     d26:	99 27       	eor	r25, r25
     d28:	90 f9       	bld	r25, 0
     d2a:	89 13       	cpse	r24, r25
     d2c:	2c c0       	rjmp	.+88     	; 0xd86 <_ZN11VirtEncoder7pollEncEa.constprop.131+0x102>
     d2e:	8f ef       	ldi	r24, 0xFF	; 255
     d30:	90 91 d3 05 	lds	r25, 0x05D3	; 0x8005d3 <enc+0x12>
     d34:	9f 70       	andi	r25, 0x0F	; 15
     d36:	90 93 d3 05 	sts	0x05D3, r25	; 0x8005d3 <enc+0x12>
     d3a:	40 91 ce 05 	lds	r20, 0x05CE	; 0x8005ce <enc+0xd>
     d3e:	50 91 cf 05 	lds	r21, 0x05CF	; 0x8005cf <enc+0xe>
     d42:	60 91 d0 05 	lds	r22, 0x05D0	; 0x8005d0 <enc+0xf>
     d46:	70 91 d1 05 	lds	r23, 0x05D1	; 0x8005d1 <enc+0x10>
     d4a:	08 2f       	mov	r16, r24
     d4c:	08 2e       	mov	r0, r24
     d4e:	00 0c       	add	r0, r0
     d50:	11 0b       	sbc	r17, r17
     d52:	22 0b       	sbc	r18, r18
     d54:	33 0b       	sbc	r19, r19
     d56:	40 0f       	add	r20, r16
     d58:	51 1f       	adc	r21, r17
     d5a:	62 1f       	adc	r22, r18
     d5c:	73 1f       	adc	r23, r19
     d5e:	40 93 ce 05 	sts	0x05CE, r20	; 0x8005ce <enc+0xd>
     d62:	50 93 cf 05 	sts	0x05CF, r21	; 0x8005cf <enc+0xe>
     d66:	60 93 d0 05 	sts	0x05D0, r22	; 0x8005d0 <enc+0xf>
     d6a:	70 93 d1 05 	sts	0x05D1, r23	; 0x8005d1 <enc+0x10>
     d6e:	a0 cf       	rjmp	.-192    	; 0xcb0 <_ZN11VirtEncoder7pollEncEa.constprop.131+0x2c>
     d70:	83 30       	cpi	r24, 0x03	; 3
     d72:	09 f0       	breq	.+2      	; 0xd76 <_ZN11VirtEncoder7pollEncEa.constprop.131+0xf2>
     d74:	9c cf       	rjmp	.-200    	; 0xcae <_ZN11VirtEncoder7pollEncEa.constprop.131+0x2a>
     d76:	d2 cf       	rjmp	.-92     	; 0xd1c <_ZN11VirtEncoder7pollEncEa.constprop.131+0x98>
     d78:	88 23       	and	r24, r24
     d7a:	81 f2       	breq	.-96     	; 0xd1c <_ZN11VirtEncoder7pollEncEa.constprop.131+0x98>
     d7c:	98 cf       	rjmp	.-208    	; 0xcae <_ZN11VirtEncoder7pollEncEa.constprop.131+0x2a>
     d7e:	81 50       	subi	r24, 0x01	; 1
     d80:	82 30       	cpi	r24, 0x02	; 2
     d82:	60 f6       	brcc	.-104    	; 0xd1c <_ZN11VirtEncoder7pollEncEa.constprop.131+0x98>
     d84:	94 cf       	rjmp	.-216    	; 0xcae <_ZN11VirtEncoder7pollEncEa.constprop.131+0x2a>
     d86:	81 e0       	ldi	r24, 0x01	; 1
     d88:	d3 cf       	rjmp	.-90     	; 0xd30 <_ZN11VirtEncoder7pollEncEa.constprop.131+0xac>

00000d8a <u8g2_SetDrawColor.constprop.105>:
     d8a:	83 30       	cpi	r24, 0x03	; 3
     d8c:	18 f4       	brcc	.+6      	; 0xd94 <u8g2_SetDrawColor.constprop.105+0xa>
     d8e:	80 93 68 06 	sts	0x0668, r24	; 0x800668 <oled+0x8e>
     d92:	08 95       	ret
     d94:	81 e0       	ldi	r24, 0x01	; 1
     d96:	fb cf       	rjmp	.-10     	; 0xd8e <u8g2_SetDrawColor.constprop.105+0x4>

00000d98 <_ZN3PID13SetSampleTimeEi.constprop.74>:
     d98:	8f 92       	push	r8
     d9a:	9f 92       	push	r9
     d9c:	af 92       	push	r10
     d9e:	bf 92       	push	r11
     da0:	cf 92       	push	r12
     da2:	df 92       	push	r13
     da4:	ef 92       	push	r14
     da6:	ff 92       	push	r15
     da8:	18 16       	cp	r1, r24
     daa:	19 06       	cpc	r1, r25
     dac:	0c f0       	brlt	.+2      	; 0xdb0 <_ZN3PID13SetSampleTimeEi.constprop.74+0x18>
     dae:	4c c0       	rjmp	.+152    	; 0xe48 <_ZN3PID13SetSampleTimeEi.constprop.74+0xb0>
     db0:	6c 01       	movw	r12, r24
     db2:	99 0f       	add	r25, r25
     db4:	ee 08       	sbc	r14, r14
     db6:	ff 08       	sbc	r15, r15
     db8:	c7 01       	movw	r24, r14
     dba:	b6 01       	movw	r22, r12
     dbc:	0e 94 18 3d 	call	0x7a30	; 0x7a30 <__floatsisf>
     dc0:	4b 01       	movw	r8, r22
     dc2:	5c 01       	movw	r10, r24
     dc4:	60 91 5f 05 	lds	r22, 0x055F	; 0x80055f <pid+0x2e>
     dc8:	70 91 60 05 	lds	r23, 0x0560	; 0x800560 <pid+0x2f>
     dcc:	80 91 61 05 	lds	r24, 0x0561	; 0x800561 <pid+0x30>
     dd0:	90 91 62 05 	lds	r25, 0x0562	; 0x800562 <pid+0x31>
     dd4:	0e 94 16 3d 	call	0x7a2c	; 0x7a2c <__floatunsisf>
     dd8:	9b 01       	movw	r18, r22
     dda:	ac 01       	movw	r20, r24
     ddc:	c5 01       	movw	r24, r10
     dde:	b4 01       	movw	r22, r8
     de0:	0e 94 6e 3c 	call	0x78dc	; 0x78dc <__divsf3>
     de4:	4b 01       	movw	r8, r22
     de6:	5c 01       	movw	r10, r24
     de8:	ac 01       	movw	r20, r24
     dea:	9b 01       	movw	r18, r22
     dec:	60 91 41 05 	lds	r22, 0x0541	; 0x800541 <pid+0x10>
     df0:	70 91 42 05 	lds	r23, 0x0542	; 0x800542 <pid+0x11>
     df4:	80 91 43 05 	lds	r24, 0x0543	; 0x800543 <pid+0x12>
     df8:	90 91 44 05 	lds	r25, 0x0544	; 0x800544 <pid+0x13>
     dfc:	0e 94 cd 3d 	call	0x7b9a	; 0x7b9a <__mulsf3>
     e00:	60 93 41 05 	sts	0x0541, r22	; 0x800541 <pid+0x10>
     e04:	70 93 42 05 	sts	0x0542, r23	; 0x800542 <pid+0x11>
     e08:	80 93 43 05 	sts	0x0543, r24	; 0x800543 <pid+0x12>
     e0c:	90 93 44 05 	sts	0x0544, r25	; 0x800544 <pid+0x13>
     e10:	a5 01       	movw	r20, r10
     e12:	94 01       	movw	r18, r8
     e14:	60 91 45 05 	lds	r22, 0x0545	; 0x800545 <pid+0x14>
     e18:	70 91 46 05 	lds	r23, 0x0546	; 0x800546 <pid+0x15>
     e1c:	80 91 47 05 	lds	r24, 0x0547	; 0x800547 <pid+0x16>
     e20:	90 91 48 05 	lds	r25, 0x0548	; 0x800548 <pid+0x17>
     e24:	0e 94 6e 3c 	call	0x78dc	; 0x78dc <__divsf3>
     e28:	60 93 45 05 	sts	0x0545, r22	; 0x800545 <pid+0x14>
     e2c:	70 93 46 05 	sts	0x0546, r23	; 0x800546 <pid+0x15>
     e30:	80 93 47 05 	sts	0x0547, r24	; 0x800547 <pid+0x16>
     e34:	90 93 48 05 	sts	0x0548, r25	; 0x800548 <pid+0x17>
     e38:	c0 92 5f 05 	sts	0x055F, r12	; 0x80055f <pid+0x2e>
     e3c:	d0 92 60 05 	sts	0x0560, r13	; 0x800560 <pid+0x2f>
     e40:	e0 92 61 05 	sts	0x0561, r14	; 0x800561 <pid+0x30>
     e44:	f0 92 62 05 	sts	0x0562, r15	; 0x800562 <pid+0x31>
     e48:	ff 90       	pop	r15
     e4a:	ef 90       	pop	r14
     e4c:	df 90       	pop	r13
     e4e:	cf 90       	pop	r12
     e50:	bf 90       	pop	r11
     e52:	af 90       	pop	r10
     e54:	9f 90       	pop	r9
     e56:	8f 90       	pop	r8
     e58:	08 95       	ret

00000e5a <_ZN7TwoWire4readEv>:
     e5a:	90 91 73 03 	lds	r25, 0x0373	; 0x800373 <_ZN7TwoWire13rxBufferIndexE>
     e5e:	80 91 72 03 	lds	r24, 0x0372	; 0x800372 <_ZN7TwoWire14rxBufferLengthE>
     e62:	2f ef       	ldi	r18, 0xFF	; 255
     e64:	3f ef       	ldi	r19, 0xFF	; 255
     e66:	98 17       	cp	r25, r24
     e68:	48 f4       	brcc	.+18     	; 0xe7c <_ZN7TwoWire4readEv+0x22>
     e6a:	e9 2f       	mov	r30, r25
     e6c:	f0 e0       	ldi	r31, 0x00	; 0
     e6e:	ec 58       	subi	r30, 0x8C	; 140
     e70:	fc 4f       	sbci	r31, 0xFC	; 252
     e72:	20 81       	ld	r18, Z
     e74:	30 e0       	ldi	r19, 0x00	; 0
     e76:	9f 5f       	subi	r25, 0xFF	; 255
     e78:	90 93 73 03 	sts	0x0373, r25	; 0x800373 <_ZN7TwoWire13rxBufferIndexE>
     e7c:	c9 01       	movw	r24, r18
     e7e:	08 95       	ret

00000e80 <_ZN7TwoWire4readEv.constprop.62>:
     e80:	90 91 73 03 	lds	r25, 0x0373	; 0x800373 <_ZN7TwoWire13rxBufferIndexE>
     e84:	80 91 72 03 	lds	r24, 0x0372	; 0x800372 <_ZN7TwoWire14rxBufferLengthE>
     e88:	2f ef       	ldi	r18, 0xFF	; 255
     e8a:	3f ef       	ldi	r19, 0xFF	; 255
     e8c:	98 17       	cp	r25, r24
     e8e:	48 f4       	brcc	.+18     	; 0xea2 <_ZN7TwoWire4readEv.constprop.62+0x22>
     e90:	e9 2f       	mov	r30, r25
     e92:	f0 e0       	ldi	r31, 0x00	; 0
     e94:	ec 58       	subi	r30, 0x8C	; 140
     e96:	fc 4f       	sbci	r31, 0xFC	; 252
     e98:	20 81       	ld	r18, Z
     e9a:	30 e0       	ldi	r19, 0x00	; 0
     e9c:	9f 5f       	subi	r25, 0xFF	; 255
     e9e:	90 93 73 03 	sts	0x0373, r25	; 0x800373 <_ZN7TwoWire13rxBufferIndexE>
     ea2:	c9 01       	movw	r24, r18
     ea4:	08 95       	ret

00000ea6 <_ZN7TwoWire15endTransmissionEv.constprop.60>:
     ea6:	90 91 68 03 	lds	r25, 0x0368	; 0x800368 <_ZN7TwoWire14txBufferLengthE>
     eaa:	81 e0       	ldi	r24, 0x01	; 1
     eac:	91 32       	cpi	r25, 0x21	; 33
     eae:	08 f0       	brcs	.+2      	; 0xeb2 <_ZN7TwoWire15endTransmissionEv.constprop.60+0xc>
     eb0:	43 c0       	rjmp	.+134    	; 0xf38 <_ZN7TwoWire15endTransmissionEv.constprop.60+0x92>
     eb2:	80 91 71 03 	lds	r24, 0x0371	; 0x800371 <twi_state>
     eb6:	81 11       	cpse	r24, r1
     eb8:	fc cf       	rjmp	.-8      	; 0xeb2 <_ZN7TwoWire15endTransmissionEv.constprop.60+0xc>
     eba:	80 91 67 03 	lds	r24, 0x0367	; 0x800367 <_ZN7TwoWire9txAddressE>
     ebe:	22 e0       	ldi	r18, 0x02	; 2
     ec0:	20 93 71 03 	sts	0x0371, r18	; 0x800371 <twi_state>
     ec4:	21 e0       	ldi	r18, 0x01	; 1
     ec6:	20 93 70 03 	sts	0x0370, r18	; 0x800370 <twi_sendStop>
     eca:	2f ef       	ldi	r18, 0xFF	; 255
     ecc:	20 93 6f 03 	sts	0x036F, r18	; 0x80036f <twi_error>
     ed0:	27 e4       	ldi	r18, 0x47	; 71
     ed2:	33 e0       	ldi	r19, 0x03	; 3
     ed4:	30 93 6e 03 	sts	0x036E, r19	; 0x80036e <twi_masterBuffer+0x1>
     ed8:	20 93 6d 03 	sts	0x036D, r18	; 0x80036d <twi_masterBuffer>
     edc:	10 92 6c 03 	sts	0x036C, r1	; 0x80036c <twi_masterBufferIndex>
     ee0:	90 93 6b 03 	sts	0x036B, r25	; 0x80036b <twi_masterBufferLength>
     ee4:	10 92 6a 03 	sts	0x036A, r1	; 0x80036a <twi_slarw>
     ee8:	90 91 6a 03 	lds	r25, 0x036A	; 0x80036a <twi_slarw>
     eec:	88 0f       	add	r24, r24
     eee:	89 2b       	or	r24, r25
     ef0:	80 93 6a 03 	sts	0x036A, r24	; 0x80036a <twi_slarw>
     ef4:	80 91 69 03 	lds	r24, 0x0369	; 0x800369 <twi_inRepStart>
     ef8:	81 30       	cpi	r24, 0x01	; 1
     efa:	29 f5       	brne	.+74     	; 0xf46 <_ZN7TwoWire15endTransmissionEv.constprop.60+0xa0>
     efc:	10 92 69 03 	sts	0x0369, r1	; 0x800369 <twi_inRepStart>
     f00:	80 91 6a 03 	lds	r24, 0x036A	; 0x80036a <twi_slarw>
     f04:	80 93 bb 00 	sts	0x00BB, r24	; 0x8000bb <__TEXT_REGION_LENGTH__+0x7e00bb>
     f08:	80 91 bc 00 	lds	r24, 0x00BC	; 0x8000bc <__TEXT_REGION_LENGTH__+0x7e00bc>
     f0c:	83 fd       	sbrc	r24, 3
     f0e:	f8 cf       	rjmp	.-16     	; 0xf00 <_ZN7TwoWire15endTransmissionEv.constprop.60+0x5a>
     f10:	85 ec       	ldi	r24, 0xC5	; 197
     f12:	80 93 bc 00 	sts	0x00BC, r24	; 0x8000bc <__TEXT_REGION_LENGTH__+0x7e00bc>
     f16:	80 91 71 03 	lds	r24, 0x0371	; 0x800371 <twi_state>
     f1a:	82 30       	cpi	r24, 0x02	; 2
     f1c:	e1 f3       	breq	.-8      	; 0xf16 <_ZN7TwoWire15endTransmissionEv.constprop.60+0x70>
     f1e:	80 91 6f 03 	lds	r24, 0x036F	; 0x80036f <twi_error>
     f22:	8f 3f       	cpi	r24, 0xFF	; 255
     f24:	91 f0       	breq	.+36     	; 0xf4a <_ZN7TwoWire15endTransmissionEv.constprop.60+0xa4>
     f26:	80 91 6f 03 	lds	r24, 0x036F	; 0x80036f <twi_error>
     f2a:	80 32       	cpi	r24, 0x20	; 32
     f2c:	81 f0       	breq	.+32     	; 0xf4e <_ZN7TwoWire15endTransmissionEv.constprop.60+0xa8>
     f2e:	80 91 6f 03 	lds	r24, 0x036F	; 0x80036f <twi_error>
     f32:	80 33       	cpi	r24, 0x30	; 48
     f34:	71 f0       	breq	.+28     	; 0xf52 <_ZN7TwoWire15endTransmissionEv.constprop.60+0xac>
     f36:	84 e0       	ldi	r24, 0x04	; 4
     f38:	10 92 46 03 	sts	0x0346, r1	; 0x800346 <_ZN7TwoWire13txBufferIndexE>
     f3c:	10 92 68 03 	sts	0x0368, r1	; 0x800368 <_ZN7TwoWire14txBufferLengthE>
     f40:	10 92 45 03 	sts	0x0345, r1	; 0x800345 <_ZN7TwoWire12transmittingE>
     f44:	08 95       	ret
     f46:	85 ee       	ldi	r24, 0xE5	; 229
     f48:	e4 cf       	rjmp	.-56     	; 0xf12 <_ZN7TwoWire15endTransmissionEv.constprop.60+0x6c>
     f4a:	80 e0       	ldi	r24, 0x00	; 0
     f4c:	f5 cf       	rjmp	.-22     	; 0xf38 <_ZN7TwoWire15endTransmissionEv.constprop.60+0x92>
     f4e:	82 e0       	ldi	r24, 0x02	; 2
     f50:	f3 cf       	rjmp	.-26     	; 0xf38 <_ZN7TwoWire15endTransmissionEv.constprop.60+0x92>
     f52:	83 e0       	ldi	r24, 0x03	; 3
     f54:	f1 cf       	rjmp	.-30     	; 0xf38 <_ZN7TwoWire15endTransmissionEv.constprop.60+0x92>

00000f56 <_ZN7TwoWire16onRequestServiceEv>:
     f56:	08 95       	ret

00000f58 <_ZN7TwoWire16onReceiveServiceEPhi>:
     f58:	08 95       	ret

00000f5a <u8x8_byte_SendBytes.constprop.5>:
     f5a:	9b 01       	movw	r18, r22
     f5c:	dc 01       	movw	r26, r24
     f5e:	18 96       	adiw	r26, 0x08	; 8
     f60:	ed 91       	ld	r30, X+
     f62:	fc 91       	ld	r31, X
     f64:	41 e0       	ldi	r20, 0x01	; 1
     f66:	67 e1       	ldi	r22, 0x17	; 23
     f68:	09 94       	ijmp

00000f6a <twi_stop>:
     f6a:	85 ed       	ldi	r24, 0xD5	; 213
     f6c:	80 93 bc 00 	sts	0x00BC, r24	; 0x8000bc <__TEXT_REGION_LENGTH__+0x7e00bc>
     f70:	80 91 bc 00 	lds	r24, 0x00BC	; 0x8000bc <__TEXT_REGION_LENGTH__+0x7e00bc>
     f74:	84 fd       	sbrc	r24, 4
     f76:	fc cf       	rjmp	.-8      	; 0xf70 <twi_stop+0x6>
     f78:	10 92 71 03 	sts	0x0371, r1	; 0x800371 <twi_state>
     f7c:	08 95       	ret

00000f7e <twi_transmit>:
     f7e:	20 91 1a 03 	lds	r18, 0x031A	; 0x80031a <twi_txBufferLength>
     f82:	26 0f       	add	r18, r22
     f84:	33 27       	eor	r19, r19
     f86:	33 1f       	adc	r19, r19
     f88:	21 32       	cpi	r18, 0x21	; 33
     f8a:	31 05       	cpc	r19, r1
     f8c:	ec f4       	brge	.+58     	; 0xfc8 <twi_transmit+0x4a>
     f8e:	20 91 71 03 	lds	r18, 0x0371	; 0x800371 <twi_state>
     f92:	fc 01       	movw	r30, r24
     f94:	90 e0       	ldi	r25, 0x00	; 0
     f96:	80 e0       	ldi	r24, 0x00	; 0
     f98:	24 30       	cpi	r18, 0x04	; 4
     f9a:	69 f0       	breq	.+26     	; 0xfb6 <twi_transmit+0x38>
     f9c:	82 e0       	ldi	r24, 0x02	; 2
     f9e:	08 95       	ret
     fa0:	a0 91 1a 03 	lds	r26, 0x031A	; 0x80031a <twi_txBufferLength>
     fa4:	21 91       	ld	r18, Z+
     fa6:	ac 01       	movw	r20, r24
     fa8:	46 50       	subi	r20, 0x06	; 6
     faa:	5d 4f       	sbci	r21, 0xFD	; 253
     fac:	a4 0f       	add	r26, r20
     fae:	b5 2f       	mov	r27, r21
     fb0:	b1 1d       	adc	r27, r1
     fb2:	2c 93       	st	X, r18
     fb4:	01 96       	adiw	r24, 0x01	; 1
     fb6:	86 17       	cp	r24, r22
     fb8:	98 f3       	brcs	.-26     	; 0xfa0 <twi_transmit+0x22>
     fba:	80 91 1a 03 	lds	r24, 0x031A	; 0x80031a <twi_txBufferLength>
     fbe:	68 0f       	add	r22, r24
     fc0:	60 93 1a 03 	sts	0x031A, r22	; 0x80031a <twi_txBufferLength>
     fc4:	80 e0       	ldi	r24, 0x00	; 0
     fc6:	08 95       	ret
     fc8:	81 e0       	ldi	r24, 0x01	; 1
     fca:	08 95       	ret

00000fcc <_ZN7TwoWire5flushEv>:
     fcc:	08 95       	ret

00000fce <_ZN7TwoWire4peekEv>:
     fce:	e0 91 73 03 	lds	r30, 0x0373	; 0x800373 <_ZN7TwoWire13rxBufferIndexE>
     fd2:	80 91 72 03 	lds	r24, 0x0372	; 0x800372 <_ZN7TwoWire14rxBufferLengthE>
     fd6:	e8 17       	cp	r30, r24
     fd8:	30 f4       	brcc	.+12     	; 0xfe6 <_ZN7TwoWire4peekEv+0x18>
     fda:	f0 e0       	ldi	r31, 0x00	; 0
     fdc:	ec 58       	subi	r30, 0x8C	; 140
     fde:	fc 4f       	sbci	r31, 0xFC	; 252
     fe0:	80 81       	ld	r24, Z
     fe2:	90 e0       	ldi	r25, 0x00	; 0
     fe4:	08 95       	ret
     fe6:	8f ef       	ldi	r24, 0xFF	; 255
     fe8:	9f ef       	ldi	r25, 0xFF	; 255
     fea:	08 95       	ret

00000fec <_ZN7TwoWire9availableEv>:
     fec:	80 91 72 03 	lds	r24, 0x0372	; 0x800372 <_ZN7TwoWire14rxBufferLengthE>
     ff0:	90 91 73 03 	lds	r25, 0x0373	; 0x800373 <_ZN7TwoWire13rxBufferIndexE>
     ff4:	89 1b       	sub	r24, r25
     ff6:	99 0b       	sbc	r25, r25
     ff8:	08 95       	ret

00000ffa <_ZN7TwoWire5writeEPKhj>:
     ffa:	cf 92       	push	r12
     ffc:	df 92       	push	r13
     ffe:	ef 92       	push	r14
    1000:	ff 92       	push	r15
    1002:	0f 93       	push	r16
    1004:	1f 93       	push	r17
    1006:	cf 93       	push	r28
    1008:	df 93       	push	r29
    100a:	7c 01       	movw	r14, r24
    100c:	cb 01       	movw	r24, r22
    100e:	8a 01       	movw	r16, r20
    1010:	20 91 45 03 	lds	r18, 0x0345	; 0x800345 <_ZN7TwoWire12transmittingE>
    1014:	22 23       	and	r18, r18
    1016:	89 f0       	breq	.+34     	; 0x103a <_ZN7TwoWire5writeEPKhj+0x40>
    1018:	eb 01       	movw	r28, r22
    101a:	6b 01       	movw	r12, r22
    101c:	c4 0e       	add	r12, r20
    101e:	d5 1e       	adc	r13, r21
    1020:	cc 15       	cp	r28, r12
    1022:	dd 05       	cpc	r29, r13
    1024:	69 f0       	breq	.+26     	; 0x1040 <_ZN7TwoWire5writeEPKhj+0x46>
    1026:	69 91       	ld	r22, Y+
    1028:	d7 01       	movw	r26, r14
    102a:	ed 91       	ld	r30, X+
    102c:	fc 91       	ld	r31, X
    102e:	01 90       	ld	r0, Z+
    1030:	f0 81       	ld	r31, Z
    1032:	e0 2d       	mov	r30, r0
    1034:	c7 01       	movw	r24, r14
    1036:	09 95       	icall
    1038:	f3 cf       	rjmp	.-26     	; 0x1020 <_ZN7TwoWire5writeEPKhj+0x26>
    103a:	64 2f       	mov	r22, r20
    103c:	0e 94 bf 07 	call	0xf7e	; 0xf7e <twi_transmit>
    1040:	c8 01       	movw	r24, r16
    1042:	df 91       	pop	r29
    1044:	cf 91       	pop	r28
    1046:	1f 91       	pop	r17
    1048:	0f 91       	pop	r16
    104a:	ff 90       	pop	r15
    104c:	ef 90       	pop	r14
    104e:	df 90       	pop	r13
    1050:	cf 90       	pop	r12
    1052:	08 95       	ret

00001054 <_ZN7TwoWire5writeEh>:
    1054:	cf 93       	push	r28
    1056:	df 93       	push	r29
    1058:	1f 92       	push	r1
    105a:	cd b7       	in	r28, 0x3d	; 61
    105c:	de b7       	in	r29, 0x3e	; 62
    105e:	69 83       	std	Y+1, r22	; 0x01
    1060:	20 91 45 03 	lds	r18, 0x0345	; 0x800345 <_ZN7TwoWire12transmittingE>
    1064:	22 23       	and	r18, r18
    1066:	f9 f0       	breq	.+62     	; 0x10a6 <_ZN7TwoWire5writeEh+0x52>
    1068:	20 91 68 03 	lds	r18, 0x0368	; 0x800368 <_ZN7TwoWire14txBufferLengthE>
    106c:	20 32       	cpi	r18, 0x20	; 32
    106e:	58 f0       	brcs	.+22     	; 0x1086 <_ZN7TwoWire5writeEh+0x32>
    1070:	21 e0       	ldi	r18, 0x01	; 1
    1072:	30 e0       	ldi	r19, 0x00	; 0
    1074:	fc 01       	movw	r30, r24
    1076:	33 83       	std	Z+3, r19	; 0x03
    1078:	22 83       	std	Z+2, r18	; 0x02
    107a:	90 e0       	ldi	r25, 0x00	; 0
    107c:	80 e0       	ldi	r24, 0x00	; 0
    107e:	0f 90       	pop	r0
    1080:	df 91       	pop	r29
    1082:	cf 91       	pop	r28
    1084:	08 95       	ret
    1086:	80 91 46 03 	lds	r24, 0x0346	; 0x800346 <_ZN7TwoWire13txBufferIndexE>
    108a:	e8 2f       	mov	r30, r24
    108c:	f0 e0       	ldi	r31, 0x00	; 0
    108e:	e9 5b       	subi	r30, 0xB9	; 185
    1090:	fc 4f       	sbci	r31, 0xFC	; 252
    1092:	99 81       	ldd	r25, Y+1	; 0x01
    1094:	90 83       	st	Z, r25
    1096:	8f 5f       	subi	r24, 0xFF	; 255
    1098:	80 93 46 03 	sts	0x0346, r24	; 0x800346 <_ZN7TwoWire13txBufferIndexE>
    109c:	80 93 68 03 	sts	0x0368, r24	; 0x800368 <_ZN7TwoWire14txBufferLengthE>
    10a0:	81 e0       	ldi	r24, 0x01	; 1
    10a2:	90 e0       	ldi	r25, 0x00	; 0
    10a4:	ec cf       	rjmp	.-40     	; 0x107e <_ZN7TwoWire5writeEh+0x2a>
    10a6:	61 e0       	ldi	r22, 0x01	; 1
    10a8:	ce 01       	movw	r24, r28
    10aa:	01 96       	adiw	r24, 0x01	; 1
    10ac:	0e 94 bf 07 	call	0xf7e	; 0xf7e <twi_transmit>
    10b0:	f7 cf       	rjmp	.-18     	; 0x10a0 <_ZN7TwoWire5writeEh+0x4c>

000010b2 <_ZN11GyverBME28013writeRegisterEhh.constprop.48>:
    10b2:	cf 93       	push	r28
    10b4:	c6 2f       	mov	r28, r22
    10b6:	90 91 70 06 	lds	r25, 0x0670	; 0x800670 <bme>
    10ba:	21 e0       	ldi	r18, 0x01	; 1
    10bc:	20 93 45 03 	sts	0x0345, r18	; 0x800345 <_ZN7TwoWire12transmittingE>
    10c0:	90 93 67 03 	sts	0x0367, r25	; 0x800367 <_ZN7TwoWire9txAddressE>
    10c4:	10 92 46 03 	sts	0x0346, r1	; 0x800346 <_ZN7TwoWire13txBufferIndexE>
    10c8:	10 92 68 03 	sts	0x0368, r1	; 0x800368 <_ZN7TwoWire14txBufferLengthE>
    10cc:	68 2f       	mov	r22, r24
    10ce:	81 ef       	ldi	r24, 0xF1	; 241
    10d0:	93 e0       	ldi	r25, 0x03	; 3
    10d2:	0e 94 2a 08 	call	0x1054	; 0x1054 <_ZN7TwoWire5writeEh>
    10d6:	6c 2f       	mov	r22, r28
    10d8:	81 ef       	ldi	r24, 0xF1	; 241
    10da:	93 e0       	ldi	r25, 0x03	; 3
    10dc:	0e 94 2a 08 	call	0x1054	; 0x1054 <_ZN7TwoWire5writeEh>
    10e0:	0e 94 53 07 	call	0xea6	; 0xea6 <_ZN7TwoWire15endTransmissionEv.constprop.60>
    10e4:	91 e0       	ldi	r25, 0x01	; 1
    10e6:	81 11       	cpse	r24, r1
    10e8:	90 e0       	ldi	r25, 0x00	; 0
    10ea:	89 2f       	mov	r24, r25
    10ec:	cf 91       	pop	r28
    10ee:	08 95       	ret

000010f0 <_ZN14HardwareSerial17availableForWriteEv>:
    10f0:	fc 01       	movw	r30, r24
    10f2:	53 8d       	ldd	r21, Z+27	; 0x1b
    10f4:	44 8d       	ldd	r20, Z+28	; 0x1c
    10f6:	25 2f       	mov	r18, r21
    10f8:	30 e0       	ldi	r19, 0x00	; 0
    10fa:	84 2f       	mov	r24, r20
    10fc:	90 e0       	ldi	r25, 0x00	; 0
    10fe:	82 1b       	sub	r24, r18
    1100:	93 0b       	sbc	r25, r19
    1102:	54 17       	cp	r21, r20
    1104:	10 f0       	brcs	.+4      	; 0x110a <_ZN14HardwareSerial17availableForWriteEv+0x1a>
    1106:	cf 96       	adiw	r24, 0x3f	; 63
    1108:	08 95       	ret
    110a:	01 97       	sbiw	r24, 0x01	; 1
    110c:	08 95       	ret

0000110e <_ZN14HardwareSerial4readEv>:
    110e:	fc 01       	movw	r30, r24
    1110:	91 8d       	ldd	r25, Z+25	; 0x19
    1112:	82 8d       	ldd	r24, Z+26	; 0x1a
    1114:	98 17       	cp	r25, r24
    1116:	61 f0       	breq	.+24     	; 0x1130 <_ZN14HardwareSerial4readEv+0x22>
    1118:	a2 8d       	ldd	r26, Z+26	; 0x1a
    111a:	ae 0f       	add	r26, r30
    111c:	bf 2f       	mov	r27, r31
    111e:	b1 1d       	adc	r27, r1
    1120:	5d 96       	adiw	r26, 0x1d	; 29
    1122:	8c 91       	ld	r24, X
    1124:	92 8d       	ldd	r25, Z+26	; 0x1a
    1126:	9f 5f       	subi	r25, 0xFF	; 255
    1128:	9f 73       	andi	r25, 0x3F	; 63
    112a:	92 8f       	std	Z+26, r25	; 0x1a
    112c:	90 e0       	ldi	r25, 0x00	; 0
    112e:	08 95       	ret
    1130:	8f ef       	ldi	r24, 0xFF	; 255
    1132:	9f ef       	ldi	r25, 0xFF	; 255
    1134:	08 95       	ret

00001136 <_ZN14HardwareSerial4peekEv>:
    1136:	fc 01       	movw	r30, r24
    1138:	91 8d       	ldd	r25, Z+25	; 0x19
    113a:	82 8d       	ldd	r24, Z+26	; 0x1a
    113c:	98 17       	cp	r25, r24
    113e:	31 f0       	breq	.+12     	; 0x114c <_ZN14HardwareSerial4peekEv+0x16>
    1140:	82 8d       	ldd	r24, Z+26	; 0x1a
    1142:	e8 0f       	add	r30, r24
    1144:	f1 1d       	adc	r31, r1
    1146:	85 8d       	ldd	r24, Z+29	; 0x1d
    1148:	90 e0       	ldi	r25, 0x00	; 0
    114a:	08 95       	ret
    114c:	8f ef       	ldi	r24, 0xFF	; 255
    114e:	9f ef       	ldi	r25, 0xFF	; 255
    1150:	08 95       	ret

00001152 <_ZN14HardwareSerial9availableEv>:
    1152:	fc 01       	movw	r30, r24
    1154:	91 8d       	ldd	r25, Z+25	; 0x19
    1156:	22 8d       	ldd	r18, Z+26	; 0x1a
    1158:	89 2f       	mov	r24, r25
    115a:	90 e0       	ldi	r25, 0x00	; 0
    115c:	80 5c       	subi	r24, 0xC0	; 192
    115e:	9f 4f       	sbci	r25, 0xFF	; 255
    1160:	82 1b       	sub	r24, r18
    1162:	91 09       	sbc	r25, r1
    1164:	8f 73       	andi	r24, 0x3F	; 63
    1166:	99 27       	eor	r25, r25
    1168:	08 95       	ret

0000116a <_ZN14HardwareSerial17_tx_udr_empty_irqEv>:
    116a:	fc 01       	movw	r30, r24
    116c:	a4 8d       	ldd	r26, Z+28	; 0x1c
    116e:	a8 0f       	add	r26, r24
    1170:	b9 2f       	mov	r27, r25
    1172:	b1 1d       	adc	r27, r1
    1174:	a3 5a       	subi	r26, 0xA3	; 163
    1176:	bf 4f       	sbci	r27, 0xFF	; 255
    1178:	2c 91       	ld	r18, X
    117a:	84 8d       	ldd	r24, Z+28	; 0x1c
    117c:	90 e0       	ldi	r25, 0x00	; 0
    117e:	01 96       	adiw	r24, 0x01	; 1
    1180:	8f 73       	andi	r24, 0x3F	; 63
    1182:	99 27       	eor	r25, r25
    1184:	84 8f       	std	Z+28, r24	; 0x1c
    1186:	a6 89       	ldd	r26, Z+22	; 0x16
    1188:	b7 89       	ldd	r27, Z+23	; 0x17
    118a:	2c 93       	st	X, r18
    118c:	a0 89       	ldd	r26, Z+16	; 0x10
    118e:	b1 89       	ldd	r27, Z+17	; 0x11
    1190:	8c 91       	ld	r24, X
    1192:	83 70       	andi	r24, 0x03	; 3
    1194:	80 64       	ori	r24, 0x40	; 64
    1196:	8c 93       	st	X, r24
    1198:	93 8d       	ldd	r25, Z+27	; 0x1b
    119a:	84 8d       	ldd	r24, Z+28	; 0x1c
    119c:	98 13       	cpse	r25, r24
    119e:	06 c0       	rjmp	.+12     	; 0x11ac <_ZN14HardwareSerial17_tx_udr_empty_irqEv+0x42>
    11a0:	02 88       	ldd	r0, Z+18	; 0x12
    11a2:	f3 89       	ldd	r31, Z+19	; 0x13
    11a4:	e0 2d       	mov	r30, r0
    11a6:	80 81       	ld	r24, Z
    11a8:	8f 7d       	andi	r24, 0xDF	; 223
    11aa:	80 83       	st	Z, r24
    11ac:	08 95       	ret

000011ae <_ZN14HardwareSerial5writeEh>:
    11ae:	ef 92       	push	r14
    11b0:	ff 92       	push	r15
    11b2:	0f 93       	push	r16
    11b4:	1f 93       	push	r17
    11b6:	cf 93       	push	r28
    11b8:	df 93       	push	r29
    11ba:	ec 01       	movw	r28, r24
    11bc:	81 e0       	ldi	r24, 0x01	; 1
    11be:	88 8f       	std	Y+24, r24	; 0x18
    11c0:	9b 8d       	ldd	r25, Y+27	; 0x1b
    11c2:	8c 8d       	ldd	r24, Y+28	; 0x1c
    11c4:	98 13       	cpse	r25, r24
    11c6:	1a c0       	rjmp	.+52     	; 0x11fc <_ZN14HardwareSerial5writeEh+0x4e>
    11c8:	e8 89       	ldd	r30, Y+16	; 0x10
    11ca:	f9 89       	ldd	r31, Y+17	; 0x11
    11cc:	80 81       	ld	r24, Z
    11ce:	85 ff       	sbrs	r24, 5
    11d0:	15 c0       	rjmp	.+42     	; 0x11fc <_ZN14HardwareSerial5writeEh+0x4e>
    11d2:	9f b7       	in	r25, 0x3f	; 63
    11d4:	f8 94       	cli
    11d6:	ee 89       	ldd	r30, Y+22	; 0x16
    11d8:	ff 89       	ldd	r31, Y+23	; 0x17
    11da:	60 83       	st	Z, r22
    11dc:	e8 89       	ldd	r30, Y+16	; 0x10
    11de:	f9 89       	ldd	r31, Y+17	; 0x11
    11e0:	80 81       	ld	r24, Z
    11e2:	83 70       	andi	r24, 0x03	; 3
    11e4:	80 64       	ori	r24, 0x40	; 64
    11e6:	80 83       	st	Z, r24
    11e8:	9f bf       	out	0x3f, r25	; 63
    11ea:	81 e0       	ldi	r24, 0x01	; 1
    11ec:	90 e0       	ldi	r25, 0x00	; 0
    11ee:	df 91       	pop	r29
    11f0:	cf 91       	pop	r28
    11f2:	1f 91       	pop	r17
    11f4:	0f 91       	pop	r16
    11f6:	ff 90       	pop	r15
    11f8:	ef 90       	pop	r14
    11fa:	08 95       	ret
    11fc:	f6 2e       	mov	r15, r22
    11fe:	0b 8d       	ldd	r16, Y+27	; 0x1b
    1200:	10 e0       	ldi	r17, 0x00	; 0
    1202:	0f 5f       	subi	r16, 0xFF	; 255
    1204:	1f 4f       	sbci	r17, 0xFF	; 255
    1206:	0f 73       	andi	r16, 0x3F	; 63
    1208:	11 27       	eor	r17, r17
    120a:	e0 2e       	mov	r14, r16
    120c:	8c 8d       	ldd	r24, Y+28	; 0x1c
    120e:	8e 11       	cpse	r24, r14
    1210:	0c c0       	rjmp	.+24     	; 0x122a <_ZN14HardwareSerial5writeEh+0x7c>
    1212:	0f b6       	in	r0, 0x3f	; 63
    1214:	07 fc       	sbrc	r0, 7
    1216:	fa cf       	rjmp	.-12     	; 0x120c <_ZN14HardwareSerial5writeEh+0x5e>
    1218:	e8 89       	ldd	r30, Y+16	; 0x10
    121a:	f9 89       	ldd	r31, Y+17	; 0x11
    121c:	80 81       	ld	r24, Z
    121e:	85 ff       	sbrs	r24, 5
    1220:	f5 cf       	rjmp	.-22     	; 0x120c <_ZN14HardwareSerial5writeEh+0x5e>
    1222:	ce 01       	movw	r24, r28
    1224:	0e 94 b5 08 	call	0x116a	; 0x116a <_ZN14HardwareSerial17_tx_udr_empty_irqEv>
    1228:	f1 cf       	rjmp	.-30     	; 0x120c <_ZN14HardwareSerial5writeEh+0x5e>
    122a:	eb 8d       	ldd	r30, Y+27	; 0x1b
    122c:	ec 0f       	add	r30, r28
    122e:	fd 2f       	mov	r31, r29
    1230:	f1 1d       	adc	r31, r1
    1232:	e3 5a       	subi	r30, 0xA3	; 163
    1234:	ff 4f       	sbci	r31, 0xFF	; 255
    1236:	f0 82       	st	Z, r15
    1238:	9f b7       	in	r25, 0x3f	; 63
    123a:	f8 94       	cli
    123c:	0b 8f       	std	Y+27, r16	; 0x1b
    123e:	ea 89       	ldd	r30, Y+18	; 0x12
    1240:	fb 89       	ldd	r31, Y+19	; 0x13
    1242:	80 81       	ld	r24, Z
    1244:	80 62       	ori	r24, 0x20	; 32
    1246:	cf cf       	rjmp	.-98     	; 0x11e6 <_ZN14HardwareSerial5writeEh+0x38>

00001248 <_ZN14HardwareSerial5flushEv>:
    1248:	cf 93       	push	r28
    124a:	df 93       	push	r29
    124c:	ec 01       	movw	r28, r24
    124e:	88 8d       	ldd	r24, Y+24	; 0x18
    1250:	88 23       	and	r24, r24
    1252:	b9 f0       	breq	.+46     	; 0x1282 <_ZN14HardwareSerial5flushEv+0x3a>
    1254:	aa 89       	ldd	r26, Y+18	; 0x12
    1256:	bb 89       	ldd	r27, Y+19	; 0x13
    1258:	e8 89       	ldd	r30, Y+16	; 0x10
    125a:	f9 89       	ldd	r31, Y+17	; 0x11
    125c:	8c 91       	ld	r24, X
    125e:	85 fd       	sbrc	r24, 5
    1260:	03 c0       	rjmp	.+6      	; 0x1268 <_ZN14HardwareSerial5flushEv+0x20>
    1262:	80 81       	ld	r24, Z
    1264:	86 fd       	sbrc	r24, 6
    1266:	0d c0       	rjmp	.+26     	; 0x1282 <_ZN14HardwareSerial5flushEv+0x3a>
    1268:	0f b6       	in	r0, 0x3f	; 63
    126a:	07 fc       	sbrc	r0, 7
    126c:	f7 cf       	rjmp	.-18     	; 0x125c <_ZN14HardwareSerial5flushEv+0x14>
    126e:	8c 91       	ld	r24, X
    1270:	85 ff       	sbrs	r24, 5
    1272:	f2 cf       	rjmp	.-28     	; 0x1258 <_ZN14HardwareSerial5flushEv+0x10>
    1274:	80 81       	ld	r24, Z
    1276:	85 ff       	sbrs	r24, 5
    1278:	ed cf       	rjmp	.-38     	; 0x1254 <_ZN14HardwareSerial5flushEv+0xc>
    127a:	ce 01       	movw	r24, r28
    127c:	0e 94 b5 08 	call	0x116a	; 0x116a <_ZN14HardwareSerial17_tx_udr_empty_irqEv>
    1280:	e9 cf       	rjmp	.-46     	; 0x1254 <_ZN14HardwareSerial5flushEv+0xc>
    1282:	df 91       	pop	r29
    1284:	cf 91       	pop	r28
    1286:	08 95       	ret

00001288 <_Z17Serial0_availablev>:
    1288:	8d ef       	ldi	r24, 0xFD	; 253
    128a:	93 e0       	ldi	r25, 0x03	; 3
    128c:	0e 94 a9 08 	call	0x1152	; 0x1152 <_ZN14HardwareSerial9availableEv>
    1290:	21 e0       	ldi	r18, 0x01	; 1
    1292:	89 2b       	or	r24, r25
    1294:	09 f4       	brne	.+2      	; 0x1298 <_Z17Serial0_availablev+0x10>
    1296:	20 e0       	ldi	r18, 0x00	; 0
    1298:	82 2f       	mov	r24, r18
    129a:	08 95       	ret

0000129c <_Z14serialEventRunv>:
    129c:	80 e0       	ldi	r24, 0x00	; 0
    129e:	90 e0       	ldi	r25, 0x00	; 0
    12a0:	89 2b       	or	r24, r25
    12a2:	29 f0       	breq	.+10     	; 0x12ae <_Z14serialEventRunv+0x12>
    12a4:	0e 94 44 09 	call	0x1288	; 0x1288 <_Z17Serial0_availablev>
    12a8:	81 11       	cpse	r24, r1
    12aa:	0c 94 00 00 	jmp	0	; 0x0 <__vectors>
    12ae:	08 95       	ret

000012b0 <turnOffPWM>:
    12b0:	84 30       	cpi	r24, 0x04	; 4
    12b2:	81 f0       	breq	.+32     	; 0x12d4 <turnOffPWM+0x24>
    12b4:	28 f4       	brcc	.+10     	; 0x12c0 <turnOffPWM+0x10>
    12b6:	82 30       	cpi	r24, 0x02	; 2
    12b8:	e9 f0       	breq	.+58     	; 0x12f4 <turnOffPWM+0x44>
    12ba:	83 30       	cpi	r24, 0x03	; 3
    12bc:	f9 f0       	breq	.+62     	; 0x12fc <turnOffPWM+0x4c>
    12be:	08 95       	ret
    12c0:	88 30       	cpi	r24, 0x08	; 8
    12c2:	71 f0       	breq	.+28     	; 0x12e0 <turnOffPWM+0x30>
    12c4:	89 30       	cpi	r24, 0x09	; 9
    12c6:	91 f0       	breq	.+36     	; 0x12ec <turnOffPWM+0x3c>
    12c8:	85 30       	cpi	r24, 0x05	; 5
    12ca:	b9 f4       	brne	.+46     	; 0x12fa <turnOffPWM+0x4a>
    12cc:	80 91 80 00 	lds	r24, 0x0080	; 0x800080 <__TEXT_REGION_LENGTH__+0x7e0080>
    12d0:	8f 7d       	andi	r24, 0xDF	; 223
    12d2:	03 c0       	rjmp	.+6      	; 0x12da <turnOffPWM+0x2a>
    12d4:	80 91 80 00 	lds	r24, 0x0080	; 0x800080 <__TEXT_REGION_LENGTH__+0x7e0080>
    12d8:	8f 77       	andi	r24, 0x7F	; 127
    12da:	80 93 80 00 	sts	0x0080, r24	; 0x800080 <__TEXT_REGION_LENGTH__+0x7e0080>
    12de:	08 95       	ret
    12e0:	80 91 b0 00 	lds	r24, 0x00B0	; 0x8000b0 <__TEXT_REGION_LENGTH__+0x7e00b0>
    12e4:	8f 77       	andi	r24, 0x7F	; 127
    12e6:	80 93 b0 00 	sts	0x00B0, r24	; 0x8000b0 <__TEXT_REGION_LENGTH__+0x7e00b0>
    12ea:	08 95       	ret
    12ec:	80 91 b0 00 	lds	r24, 0x00B0	; 0x8000b0 <__TEXT_REGION_LENGTH__+0x7e00b0>
    12f0:	8f 7d       	andi	r24, 0xDF	; 223
    12f2:	f9 cf       	rjmp	.-14     	; 0x12e6 <turnOffPWM+0x36>
    12f4:	84 b5       	in	r24, 0x24	; 36
    12f6:	8f 77       	andi	r24, 0x7F	; 127
    12f8:	84 bd       	out	0x24, r24	; 36
    12fa:	08 95       	ret
    12fc:	84 b5       	in	r24, 0x24	; 36
    12fe:	8f 7d       	andi	r24, 0xDF	; 223
    1300:	fb cf       	rjmp	.-10     	; 0x12f8 <turnOffPWM+0x48>

00001302 <digitalRead>:
    1302:	cf 93       	push	r28
    1304:	df 93       	push	r29
    1306:	28 2f       	mov	r18, r24
    1308:	30 e0       	ldi	r19, 0x00	; 0
    130a:	f9 01       	movw	r30, r18
    130c:	ec 57       	subi	r30, 0x7C	; 124
    130e:	fb 4f       	sbci	r31, 0xFB	; 251
    1310:	84 91       	lpm	r24, Z
    1312:	f9 01       	movw	r30, r18
    1314:	e3 59       	subi	r30, 0x93	; 147
    1316:	fb 4f       	sbci	r31, 0xFB	; 251
    1318:	d4 91       	lpm	r29, Z
    131a:	f9 01       	movw	r30, r18
    131c:	ea 5a       	subi	r30, 0xAA	; 170
    131e:	fb 4f       	sbci	r31, 0xFB	; 251
    1320:	c4 91       	lpm	r28, Z
    1322:	cc 23       	and	r28, r28
    1324:	a1 f0       	breq	.+40     	; 0x134e <digitalRead+0x4c>
    1326:	81 11       	cpse	r24, r1
    1328:	0e 94 58 09 	call	0x12b0	; 0x12b0 <turnOffPWM>
    132c:	ec 2f       	mov	r30, r28
    132e:	f0 e0       	ldi	r31, 0x00	; 0
    1330:	ee 0f       	add	r30, r30
    1332:	ff 1f       	adc	r31, r31
    1334:	e4 5b       	subi	r30, 0xB4	; 180
    1336:	fb 4f       	sbci	r31, 0xFB	; 251
    1338:	a5 91       	lpm	r26, Z+
    133a:	b4 91       	lpm	r27, Z
    133c:	ec 91       	ld	r30, X
    133e:	ed 23       	and	r30, r29
    1340:	81 e0       	ldi	r24, 0x01	; 1
    1342:	90 e0       	ldi	r25, 0x00	; 0
    1344:	09 f4       	brne	.+2      	; 0x1348 <digitalRead+0x46>
    1346:	80 e0       	ldi	r24, 0x00	; 0
    1348:	df 91       	pop	r29
    134a:	cf 91       	pop	r28
    134c:	08 95       	ret
    134e:	80 e0       	ldi	r24, 0x00	; 0
    1350:	90 e0       	ldi	r25, 0x00	; 0
    1352:	fa cf       	rjmp	.-12     	; 0x1348 <digitalRead+0x46>

00001354 <digitalWrite>:
    1354:	1f 93       	push	r17
    1356:	cf 93       	push	r28
    1358:	df 93       	push	r29
    135a:	28 2f       	mov	r18, r24
    135c:	30 e0       	ldi	r19, 0x00	; 0
    135e:	f9 01       	movw	r30, r18
    1360:	ec 57       	subi	r30, 0x7C	; 124
    1362:	fb 4f       	sbci	r31, 0xFB	; 251
    1364:	84 91       	lpm	r24, Z
    1366:	f9 01       	movw	r30, r18
    1368:	e3 59       	subi	r30, 0x93	; 147
    136a:	fb 4f       	sbci	r31, 0xFB	; 251
    136c:	d4 91       	lpm	r29, Z
    136e:	f9 01       	movw	r30, r18
    1370:	ea 5a       	subi	r30, 0xAA	; 170
    1372:	fb 4f       	sbci	r31, 0xFB	; 251
    1374:	c4 91       	lpm	r28, Z
    1376:	cc 23       	and	r28, r28
    1378:	a9 f0       	breq	.+42     	; 0x13a4 <digitalWrite+0x50>
    137a:	16 2f       	mov	r17, r22
    137c:	81 11       	cpse	r24, r1
    137e:	0e 94 58 09 	call	0x12b0	; 0x12b0 <turnOffPWM>
    1382:	ec 2f       	mov	r30, r28
    1384:	f0 e0       	ldi	r31, 0x00	; 0
    1386:	ee 0f       	add	r30, r30
    1388:	ff 1f       	adc	r31, r31
    138a:	ee 5b       	subi	r30, 0xBE	; 190
    138c:	fb 4f       	sbci	r31, 0xFB	; 251
    138e:	a5 91       	lpm	r26, Z+
    1390:	b4 91       	lpm	r27, Z
    1392:	8f b7       	in	r24, 0x3f	; 63
    1394:	f8 94       	cli
    1396:	ec 91       	ld	r30, X
    1398:	11 11       	cpse	r17, r1
    139a:	08 c0       	rjmp	.+16     	; 0x13ac <digitalWrite+0x58>
    139c:	d0 95       	com	r29
    139e:	de 23       	and	r29, r30
    13a0:	dc 93       	st	X, r29
    13a2:	8f bf       	out	0x3f, r24	; 63
    13a4:	df 91       	pop	r29
    13a6:	cf 91       	pop	r28
    13a8:	1f 91       	pop	r17
    13aa:	08 95       	ret
    13ac:	de 2b       	or	r29, r30
    13ae:	f8 cf       	rjmp	.-16     	; 0x13a0 <digitalWrite+0x4c>

000013b0 <_ZN7TwoWire5beginEv.constprop.41>:
    13b0:	10 92 73 03 	sts	0x0373, r1	; 0x800373 <_ZN7TwoWire13rxBufferIndexE>
    13b4:	10 92 72 03 	sts	0x0372, r1	; 0x800372 <_ZN7TwoWire14rxBufferLengthE>
    13b8:	10 92 46 03 	sts	0x0346, r1	; 0x800346 <_ZN7TwoWire13txBufferIndexE>
    13bc:	10 92 68 03 	sts	0x0368, r1	; 0x800368 <_ZN7TwoWire14txBufferLengthE>
    13c0:	10 92 71 03 	sts	0x0371, r1	; 0x800371 <twi_state>
    13c4:	81 e0       	ldi	r24, 0x01	; 1
    13c6:	80 93 70 03 	sts	0x0370, r24	; 0x800370 <twi_sendStop>
    13ca:	10 92 69 03 	sts	0x0369, r1	; 0x800369 <twi_inRepStart>
    13ce:	61 e0       	ldi	r22, 0x01	; 1
    13d0:	82 e1       	ldi	r24, 0x12	; 18
    13d2:	0e 94 aa 09 	call	0x1354	; 0x1354 <digitalWrite>
    13d6:	61 e0       	ldi	r22, 0x01	; 1
    13d8:	83 e1       	ldi	r24, 0x13	; 19
    13da:	0e 94 aa 09 	call	0x1354	; 0x1354 <digitalWrite>
    13de:	e9 eb       	ldi	r30, 0xB9	; 185
    13e0:	f0 e0       	ldi	r31, 0x00	; 0
    13e2:	80 81       	ld	r24, Z
    13e4:	8e 7f       	andi	r24, 0xFE	; 254
    13e6:	80 83       	st	Z, r24
    13e8:	80 81       	ld	r24, Z
    13ea:	8d 7f       	andi	r24, 0xFD	; 253
    13ec:	80 83       	st	Z, r24
    13ee:	88 e4       	ldi	r24, 0x48	; 72
    13f0:	80 93 b8 00 	sts	0x00B8, r24	; 0x8000b8 <__TEXT_REGION_LENGTH__+0x7e00b8>
    13f4:	85 e4       	ldi	r24, 0x45	; 69
    13f6:	80 93 bc 00 	sts	0x00BC, r24	; 0x8000bc <__TEXT_REGION_LENGTH__+0x7e00bc>
    13fa:	8b ea       	ldi	r24, 0xAB	; 171
    13fc:	97 e0       	ldi	r25, 0x07	; 7
    13fe:	90 93 40 03 	sts	0x0340, r25	; 0x800340 <twi_onSlaveTransmit+0x1>
    1402:	80 93 3f 03 	sts	0x033F, r24	; 0x80033f <twi_onSlaveTransmit>
    1406:	8c ea       	ldi	r24, 0xAC	; 172
    1408:	97 e0       	ldi	r25, 0x07	; 7
    140a:	90 93 3e 03 	sts	0x033E, r25	; 0x80033e <twi_onSlaveReceive+0x1>
    140e:	80 93 3d 03 	sts	0x033D, r24	; 0x80033d <twi_onSlaveReceive>
    1412:	08 95       	ret

00001414 <pinMode>:
    1414:	cf 93       	push	r28
    1416:	df 93       	push	r29
    1418:	90 e0       	ldi	r25, 0x00	; 0
    141a:	fc 01       	movw	r30, r24
    141c:	e3 59       	subi	r30, 0x93	; 147
    141e:	fb 4f       	sbci	r31, 0xFB	; 251
    1420:	24 91       	lpm	r18, Z
    1422:	8a 5a       	subi	r24, 0xAA	; 170
    1424:	9b 4f       	sbci	r25, 0xFB	; 251
    1426:	fc 01       	movw	r30, r24
    1428:	84 91       	lpm	r24, Z
    142a:	88 23       	and	r24, r24
    142c:	c9 f0       	breq	.+50     	; 0x1460 <pinMode+0x4c>
    142e:	90 e0       	ldi	r25, 0x00	; 0
    1430:	88 0f       	add	r24, r24
    1432:	99 1f       	adc	r25, r25
    1434:	fc 01       	movw	r30, r24
    1436:	e8 5c       	subi	r30, 0xC8	; 200
    1438:	fb 4f       	sbci	r31, 0xFB	; 251
    143a:	a5 91       	lpm	r26, Z+
    143c:	b4 91       	lpm	r27, Z
    143e:	fc 01       	movw	r30, r24
    1440:	ee 5b       	subi	r30, 0xBE	; 190
    1442:	fb 4f       	sbci	r31, 0xFB	; 251
    1444:	c5 91       	lpm	r28, Z+
    1446:	d4 91       	lpm	r29, Z
    1448:	61 11       	cpse	r22, r1
    144a:	0d c0       	rjmp	.+26     	; 0x1466 <pinMode+0x52>
    144c:	9f b7       	in	r25, 0x3f	; 63
    144e:	f8 94       	cli
    1450:	8c 91       	ld	r24, X
    1452:	20 95       	com	r18
    1454:	82 23       	and	r24, r18
    1456:	8c 93       	st	X, r24
    1458:	88 81       	ld	r24, Y
    145a:	28 23       	and	r18, r24
    145c:	28 83       	st	Y, r18
    145e:	9f bf       	out	0x3f, r25	; 63
    1460:	df 91       	pop	r29
    1462:	cf 91       	pop	r28
    1464:	08 95       	ret
    1466:	62 30       	cpi	r22, 0x02	; 2
    1468:	51 f4       	brne	.+20     	; 0x147e <pinMode+0x6a>
    146a:	9f b7       	in	r25, 0x3f	; 63
    146c:	f8 94       	cli
    146e:	3c 91       	ld	r19, X
    1470:	82 2f       	mov	r24, r18
    1472:	80 95       	com	r24
    1474:	83 23       	and	r24, r19
    1476:	8c 93       	st	X, r24
    1478:	e8 81       	ld	r30, Y
    147a:	2e 2b       	or	r18, r30
    147c:	ef cf       	rjmp	.-34     	; 0x145c <pinMode+0x48>
    147e:	8f b7       	in	r24, 0x3f	; 63
    1480:	f8 94       	cli
    1482:	ec 91       	ld	r30, X
    1484:	2e 2b       	or	r18, r30
    1486:	2c 93       	st	X, r18
    1488:	8f bf       	out	0x3f, r24	; 63
    148a:	ea cf       	rjmp	.-44     	; 0x1460 <pinMode+0x4c>

0000148c <analogWrite.constprop.33>:
    148c:	cf 93       	push	r28
    148e:	df 93       	push	r29
    1490:	ec 01       	movw	r28, r24
    1492:	61 e0       	ldi	r22, 0x01	; 1
    1494:	8b e0       	ldi	r24, 0x0B	; 11
    1496:	0e 94 0a 0a 	call	0x1414	; 0x1414 <pinMode>
    149a:	20 97       	sbiw	r28, 0x00	; 0
    149c:	31 f4       	brne	.+12     	; 0x14aa <analogWrite.constprop.33+0x1e>
    149e:	60 e0       	ldi	r22, 0x00	; 0
    14a0:	8b e0       	ldi	r24, 0x0B	; 11
    14a2:	df 91       	pop	r29
    14a4:	cf 91       	pop	r28
    14a6:	0c 94 aa 09 	jmp	0x1354	; 0x1354 <digitalWrite>
    14aa:	cf 3f       	cpi	r28, 0xFF	; 255
    14ac:	d1 05       	cpc	r29, r1
    14ae:	11 f4       	brne	.+4      	; 0x14b4 <analogWrite.constprop.33+0x28>
    14b0:	61 e0       	ldi	r22, 0x01	; 1
    14b2:	f6 cf       	rjmp	.-20     	; 0x14a0 <analogWrite.constprop.33+0x14>
    14b4:	ef e8       	ldi	r30, 0x8F	; 143
    14b6:	f4 e0       	ldi	r31, 0x04	; 4
    14b8:	e4 91       	lpm	r30, Z
    14ba:	e4 30       	cpi	r30, 0x04	; 4
    14bc:	29 f1       	breq	.+74     	; 0x1508 <analogWrite.constprop.33+0x7c>
    14be:	40 f4       	brcc	.+16     	; 0x14d0 <analogWrite.constprop.33+0x44>
    14c0:	e2 30       	cpi	r30, 0x02	; 2
    14c2:	b1 f0       	breq	.+44     	; 0x14f0 <analogWrite.constprop.33+0x64>
    14c4:	e3 30       	cpi	r30, 0x03	; 3
    14c6:	d9 f0       	breq	.+54     	; 0x14fe <analogWrite.constprop.33+0x72>
    14c8:	c0 38       	cpi	r28, 0x80	; 128
    14ca:	d1 05       	cpc	r29, r1
    14cc:	8c f7       	brge	.-30     	; 0x14b0 <analogWrite.constprop.33+0x24>
    14ce:	e7 cf       	rjmp	.-50     	; 0x149e <analogWrite.constprop.33+0x12>
    14d0:	e8 30       	cpi	r30, 0x08	; 8
    14d2:	21 f1       	breq	.+72     	; 0x151c <analogWrite.constprop.33+0x90>
    14d4:	e9 30       	cpi	r30, 0x09	; 9
    14d6:	51 f1       	breq	.+84     	; 0x152c <analogWrite.constprop.33+0xa0>
    14d8:	e5 30       	cpi	r30, 0x05	; 5
    14da:	b1 f7       	brne	.-20     	; 0x14c8 <analogWrite.constprop.33+0x3c>
    14dc:	80 91 80 00 	lds	r24, 0x0080	; 0x800080 <__TEXT_REGION_LENGTH__+0x7e0080>
    14e0:	80 62       	ori	r24, 0x20	; 32
    14e2:	80 93 80 00 	sts	0x0080, r24	; 0x800080 <__TEXT_REGION_LENGTH__+0x7e0080>
    14e6:	d0 93 8b 00 	sts	0x008B, r29	; 0x80008b <__TEXT_REGION_LENGTH__+0x7e008b>
    14ea:	c0 93 8a 00 	sts	0x008A, r28	; 0x80008a <__TEXT_REGION_LENGTH__+0x7e008a>
    14ee:	04 c0       	rjmp	.+8      	; 0x14f8 <analogWrite.constprop.33+0x6c>
    14f0:	84 b5       	in	r24, 0x24	; 36
    14f2:	80 68       	ori	r24, 0x80	; 128
    14f4:	84 bd       	out	0x24, r24	; 36
    14f6:	c7 bd       	out	0x27, r28	; 39
    14f8:	df 91       	pop	r29
    14fa:	cf 91       	pop	r28
    14fc:	08 95       	ret
    14fe:	84 b5       	in	r24, 0x24	; 36
    1500:	80 62       	ori	r24, 0x20	; 32
    1502:	84 bd       	out	0x24, r24	; 36
    1504:	c8 bd       	out	0x28, r28	; 40
    1506:	f8 cf       	rjmp	.-16     	; 0x14f8 <analogWrite.constprop.33+0x6c>
    1508:	80 91 80 00 	lds	r24, 0x0080	; 0x800080 <__TEXT_REGION_LENGTH__+0x7e0080>
    150c:	80 68       	ori	r24, 0x80	; 128
    150e:	80 93 80 00 	sts	0x0080, r24	; 0x800080 <__TEXT_REGION_LENGTH__+0x7e0080>
    1512:	d0 93 89 00 	sts	0x0089, r29	; 0x800089 <__TEXT_REGION_LENGTH__+0x7e0089>
    1516:	c0 93 88 00 	sts	0x0088, r28	; 0x800088 <__TEXT_REGION_LENGTH__+0x7e0088>
    151a:	ee cf       	rjmp	.-36     	; 0x14f8 <analogWrite.constprop.33+0x6c>
    151c:	80 91 b0 00 	lds	r24, 0x00B0	; 0x8000b0 <__TEXT_REGION_LENGTH__+0x7e00b0>
    1520:	80 68       	ori	r24, 0x80	; 128
    1522:	80 93 b0 00 	sts	0x00B0, r24	; 0x8000b0 <__TEXT_REGION_LENGTH__+0x7e00b0>
    1526:	c0 93 b3 00 	sts	0x00B3, r28	; 0x8000b3 <__TEXT_REGION_LENGTH__+0x7e00b3>
    152a:	e6 cf       	rjmp	.-52     	; 0x14f8 <analogWrite.constprop.33+0x6c>
    152c:	80 91 b0 00 	lds	r24, 0x00B0	; 0x8000b0 <__TEXT_REGION_LENGTH__+0x7e00b0>
    1530:	80 62       	ori	r24, 0x20	; 32
    1532:	80 93 b0 00 	sts	0x00B0, r24	; 0x8000b0 <__TEXT_REGION_LENGTH__+0x7e00b0>
    1536:	c0 93 b4 00 	sts	0x00B4, r28	; 0x8000b4 <__TEXT_REGION_LENGTH__+0x7e00b4>
    153a:	de cf       	rjmp	.-68     	; 0x14f8 <analogWrite.constprop.33+0x6c>

0000153c <analogRead>:
    153c:	88 30       	cpi	r24, 0x08	; 8
    153e:	20 f0       	brcs	.+8      	; 0x1548 <analogRead+0xc>
    1540:	8d 30       	cpi	r24, 0x0D	; 13
    1542:	08 f4       	brcc	.+2      	; 0x1546 <analogRead+0xa>
    1544:	8d e0       	ldi	r24, 0x0D	; 13
    1546:	8e 50       	subi	r24, 0x0E	; 14
    1548:	87 70       	andi	r24, 0x07	; 7
    154a:	80 64       	ori	r24, 0x40	; 64
    154c:	80 93 7c 00 	sts	0x007C, r24	; 0x80007c <__TEXT_REGION_LENGTH__+0x7e007c>
    1550:	80 91 7a 00 	lds	r24, 0x007A	; 0x80007a <__TEXT_REGION_LENGTH__+0x7e007a>
    1554:	80 64       	ori	r24, 0x40	; 64
    1556:	80 93 7a 00 	sts	0x007A, r24	; 0x80007a <__TEXT_REGION_LENGTH__+0x7e007a>
    155a:	80 91 7a 00 	lds	r24, 0x007A	; 0x80007a <__TEXT_REGION_LENGTH__+0x7e007a>
    155e:	86 fd       	sbrc	r24, 6
    1560:	fc cf       	rjmp	.-8      	; 0x155a <analogRead+0x1e>
    1562:	80 91 78 00 	lds	r24, 0x0078	; 0x800078 <__TEXT_REGION_LENGTH__+0x7e0078>
    1566:	90 91 79 00 	lds	r25, 0x0079	; 0x800079 <__TEXT_REGION_LENGTH__+0x7e0079>
    156a:	08 95       	ret

0000156c <delayMicroseconds>:
    156c:	88 0f       	add	r24, r24
    156e:	99 1f       	adc	r25, r25
    1570:	88 0f       	add	r24, r24
    1572:	99 1f       	adc	r25, r25
    1574:	05 97       	sbiw	r24, 0x05	; 5
    1576:	01 97       	sbiw	r24, 0x01	; 1
    1578:	f1 f7       	brne	.-4      	; 0x1576 <delayMicroseconds+0xa>
    157a:	08 95       	ret

0000157c <micros>:
    157c:	3f b7       	in	r19, 0x3f	; 63
    157e:	f8 94       	cli
    1580:	80 91 f6 02 	lds	r24, 0x02F6	; 0x8002f6 <timer0_overflow_count>
    1584:	90 91 f7 02 	lds	r25, 0x02F7	; 0x8002f7 <timer0_overflow_count+0x1>
    1588:	a0 91 f8 02 	lds	r26, 0x02F8	; 0x8002f8 <timer0_overflow_count+0x2>
    158c:	b0 91 f9 02 	lds	r27, 0x02F9	; 0x8002f9 <timer0_overflow_count+0x3>
    1590:	26 b5       	in	r18, 0x26	; 38
    1592:	a8 9b       	sbis	0x15, 0	; 21
    1594:	05 c0       	rjmp	.+10     	; 0x15a0 <micros+0x24>
    1596:	2f 3f       	cpi	r18, 0xFF	; 255
    1598:	19 f0       	breq	.+6      	; 0x15a0 <micros+0x24>
    159a:	01 96       	adiw	r24, 0x01	; 1
    159c:	a1 1d       	adc	r26, r1
    159e:	b1 1d       	adc	r27, r1
    15a0:	3f bf       	out	0x3f, r19	; 63
    15a2:	ba 2f       	mov	r27, r26
    15a4:	a9 2f       	mov	r26, r25
    15a6:	98 2f       	mov	r25, r24
    15a8:	88 27       	eor	r24, r24
    15aa:	bc 01       	movw	r22, r24
    15ac:	cd 01       	movw	r24, r26
    15ae:	62 0f       	add	r22, r18
    15b0:	71 1d       	adc	r23, r1
    15b2:	81 1d       	adc	r24, r1
    15b4:	91 1d       	adc	r25, r1
    15b6:	42 e0       	ldi	r20, 0x02	; 2
    15b8:	66 0f       	add	r22, r22
    15ba:	77 1f       	adc	r23, r23
    15bc:	88 1f       	adc	r24, r24
    15be:	99 1f       	adc	r25, r25
    15c0:	4a 95       	dec	r20
    15c2:	d1 f7       	brne	.-12     	; 0x15b8 <micros+0x3c>
    15c4:	08 95       	ret

000015c6 <delay>:
    15c6:	8f 92       	push	r8
    15c8:	9f 92       	push	r9
    15ca:	af 92       	push	r10
    15cc:	bf 92       	push	r11
    15ce:	cf 92       	push	r12
    15d0:	df 92       	push	r13
    15d2:	ef 92       	push	r14
    15d4:	ff 92       	push	r15
    15d6:	6b 01       	movw	r12, r22
    15d8:	7c 01       	movw	r14, r24
    15da:	0e 94 be 0a 	call	0x157c	; 0x157c <micros>
    15de:	4b 01       	movw	r8, r22
    15e0:	5c 01       	movw	r10, r24
    15e2:	c1 14       	cp	r12, r1
    15e4:	d1 04       	cpc	r13, r1
    15e6:	e1 04       	cpc	r14, r1
    15e8:	f1 04       	cpc	r15, r1
    15ea:	b9 f0       	breq	.+46     	; 0x161a <delay+0x54>
    15ec:	0e 94 be 0a 	call	0x157c	; 0x157c <micros>
    15f0:	68 19       	sub	r22, r8
    15f2:	79 09       	sbc	r23, r9
    15f4:	8a 09       	sbc	r24, r10
    15f6:	9b 09       	sbc	r25, r11
    15f8:	68 3e       	cpi	r22, 0xE8	; 232
    15fa:	73 40       	sbci	r23, 0x03	; 3
    15fc:	81 05       	cpc	r24, r1
    15fe:	91 05       	cpc	r25, r1
    1600:	80 f3       	brcs	.-32     	; 0x15e2 <delay+0x1c>
    1602:	21 e0       	ldi	r18, 0x01	; 1
    1604:	c2 1a       	sub	r12, r18
    1606:	d1 08       	sbc	r13, r1
    1608:	e1 08       	sbc	r14, r1
    160a:	f1 08       	sbc	r15, r1
    160c:	88 ee       	ldi	r24, 0xE8	; 232
    160e:	88 0e       	add	r8, r24
    1610:	83 e0       	ldi	r24, 0x03	; 3
    1612:	98 1e       	adc	r9, r24
    1614:	a1 1c       	adc	r10, r1
    1616:	b1 1c       	adc	r11, r1
    1618:	e4 cf       	rjmp	.-56     	; 0x15e2 <delay+0x1c>
    161a:	ff 90       	pop	r15
    161c:	ef 90       	pop	r14
    161e:	df 90       	pop	r13
    1620:	cf 90       	pop	r12
    1622:	bf 90       	pop	r11
    1624:	af 90       	pop	r10
    1626:	9f 90       	pop	r9
    1628:	8f 90       	pop	r8
    162a:	08 95       	ret

0000162c <millis>:
    162c:	2f b7       	in	r18, 0x3f	; 63
    162e:	f8 94       	cli
    1630:	60 91 f2 02 	lds	r22, 0x02F2	; 0x8002f2 <timer0_millis>
    1634:	70 91 f3 02 	lds	r23, 0x02F3	; 0x8002f3 <timer0_millis+0x1>
    1638:	80 91 f4 02 	lds	r24, 0x02F4	; 0x8002f4 <timer0_millis+0x2>
    163c:	90 91 f5 02 	lds	r25, 0x02F5	; 0x8002f5 <timer0_millis+0x3>
    1640:	2f bf       	out	0x3f, r18	; 63
    1642:	08 95       	ret

00001644 <_ZN13VirtEncButton7tickISREa.constprop.126>:
    1644:	1f 93       	push	r17
    1646:	cf 93       	push	r28
    1648:	df 93       	push	r29
    164a:	0e 94 42 06 	call	0xc84	; 0xc84 <_ZN11VirtEncoder7pollEncEa.constprop.131>
    164e:	18 2f       	mov	r17, r24
    1650:	88 23       	and	r24, r24
    1652:	89 f1       	breq	.+98     	; 0x16b6 <_ZN13VirtEncButton7tickISREa.constprop.126+0x72>
    1654:	20 91 d5 05 	lds	r18, 0x05D5	; 0x8005d5 <enc+0x14>
    1658:	30 91 d6 05 	lds	r19, 0x05D6	; 0x8005d6 <enc+0x15>
    165c:	d0 e0       	ldi	r29, 0x00	; 0
    165e:	c0 e0       	ldi	r28, 0x00	; 0
    1660:	81 e0       	ldi	r24, 0x01	; 1
    1662:	90 e0       	ldi	r25, 0x00	; 0
    1664:	ac 01       	movw	r20, r24
    1666:	0c 2e       	mov	r0, r28
    1668:	02 c0       	rjmp	.+4      	; 0x166e <_ZN13VirtEncButton7tickISREa.constprop.126+0x2a>
    166a:	44 0f       	add	r20, r20
    166c:	55 1f       	adc	r21, r21
    166e:	0a 94       	dec	r0
    1670:	e2 f7       	brpl	.-8      	; 0x166a <_ZN13VirtEncButton7tickISREa.constprop.126+0x26>
    1672:	b9 01       	movw	r22, r18
    1674:	64 23       	and	r22, r20
    1676:	75 23       	and	r23, r21
    1678:	67 2b       	or	r22, r23
    167a:	09 f0       	breq	.+2      	; 0x167e <_ZN13VirtEncButton7tickISREa.constprop.126+0x3a>
    167c:	43 c0       	rjmp	.+134    	; 0x1704 <_ZN13VirtEncButton7tickISREa.constprop.126+0xc0>
    167e:	24 2b       	or	r18, r20
    1680:	35 2b       	or	r19, r21
    1682:	11 16       	cp	r1, r17
    1684:	ec f0       	brlt	.+58     	; 0x16c0 <_ZN13VirtEncButton7tickISREa.constprop.126+0x7c>
    1686:	30 93 d6 05 	sts	0x05D6, r19	; 0x8005d6 <enc+0x15>
    168a:	20 93 d5 05 	sts	0x05D5, r18	; 0x8005d5 <enc+0x14>
    168e:	0e 94 16 0b 	call	0x162c	; 0x162c <millis>
    1692:	20 91 c2 05 	lds	r18, 0x05C2	; 0x8005c2 <enc+0x1>
    1696:	30 91 c3 05 	lds	r19, 0x05C3	; 0x8005c3 <enc+0x2>
    169a:	ab 01       	movw	r20, r22
    169c:	42 1b       	sub	r20, r18
    169e:	53 0b       	sbc	r21, r19
    16a0:	9a 01       	movw	r18, r20
    16a2:	40 91 d4 05 	lds	r20, 0x05D4	; 0x8005d4 <enc+0x13>
    16a6:	70 93 c3 05 	sts	0x05C3, r23	; 0x8005c3 <enc+0x2>
    16aa:	60 93 c2 05 	sts	0x05C2, r22	; 0x8005c2 <enc+0x1>
    16ae:	42 17       	cp	r20, r18
    16b0:	13 06       	cpc	r1, r19
    16b2:	09 f0       	breq	.+2      	; 0x16b6 <_ZN13VirtEncButton7tickISREa.constprop.126+0x72>
    16b4:	a0 f4       	brcc	.+40     	; 0x16de <_ZN13VirtEncButton7tickISREa.constprop.126+0x9a>
    16b6:	81 2f       	mov	r24, r17
    16b8:	df 91       	pop	r29
    16ba:	cf 91       	pop	r28
    16bc:	1f 91       	pop	r17
    16be:	08 95       	ret
    16c0:	ae 01       	movw	r20, r28
    16c2:	4f 5f       	subi	r20, 0xFF	; 255
    16c4:	5f 4f       	sbci	r21, 0xFF	; 255
    16c6:	02 c0       	rjmp	.+4      	; 0x16cc <_ZN13VirtEncButton7tickISREa.constprop.126+0x88>
    16c8:	88 0f       	add	r24, r24
    16ca:	99 1f       	adc	r25, r25
    16cc:	4a 95       	dec	r20
    16ce:	e2 f7       	brpl	.-8      	; 0x16c8 <_ZN13VirtEncButton7tickISREa.constprop.126+0x84>
    16d0:	82 2b       	or	r24, r18
    16d2:	93 2b       	or	r25, r19
    16d4:	90 93 d6 05 	sts	0x05D6, r25	; 0x8005d6 <enc+0x15>
    16d8:	80 93 d5 05 	sts	0x05D5, r24	; 0x8005d5 <enc+0x14>
    16dc:	d8 cf       	rjmp	.-80     	; 0x168e <_ZN13VirtEncButton7tickISREa.constprop.126+0x4a>
    16de:	22 96       	adiw	r28, 0x02	; 2
    16e0:	81 e0       	ldi	r24, 0x01	; 1
    16e2:	90 e0       	ldi	r25, 0x00	; 0
    16e4:	02 c0       	rjmp	.+4      	; 0x16ea <_ZN13VirtEncButton7tickISREa.constprop.126+0xa6>
    16e6:	88 0f       	add	r24, r24
    16e8:	99 1f       	adc	r25, r25
    16ea:	ca 95       	dec	r28
    16ec:	e2 f7       	brpl	.-8      	; 0x16e6 <_ZN13VirtEncButton7tickISREa.constprop.126+0xa2>
    16ee:	20 91 d5 05 	lds	r18, 0x05D5	; 0x8005d5 <enc+0x14>
    16f2:	30 91 d6 05 	lds	r19, 0x05D6	; 0x8005d6 <enc+0x15>
    16f6:	82 2b       	or	r24, r18
    16f8:	93 2b       	or	r25, r19
    16fa:	90 93 d6 05 	sts	0x05D6, r25	; 0x8005d6 <enc+0x15>
    16fe:	80 93 d5 05 	sts	0x05D5, r24	; 0x8005d5 <enc+0x14>
    1702:	d9 cf       	rjmp	.-78     	; 0x16b6 <_ZN13VirtEncButton7tickISREa.constprop.126+0x72>
    1704:	23 96       	adiw	r28, 0x03	; 3
    1706:	cf 30       	cpi	r28, 0x0F	; 15
    1708:	d1 05       	cpc	r29, r1
    170a:	09 f0       	breq	.+2      	; 0x170e <_ZN13VirtEncButton7tickISREa.constprop.126+0xca>
    170c:	ab cf       	rjmp	.-170    	; 0x1664 <_ZN13VirtEncButton7tickISREa.constprop.126+0x20>
    170e:	d3 cf       	rjmp	.-90     	; 0x16b6 <_ZN13VirtEncButton7tickISREa.constprop.126+0x72>

00001710 <_ZN13VirtEncButton4tickEab.constprop.124>:
    1710:	cf 93       	push	r28
    1712:	df 93       	push	r29
    1714:	d8 2f       	mov	r29, r24
    1716:	80 91 cc 05 	lds	r24, 0x05CC	; 0x8005cc <enc+0xb>
    171a:	90 91 cd 05 	lds	r25, 0x05CD	; 0x8005cd <enc+0xc>
    171e:	80 fd       	sbrc	r24, 0
    1720:	10 92 c1 05 	sts	0x05C1, r1	; 0x8005c1 <enc>
    1724:	9c 01       	movw	r18, r24
    1726:	2f 71       	andi	r18, 0x1F	; 31
    1728:	33 27       	eor	r19, r19
    172a:	23 2b       	or	r18, r19
    172c:	29 f0       	breq	.+10     	; 0x1738 <_ZN13VirtEncButton4tickEab.constprop.124+0x28>
    172e:	80 7e       	andi	r24, 0xE0	; 224
    1730:	90 93 cd 05 	sts	0x05CD, r25	; 0x8005cd <enc+0xc>
    1734:	80 93 cc 05 	sts	0x05CC, r24	; 0x8005cc <enc+0xb>
    1738:	80 91 d2 05 	lds	r24, 0x05D2	; 0x8005d2 <enc+0x11>
    173c:	85 ff       	sbrs	r24, 5
    173e:	03 c0       	rjmp	.+6      	; 0x1746 <_ZN13VirtEncButton4tickEab.constprop.124+0x36>
    1740:	8f 7d       	andi	r24, 0xDF	; 223
    1742:	80 93 d2 05 	sts	0x05D2, r24	; 0x8005d2 <enc+0x11>
    1746:	80 91 cc 05 	lds	r24, 0x05CC	; 0x8005cc <enc+0xb>
    174a:	90 91 cd 05 	lds	r25, 0x05CD	; 0x8005cd <enc+0xc>
    174e:	94 fb       	bst	r25, 4
    1750:	cc 27       	eor	r28, r28
    1752:	c0 f9       	bld	r28, 0
    1754:	c6 27       	eor	r28, r22
    1756:	96 ff       	sbrs	r25, 6
    1758:	06 c0       	rjmp	.+12     	; 0x1766 <_ZN13VirtEncButton4tickEab.constprop.124+0x56>
    175a:	9f 7b       	andi	r25, 0xBF	; 191
    175c:	90 93 cd 05 	sts	0x05CD, r25	; 0x8005cd <enc+0xc>
    1760:	80 93 cc 05 	sts	0x05CC, r24	; 0x8005cc <enc+0xb>
    1764:	c1 e0       	ldi	r28, 0x01	; 1
    1766:	80 91 cc 05 	lds	r24, 0x05CC	; 0x8005cc <enc+0xb>
    176a:	90 91 cd 05 	lds	r25, 0x05CD	; 0x8005cd <enc+0xc>
    176e:	91 fd       	sbrc	r25, 1
    1770:	08 c0       	rjmp	.+16     	; 0x1782 <_ZN13VirtEncButton4tickEab.constprop.124+0x72>
    1772:	cc 23       	and	r28, r28
    1774:	09 f4       	brne	.+2      	; 0x1778 <_ZN13VirtEncButton4tickEab.constprop.124+0x68>
    1776:	40 c0       	rjmp	.+128    	; 0x17f8 <_ZN13VirtEncButton4tickEab.constprop.124+0xe8>
    1778:	92 60       	ori	r25, 0x02	; 2
    177a:	90 93 cd 05 	sts	0x05CD, r25	; 0x8005cd <enc+0xc>
    177e:	80 93 cc 05 	sts	0x05CC, r24	; 0x8005cc <enc+0xb>
    1782:	0e 94 16 0b 	call	0x162c	; 0x162c <millis>
    1786:	20 91 c2 05 	lds	r18, 0x05C2	; 0x8005c2 <enc+0x1>
    178a:	30 91 c3 05 	lds	r19, 0x05C3	; 0x8005c3 <enc+0x2>
    178e:	fb 01       	movw	r30, r22
    1790:	e2 1b       	sub	r30, r18
    1792:	f3 0b       	sbc	r31, r19
    1794:	20 91 cc 05 	lds	r18, 0x05CC	; 0x8005cc <enc+0xb>
    1798:	30 91 cd 05 	lds	r19, 0x05CD	; 0x8005cd <enc+0xc>
    179c:	cc 23       	and	r28, r28
    179e:	09 f4       	brne	.+2      	; 0x17a2 <_ZN13VirtEncButton4tickEab.constprop.124+0x92>
    17a0:	85 c0       	rjmp	.+266    	; 0x18ac <_ZN13VirtEncButton4tickEab.constprop.124+0x19c>
    17a2:	25 fd       	sbrc	r18, 5
    17a4:	64 c0       	rjmp	.+200    	; 0x186e <_ZN13VirtEncButton4tickEab.constprop.124+0x15e>
    17a6:	40 91 c8 05 	lds	r20, 0x05C8	; 0x8005c8 <enc+0x7>
    17aa:	32 fd       	sbrc	r19, 2
    17ac:	08 c0       	rjmp	.+16     	; 0x17be <_ZN13VirtEncButton4tickEab.constprop.124+0xae>
    17ae:	44 23       	and	r20, r20
    17b0:	31 f0       	breq	.+12     	; 0x17be <_ZN13VirtEncButton4tickEab.constprop.124+0xae>
    17b2:	34 60       	ori	r19, 0x04	; 4
    17b4:	30 93 cd 05 	sts	0x05CD, r19	; 0x8005cd <enc+0xc>
    17b8:	20 93 cc 05 	sts	0x05CC, r18	; 0x8005cc <enc+0xb>
    17bc:	0f c0       	rjmp	.+30     	; 0x17dc <_ZN13VirtEncButton4tickEab.constprop.124+0xcc>
    17be:	4e 17       	cp	r20, r30
    17c0:	1f 06       	cpc	r1, r31
    17c2:	19 f0       	breq	.+6      	; 0x17ca <_ZN13VirtEncButton4tickEab.constprop.124+0xba>
    17c4:	10 f0       	brcs	.+4      	; 0x17ca <_ZN13VirtEncButton4tickEab.constprop.124+0xba>
    17c6:	41 11       	cpse	r20, r1
    17c8:	0d c0       	rjmp	.+26     	; 0x17e4 <_ZN13VirtEncButton4tickEab.constprop.124+0xd4>
    17ca:	22 62       	ori	r18, 0x22	; 34
    17cc:	30 93 cd 05 	sts	0x05CD, r19	; 0x8005cd <enc+0xc>
    17d0:	20 93 cc 05 	sts	0x05CC, r18	; 0x8005cc <enc+0xb>
    17d4:	70 93 c5 05 	sts	0x05C5, r23	; 0x8005c5 <enc+0x4>
    17d8:	60 93 c4 05 	sts	0x05C4, r22	; 0x8005c4 <enc+0x3>
    17dc:	70 93 c3 05 	sts	0x05C3, r23	; 0x8005c3 <enc+0x2>
    17e0:	60 93 c2 05 	sts	0x05C2, r22	; 0x8005c2 <enc+0x1>
    17e4:	80 91 cc 05 	lds	r24, 0x05CC	; 0x8005cc <enc+0xb>
    17e8:	90 91 cd 05 	lds	r25, 0x05CD	; 0x8005cd <enc+0xc>
    17ec:	8f 71       	andi	r24, 0x1F	; 31
    17ee:	99 27       	eor	r25, r25
    17f0:	c1 e0       	ldi	r28, 0x01	; 1
    17f2:	89 2b       	or	r24, r25
    17f4:	09 f4       	brne	.+2      	; 0x17f8 <_ZN13VirtEncButton4tickEab.constprop.124+0xe8>
    17f6:	c0 e0       	ldi	r28, 0x00	; 0
    17f8:	80 91 d5 05 	lds	r24, 0x05D5	; 0x8005d5 <enc+0x14>
    17fc:	90 91 d6 05 	lds	r25, 0x05D6	; 0x8005d6 <enc+0x15>
    1800:	00 97       	sbiw	r24, 0x00	; 0
    1802:	09 f4       	brne	.+2      	; 0x1806 <_ZN13VirtEncButton4tickEab.constprop.124+0xf6>
    1804:	c2 c0       	rjmp	.+388    	; 0x198a <_ZN13VirtEncButton4tickEab.constprop.124+0x27a>
    1806:	20 91 d2 05 	lds	r18, 0x05D2	; 0x8005d2 <enc+0x11>
    180a:	81 ff       	sbrs	r24, 1
    180c:	ba c0       	rjmp	.+372    	; 0x1982 <_ZN13VirtEncButton4tickEab.constprop.124+0x272>
    180e:	20 61       	ori	r18, 0x10	; 16
    1810:	20 93 d2 05 	sts	0x05D2, r18	; 0x8005d2 <enc+0x11>
    1814:	20 91 d2 05 	lds	r18, 0x05D2	; 0x8005d2 <enc+0x11>
    1818:	82 ff       	sbrs	r24, 2
    181a:	b5 c0       	rjmp	.+362    	; 0x1986 <_ZN13VirtEncButton4tickEab.constprop.124+0x276>
    181c:	28 60       	ori	r18, 0x08	; 8
    181e:	20 93 d2 05 	sts	0x05D2, r18	; 0x8005d2 <enc+0x11>
    1822:	23 e0       	ldi	r18, 0x03	; 3
    1824:	96 95       	lsr	r25
    1826:	87 95       	ror	r24
    1828:	2a 95       	dec	r18
    182a:	e1 f7       	brne	.-8      	; 0x1824 <_ZN13VirtEncButton4tickEab.constprop.124+0x114>
    182c:	90 93 d6 05 	sts	0x05D6, r25	; 0x8005d6 <enc+0x15>
    1830:	80 93 d5 05 	sts	0x05D5, r24	; 0x8005d5 <enc+0x14>
    1834:	80 91 cc 05 	lds	r24, 0x05CC	; 0x8005cc <enc+0xb>
    1838:	90 91 cd 05 	lds	r25, 0x05CD	; 0x8005cd <enc+0xc>
    183c:	85 ff       	sbrs	r24, 5
    183e:	e0 c0       	rjmp	.+448    	; 0x1a00 <_ZN13VirtEncButton4tickEab.constprop.124+0x2f0>
    1840:	90 68       	ori	r25, 0x80	; 128
    1842:	90 93 cd 05 	sts	0x05CD, r25	; 0x8005cd <enc+0xc>
    1846:	80 93 cc 05 	sts	0x05CC, r24	; 0x8005cc <enc+0xb>
    184a:	80 91 cc 05 	lds	r24, 0x05CC	; 0x8005cc <enc+0xb>
    184e:	90 91 cd 05 	lds	r25, 0x05CD	; 0x8005cd <enc+0xc>
    1852:	93 fd       	sbrc	r25, 3
    1854:	05 c0       	rjmp	.+10     	; 0x1860 <_ZN13VirtEncButton4tickEab.constprop.124+0x150>
    1856:	98 60       	ori	r25, 0x08	; 8
    1858:	90 93 cd 05 	sts	0x05CD, r25	; 0x8005cd <enc+0xc>
    185c:	80 93 cc 05 	sts	0x05CC, r24	; 0x8005cc <enc+0xb>
    1860:	80 91 d2 05 	lds	r24, 0x05D2	; 0x8005d2 <enc+0x11>
    1864:	80 62       	ori	r24, 0x20	; 32
    1866:	80 93 d2 05 	sts	0x05D2, r24	; 0x8005d2 <enc+0x11>
    186a:	61 e0       	ldi	r22, 0x01	; 1
    186c:	91 c0       	rjmp	.+290    	; 0x1990 <_ZN13VirtEncButton4tickEab.constprop.124+0x280>
    186e:	37 fd       	sbrc	r19, 7
    1870:	b9 cf       	rjmp	.-142    	; 0x17e4 <_ZN13VirtEncButton4tickEab.constprop.124+0xd4>
    1872:	26 fd       	sbrc	r18, 6
    1874:	0c c0       	rjmp	.+24     	; 0x188e <_ZN13VirtEncButton4tickEab.constprop.124+0x17e>
    1876:	40 91 ca 05 	lds	r20, 0x05CA	; 0x8005ca <enc+0x9>
    187a:	a0 e1       	ldi	r26, 0x10	; 16
    187c:	4a 9f       	mul	r20, r26
    187e:	a0 01       	movw	r20, r0
    1880:	11 24       	eor	r1, r1
    1882:	e4 17       	cp	r30, r20
    1884:	f5 07       	cpc	r31, r21
    1886:	08 f4       	brcc	.+2      	; 0x188a <_ZN13VirtEncButton4tickEab.constprop.124+0x17a>
    1888:	ad cf       	rjmp	.-166    	; 0x17e4 <_ZN13VirtEncButton4tickEab.constprop.124+0xd4>
    188a:	24 64       	ori	r18, 0x44	; 68
    188c:	93 cf       	rjmp	.-218    	; 0x17b4 <_ZN13VirtEncButton4tickEab.constprop.124+0xa4>
    188e:	40 91 cb 05 	lds	r20, 0x05CB	; 0x8005cb <enc+0xa>
    1892:	27 ff       	sbrs	r18, 7
    1894:	40 91 ca 05 	lds	r20, 0x05CA	; 0x8005ca <enc+0x9>
    1898:	a0 e1       	ldi	r26, 0x10	; 16
    189a:	4a 9f       	mul	r20, r26
    189c:	a0 01       	movw	r20, r0
    189e:	11 24       	eor	r1, r1
    18a0:	28 68       	ori	r18, 0x88	; 136
    18a2:	e4 17       	cp	r30, r20
    18a4:	f5 07       	cpc	r31, r21
    18a6:	08 f0       	brcs	.+2      	; 0x18aa <_ZN13VirtEncButton4tickEab.constprop.124+0x19a>
    18a8:	85 cf       	rjmp	.-246    	; 0x17b4 <_ZN13VirtEncButton4tickEab.constprop.124+0xa4>
    18aa:	9c cf       	rjmp	.-200    	; 0x17e4 <_ZN13VirtEncButton4tickEab.constprop.124+0xd4>
    18ac:	25 ff       	sbrs	r18, 5
    18ae:	19 c0       	rjmp	.+50     	; 0x18e2 <_ZN13VirtEncButton4tickEab.constprop.124+0x1d2>
    18b0:	80 91 c8 05 	lds	r24, 0x05C8	; 0x8005c8 <enc+0x7>
    18b4:	8e 17       	cp	r24, r30
    18b6:	1f 06       	cpc	r1, r31
    18b8:	11 f0       	breq	.+4      	; 0x18be <_ZN13VirtEncButton4tickEab.constprop.124+0x1ae>
    18ba:	08 f0       	brcs	.+2      	; 0x18be <_ZN13VirtEncButton4tickEab.constprop.124+0x1ae>
    18bc:	41 c0       	rjmp	.+130    	; 0x1940 <_ZN13VirtEncButton4tickEab.constprop.124+0x230>
    18be:	26 fd       	sbrc	r18, 6
    18c0:	05 c0       	rjmp	.+10     	; 0x18cc <_ZN13VirtEncButton4tickEab.constprop.124+0x1bc>
    18c2:	80 91 c1 05 	lds	r24, 0x05C1	; 0x8005c1 <enc>
    18c6:	8f 5f       	subi	r24, 0xFF	; 255
    18c8:	80 93 c1 05 	sts	0x05C1, r24	; 0x8005c1 <enc>
    18cc:	37 fd       	sbrc	r19, 7
    18ce:	10 92 c1 05 	sts	0x05C1, r1	; 0x8005c1 <enc>
    18d2:	2f 7d       	andi	r18, 0xDF	; 223
    18d4:	20 61       	ori	r18, 0x10	; 16
    18d6:	31 60       	ori	r19, 0x01	; 1
    18d8:	30 93 cd 05 	sts	0x05CD, r19	; 0x8005cd <enc+0xc>
    18dc:	20 93 cc 05 	sts	0x05CC, r18	; 0x8005cc <enc+0xb>
    18e0:	2f c0       	rjmp	.+94     	; 0x1940 <_ZN13VirtEncButton4tickEab.constprop.124+0x230>
    18e2:	30 ff       	sbrs	r19, 0
    18e4:	15 c0       	rjmp	.+42     	; 0x1910 <_ZN13VirtEncButton4tickEab.constprop.124+0x200>
    18e6:	37 fd       	sbrc	r19, 7
    18e8:	05 c0       	rjmp	.+10     	; 0x18f4 <_ZN13VirtEncButton4tickEab.constprop.124+0x1e4>
    18ea:	20 61       	ori	r18, 0x10	; 16
    18ec:	30 93 cd 05 	sts	0x05CD, r19	; 0x8005cd <enc+0xc>
    18f0:	20 93 cc 05 	sts	0x05CC, r18	; 0x8005cc <enc+0xb>
    18f4:	20 91 cc 05 	lds	r18, 0x05CC	; 0x8005cc <enc+0xb>
    18f8:	30 91 cd 05 	lds	r19, 0x05CD	; 0x8005cd <enc+0xc>
    18fc:	3e 77       	andi	r19, 0x7E	; 126
    18fe:	30 93 cd 05 	sts	0x05CD, r19	; 0x8005cd <enc+0xc>
    1902:	20 93 cc 05 	sts	0x05CC, r18	; 0x8005cc <enc+0xb>
    1906:	70 93 c3 05 	sts	0x05C3, r23	; 0x8005c3 <enc+0x2>
    190a:	60 93 c2 05 	sts	0x05C2, r22	; 0x8005c2 <enc+0x1>
    190e:	18 c0       	rjmp	.+48     	; 0x1940 <_ZN13VirtEncButton4tickEab.constprop.124+0x230>
    1910:	40 91 c1 05 	lds	r20, 0x05C1	; 0x8005c1 <enc>
    1914:	44 23       	and	r20, r20
    1916:	39 f1       	breq	.+78     	; 0x1966 <_ZN13VirtEncButton4tickEab.constprop.124+0x256>
    1918:	c9 01       	movw	r24, r18
    191a:	80 7c       	andi	r24, 0xC0	; 192
    191c:	99 27       	eor	r25, r25
    191e:	89 2b       	or	r24, r25
    1920:	d9 f4       	brne	.+54     	; 0x1958 <_ZN13VirtEncButton4tickEab.constprop.124+0x248>
    1922:	80 91 c9 05 	lds	r24, 0x05C9	; 0x8005c9 <enc+0x8>
    1926:	40 e1       	ldi	r20, 0x10	; 16
    1928:	84 9f       	mul	r24, r20
    192a:	c0 01       	movw	r24, r0
    192c:	11 24       	eor	r1, r1
    192e:	e8 17       	cp	r30, r24
    1930:	f9 07       	cpc	r31, r25
    1932:	90 f4       	brcc	.+36     	; 0x1958 <_ZN13VirtEncButton4tickEab.constprop.124+0x248>
    1934:	80 91 c4 05 	lds	r24, 0x05C4	; 0x8005c4 <enc+0x3>
    1938:	90 91 c5 05 	lds	r25, 0x05C5	; 0x8005c5 <enc+0x4>
    193c:	89 2b       	or	r24, r25
    193e:	71 f4       	brne	.+28     	; 0x195c <_ZN13VirtEncButton4tickEab.constprop.124+0x24c>
    1940:	80 91 cc 05 	lds	r24, 0x05CC	; 0x8005cc <enc+0xb>
    1944:	90 91 cd 05 	lds	r25, 0x05CD	; 0x8005cd <enc+0xc>
    1948:	92 ff       	sbrs	r25, 2
    194a:	4c cf       	rjmp	.-360    	; 0x17e4 <_ZN13VirtEncButton4tickEab.constprop.124+0xd4>
    194c:	9b 7f       	andi	r25, 0xFB	; 251
    194e:	90 93 cd 05 	sts	0x05CD, r25	; 0x8005cd <enc+0xc>
    1952:	80 93 cc 05 	sts	0x05CC, r24	; 0x8005cc <enc+0xb>
    1956:	46 cf       	rjmp	.-372    	; 0x17e4 <_ZN13VirtEncButton4tickEab.constprop.124+0xd4>
    1958:	21 60       	ori	r18, 0x01	; 1
    195a:	be cf       	rjmp	.-132    	; 0x18d8 <_ZN13VirtEncButton4tickEab.constprop.124+0x1c8>
    195c:	10 92 c5 05 	sts	0x05C5, r1	; 0x8005c5 <enc+0x4>
    1960:	10 92 c4 05 	sts	0x05C4, r1	; 0x8005c4 <enc+0x3>
    1964:	ed cf       	rjmp	.-38     	; 0x1940 <_ZN13VirtEncButton4tickEab.constprop.124+0x230>
    1966:	31 ff       	sbrs	r19, 1
    1968:	eb cf       	rjmp	.-42     	; 0x1940 <_ZN13VirtEncButton4tickEab.constprop.124+0x230>
    196a:	2f 73       	andi	r18, 0x3F	; 63
    196c:	3d 7f       	andi	r19, 0xFD	; 253
    196e:	38 60       	ori	r19, 0x08	; 8
    1970:	30 93 cd 05 	sts	0x05CD, r19	; 0x8005cd <enc+0xc>
    1974:	20 93 cc 05 	sts	0x05CC, r18	; 0x8005cc <enc+0xb>
    1978:	10 92 c5 05 	sts	0x05C5, r1	; 0x8005c5 <enc+0x4>
    197c:	10 92 c4 05 	sts	0x05C4, r1	; 0x8005c4 <enc+0x3>
    1980:	c2 cf       	rjmp	.-124    	; 0x1906 <_ZN13VirtEncButton4tickEab.constprop.124+0x1f6>
    1982:	2f 7e       	andi	r18, 0xEF	; 239
    1984:	45 cf       	rjmp	.-374    	; 0x1810 <_ZN13VirtEncButton4tickEab.constprop.124+0x100>
    1986:	27 7f       	andi	r18, 0xF7	; 247
    1988:	4a cf       	rjmp	.-364    	; 0x181e <_ZN13VirtEncButton4tickEab.constprop.124+0x10e>
    198a:	d7 ff       	sbrs	r29, 7
    198c:	0e c0       	rjmp	.+28     	; 0x19aa <_ZN13VirtEncButton4tickEab.constprop.124+0x29a>
    198e:	60 e0       	ldi	r22, 0x00	; 0
    1990:	c6 2b       	or	r28, r22
    1992:	e0 91 c6 05 	lds	r30, 0x05C6	; 0x8005c6 <enc+0x5>
    1996:	f0 91 c7 05 	lds	r31, 0x05C7	; 0x8005c7 <enc+0x6>
    199a:	30 97       	sbiw	r30, 0x00	; 0
    199c:	11 f0       	breq	.+4      	; 0x19a2 <_ZN13VirtEncButton4tickEab.constprop.124+0x292>
    199e:	c1 11       	cpse	r28, r1
    19a0:	09 95       	icall
    19a2:	8c 2f       	mov	r24, r28
    19a4:	df 91       	pop	r29
    19a6:	cf 91       	pop	r28
    19a8:	08 95       	ret
    19aa:	8d 2f       	mov	r24, r29
    19ac:	0e 94 42 06 	call	0xc84	; 0xc84 <_ZN11VirtEncoder7pollEncEa.constprop.131>
    19b0:	88 23       	and	r24, r24
    19b2:	69 f3       	breq	.-38     	; 0x198e <_ZN13VirtEncButton4tickEab.constprop.124+0x27e>
    19b4:	90 91 d2 05 	lds	r25, 0x05D2	; 0x8005d2 <enc+0x11>
    19b8:	18 16       	cp	r1, r24
    19ba:	f4 f4       	brge	.+60     	; 0x19f8 <_ZN13VirtEncButton4tickEab.constprop.124+0x2e8>
    19bc:	90 61       	ori	r25, 0x10	; 16
    19be:	90 93 d2 05 	sts	0x05D2, r25	; 0x8005d2 <enc+0x11>
    19c2:	0e 94 16 0b 	call	0x162c	; 0x162c <millis>
    19c6:	20 91 c2 05 	lds	r18, 0x05C2	; 0x8005c2 <enc+0x1>
    19ca:	30 91 c3 05 	lds	r19, 0x05C3	; 0x8005c3 <enc+0x2>
    19ce:	ab 01       	movw	r20, r22
    19d0:	42 1b       	sub	r20, r18
    19d2:	53 0b       	sbc	r21, r19
    19d4:	9a 01       	movw	r18, r20
    19d6:	40 91 d4 05 	lds	r20, 0x05D4	; 0x8005d4 <enc+0x13>
    19da:	50 91 d2 05 	lds	r21, 0x05D2	; 0x8005d2 <enc+0x11>
    19de:	70 93 c3 05 	sts	0x05C3, r23	; 0x8005c3 <enc+0x2>
    19e2:	60 93 c2 05 	sts	0x05C2, r22	; 0x8005c2 <enc+0x1>
    19e6:	85 2f       	mov	r24, r21
    19e8:	42 17       	cp	r20, r18
    19ea:	13 06       	cpc	r1, r19
    19ec:	09 f0       	breq	.+2      	; 0x19f0 <_ZN13VirtEncButton4tickEab.constprop.124+0x2e0>
    19ee:	30 f4       	brcc	.+12     	; 0x19fc <_ZN13VirtEncButton4tickEab.constprop.124+0x2ec>
    19f0:	87 7f       	andi	r24, 0xF7	; 247
    19f2:	80 93 d2 05 	sts	0x05D2, r24	; 0x8005d2 <enc+0x11>
    19f6:	1e cf       	rjmp	.-452    	; 0x1834 <_ZN13VirtEncButton4tickEab.constprop.124+0x124>
    19f8:	9f 7e       	andi	r25, 0xEF	; 239
    19fa:	e1 cf       	rjmp	.-62     	; 0x19be <_ZN13VirtEncButton4tickEab.constprop.124+0x2ae>
    19fc:	88 60       	ori	r24, 0x08	; 8
    19fe:	f9 cf       	rjmp	.-14     	; 0x19f2 <_ZN13VirtEncButton4tickEab.constprop.124+0x2e2>
    1a00:	10 92 c1 05 	sts	0x05C1, r1	; 0x8005c1 <enc>
    1a04:	22 cf       	rjmp	.-444    	; 0x184a <_ZN13VirtEncButton4tickEab.constprop.124+0x13a>

00001a06 <_ZN3PID7ComputeEv.constprop.15>:
    1a06:	2f 92       	push	r2
    1a08:	3f 92       	push	r3
    1a0a:	4f 92       	push	r4
    1a0c:	5f 92       	push	r5
    1a0e:	6f 92       	push	r6
    1a10:	7f 92       	push	r7
    1a12:	8f 92       	push	r8
    1a14:	9f 92       	push	r9
    1a16:	af 92       	push	r10
    1a18:	bf 92       	push	r11
    1a1a:	cf 92       	push	r12
    1a1c:	df 92       	push	r13
    1a1e:	ef 92       	push	r14
    1a20:	ff 92       	push	r15
    1a22:	0f 93       	push	r16
    1a24:	1f 93       	push	r17
    1a26:	cf 93       	push	r28
    1a28:	df 93       	push	r29
    1a2a:	cd b7       	in	r28, 0x3d	; 61
    1a2c:	de b7       	in	r29, 0x3e	; 62
    1a2e:	2e 97       	sbiw	r28, 0x0e	; 14
    1a30:	0f b6       	in	r0, 0x3f	; 63
    1a32:	f8 94       	cli
    1a34:	de bf       	out	0x3e, r29	; 62
    1a36:	0f be       	out	0x3f, r0	; 63
    1a38:	cd bf       	out	0x3d, r28	; 61
    1a3a:	30 90 6b 05 	lds	r3, 0x056B	; 0x80056b <pid+0x3a>
    1a3e:	31 10       	cpse	r3, r1
    1a40:	1b c0       	rjmp	.+54     	; 0x1a78 <_ZN3PID7ComputeEv.constprop.15+0x72>
    1a42:	31 2c       	mov	r3, r1
    1a44:	83 2d       	mov	r24, r3
    1a46:	2e 96       	adiw	r28, 0x0e	; 14
    1a48:	0f b6       	in	r0, 0x3f	; 63
    1a4a:	f8 94       	cli
    1a4c:	de bf       	out	0x3e, r29	; 62
    1a4e:	0f be       	out	0x3f, r0	; 63
    1a50:	cd bf       	out	0x3d, r28	; 61
    1a52:	df 91       	pop	r29
    1a54:	cf 91       	pop	r28
    1a56:	1f 91       	pop	r17
    1a58:	0f 91       	pop	r16
    1a5a:	ff 90       	pop	r15
    1a5c:	ef 90       	pop	r14
    1a5e:	df 90       	pop	r13
    1a60:	cf 90       	pop	r12
    1a62:	bf 90       	pop	r11
    1a64:	af 90       	pop	r10
    1a66:	9f 90       	pop	r9
    1a68:	8f 90       	pop	r8
    1a6a:	7f 90       	pop	r7
    1a6c:	6f 90       	pop	r6
    1a6e:	5f 90       	pop	r5
    1a70:	4f 90       	pop	r4
    1a72:	3f 90       	pop	r3
    1a74:	2f 90       	pop	r2
    1a76:	08 95       	ret
    1a78:	0e 94 16 0b 	call	0x162c	; 0x162c <millis>
    1a7c:	6d 83       	std	Y+5, r22	; 0x05
    1a7e:	7e 83       	std	Y+6, r23	; 0x06
    1a80:	8f 83       	std	Y+7, r24	; 0x07
    1a82:	98 87       	std	Y+8, r25	; 0x08
    1a84:	80 91 53 05 	lds	r24, 0x0553	; 0x800553 <pid+0x22>
    1a88:	90 91 54 05 	lds	r25, 0x0554	; 0x800554 <pid+0x23>
    1a8c:	a0 91 55 05 	lds	r26, 0x0555	; 0x800555 <pid+0x24>
    1a90:	b0 91 56 05 	lds	r27, 0x0556	; 0x800556 <pid+0x25>
    1a94:	4d 81       	ldd	r20, Y+5	; 0x05
    1a96:	5e 81       	ldd	r21, Y+6	; 0x06
    1a98:	6f 81       	ldd	r22, Y+7	; 0x07
    1a9a:	78 85       	ldd	r23, Y+8	; 0x08
    1a9c:	48 1b       	sub	r20, r24
    1a9e:	59 0b       	sbc	r21, r25
    1aa0:	6a 0b       	sbc	r22, r26
    1aa2:	7b 0b       	sbc	r23, r27
    1aa4:	80 91 5f 05 	lds	r24, 0x055F	; 0x80055f <pid+0x2e>
    1aa8:	90 91 60 05 	lds	r25, 0x0560	; 0x800560 <pid+0x2f>
    1aac:	a0 91 61 05 	lds	r26, 0x0561	; 0x800561 <pid+0x30>
    1ab0:	b0 91 62 05 	lds	r27, 0x0562	; 0x800562 <pid+0x31>
    1ab4:	48 17       	cp	r20, r24
    1ab6:	59 07       	cpc	r21, r25
    1ab8:	6a 07       	cpc	r22, r26
    1aba:	7b 07       	cpc	r23, r27
    1abc:	10 f2       	brcs	.-124    	; 0x1a42 <_ZN3PID7ComputeEv.constprop.15+0x3c>
    1abe:	e0 91 4d 05 	lds	r30, 0x054D	; 0x80054d <pid+0x1c>
    1ac2:	f0 91 4e 05 	lds	r31, 0x054E	; 0x80054e <pid+0x1d>
    1ac6:	80 81       	ld	r24, Z
    1ac8:	91 81       	ldd	r25, Z+1	; 0x01
    1aca:	a2 81       	ldd	r26, Z+2	; 0x02
    1acc:	b3 81       	ldd	r27, Z+3	; 0x03
    1ace:	89 83       	std	Y+1, r24	; 0x01
    1ad0:	9a 83       	std	Y+2, r25	; 0x02
    1ad2:	ab 83       	std	Y+3, r26	; 0x03
    1ad4:	bc 83       	std	Y+4, r27	; 0x04
    1ad6:	e0 91 51 05 	lds	r30, 0x0551	; 0x800551 <pid+0x20>
    1ada:	f0 91 52 05 	lds	r31, 0x0552	; 0x800552 <pid+0x21>
    1ade:	9c 01       	movw	r18, r24
    1ae0:	ad 01       	movw	r20, r26
    1ae2:	60 81       	ld	r22, Z
    1ae4:	71 81       	ldd	r23, Z+1	; 0x01
    1ae6:	82 81       	ldd	r24, Z+2	; 0x02
    1ae8:	93 81       	ldd	r25, Z+3	; 0x03
    1aea:	0e 94 fc 3b 	call	0x77f8	; 0x77f8 <__subsf3>
    1aee:	4b 01       	movw	r8, r22
    1af0:	5c 01       	movw	r10, r24
    1af2:	20 91 5b 05 	lds	r18, 0x055B	; 0x80055b <pid+0x2a>
    1af6:	30 91 5c 05 	lds	r19, 0x055C	; 0x80055c <pid+0x2b>
    1afa:	40 91 5d 05 	lds	r20, 0x055D	; 0x80055d <pid+0x2c>
    1afe:	50 91 5e 05 	lds	r21, 0x055E	; 0x80055e <pid+0x2d>
    1b02:	69 81       	ldd	r22, Y+1	; 0x01
    1b04:	7a 81       	ldd	r23, Y+2	; 0x02
    1b06:	8b 81       	ldd	r24, Y+3	; 0x03
    1b08:	9c 81       	ldd	r25, Y+4	; 0x04
    1b0a:	0e 94 fc 3b 	call	0x77f8	; 0x77f8 <__subsf3>
    1b0e:	6b 01       	movw	r12, r22
    1b10:	7c 01       	movw	r14, r24
    1b12:	20 91 41 05 	lds	r18, 0x0541	; 0x800541 <pid+0x10>
    1b16:	30 91 42 05 	lds	r19, 0x0542	; 0x800542 <pid+0x11>
    1b1a:	40 91 43 05 	lds	r20, 0x0543	; 0x800543 <pid+0x12>
    1b1e:	50 91 44 05 	lds	r21, 0x0544	; 0x800544 <pid+0x13>
    1b22:	c5 01       	movw	r24, r10
    1b24:	b4 01       	movw	r22, r8
    1b26:	0e 94 cd 3d 	call	0x7b9a	; 0x7b9a <__mulsf3>
    1b2a:	20 91 57 05 	lds	r18, 0x0557	; 0x800557 <pid+0x26>
    1b2e:	30 91 58 05 	lds	r19, 0x0558	; 0x800558 <pid+0x27>
    1b32:	40 91 59 05 	lds	r20, 0x0559	; 0x800559 <pid+0x28>
    1b36:	50 91 5a 05 	lds	r21, 0x055A	; 0x80055a <pid+0x29>
    1b3a:	0e 94 fd 3b 	call	0x77fa	; 0x77fa <__addsf3>
    1b3e:	2b 01       	movw	r4, r22
    1b40:	3c 01       	movw	r6, r24
    1b42:	40 92 57 05 	sts	0x0557, r4	; 0x800557 <pid+0x26>
    1b46:	50 92 58 05 	sts	0x0558, r5	; 0x800558 <pid+0x27>
    1b4a:	60 92 59 05 	sts	0x0559, r6	; 0x800559 <pid+0x28>
    1b4e:	70 92 5a 05 	sts	0x055A, r7	; 0x80055a <pid+0x29>
    1b52:	20 90 6c 05 	lds	r2, 0x056C	; 0x80056c <pid+0x3b>
    1b56:	21 10       	cpse	r2, r1
    1b58:	1a c0       	rjmp	.+52     	; 0x1b8e <_ZN3PID7ComputeEv.constprop.15+0x188>
    1b5a:	20 91 3d 05 	lds	r18, 0x053D	; 0x80053d <pid+0xc>
    1b5e:	30 91 3e 05 	lds	r19, 0x053E	; 0x80053e <pid+0xd>
    1b62:	40 91 3f 05 	lds	r20, 0x053F	; 0x80053f <pid+0xe>
    1b66:	50 91 40 05 	lds	r21, 0x0540	; 0x800540 <pid+0xf>
    1b6a:	c7 01       	movw	r24, r14
    1b6c:	b6 01       	movw	r22, r12
    1b6e:	0e 94 cd 3d 	call	0x7b9a	; 0x7b9a <__mulsf3>
    1b72:	9b 01       	movw	r18, r22
    1b74:	ac 01       	movw	r20, r24
    1b76:	c3 01       	movw	r24, r6
    1b78:	b2 01       	movw	r22, r4
    1b7a:	0e 94 fc 3b 	call	0x77f8	; 0x77f8 <__subsf3>
    1b7e:	60 93 57 05 	sts	0x0557, r22	; 0x800557 <pid+0x26>
    1b82:	70 93 58 05 	sts	0x0558, r23	; 0x800558 <pid+0x27>
    1b86:	80 93 59 05 	sts	0x0559, r24	; 0x800559 <pid+0x28>
    1b8a:	90 93 5a 05 	sts	0x055A, r25	; 0x80055a <pid+0x29>
    1b8e:	40 90 57 05 	lds	r4, 0x0557	; 0x800557 <pid+0x26>
    1b92:	50 90 58 05 	lds	r5, 0x0558	; 0x800558 <pid+0x27>
    1b96:	60 90 59 05 	lds	r6, 0x0559	; 0x800559 <pid+0x28>
    1b9a:	70 90 5a 05 	lds	r7, 0x055A	; 0x80055a <pid+0x29>
    1b9e:	10 91 67 05 	lds	r17, 0x0567	; 0x800567 <pid+0x36>
    1ba2:	90 91 68 05 	lds	r25, 0x0568	; 0x800568 <pid+0x37>
    1ba6:	9e 87       	std	Y+14, r25	; 0x0e
    1ba8:	a0 91 69 05 	lds	r26, 0x0569	; 0x800569 <pid+0x38>
    1bac:	ad 87       	std	Y+13, r26	; 0x0d
    1bae:	00 91 6a 05 	lds	r16, 0x056A	; 0x80056a <pid+0x39>
    1bb2:	21 2f       	mov	r18, r17
    1bb4:	39 2f       	mov	r19, r25
    1bb6:	4a 2f       	mov	r20, r26
    1bb8:	50 2f       	mov	r21, r16
    1bba:	c3 01       	movw	r24, r6
    1bbc:	b2 01       	movw	r22, r4
    1bbe:	0e 94 c8 3d 	call	0x7b90	; 0x7b90 <__gesf2>
    1bc2:	18 16       	cp	r1, r24
    1bc4:	0c f0       	brlt	.+2      	; 0x1bc8 <_ZN3PID7ComputeEv.constprop.15+0x1c2>
    1bc6:	82 c0       	rjmp	.+260    	; 0x1ccc <_ZN3PID7ComputeEv.constprop.15+0x2c6>
    1bc8:	81 2f       	mov	r24, r17
    1bca:	9e 85       	ldd	r25, Y+14	; 0x0e
    1bcc:	ad 85       	ldd	r26, Y+13	; 0x0d
    1bce:	b0 2f       	mov	r27, r16
    1bd0:	80 93 57 05 	sts	0x0557, r24	; 0x800557 <pid+0x26>
    1bd4:	90 93 58 05 	sts	0x0558, r25	; 0x800558 <pid+0x27>
    1bd8:	a0 93 59 05 	sts	0x0559, r26	; 0x800559 <pid+0x28>
    1bdc:	b0 93 5a 05 	sts	0x055A, r27	; 0x80055a <pid+0x29>
    1be0:	22 20       	and	r2, r2
    1be2:	09 f4       	brne	.+2      	; 0x1be6 <_ZN3PID7ComputeEv.constprop.15+0x1e0>
    1be4:	8c c0       	rjmp	.+280    	; 0x1cfe <_ZN3PID7ComputeEv.constprop.15+0x2f8>
    1be6:	20 91 3d 05 	lds	r18, 0x053D	; 0x80053d <pid+0xc>
    1bea:	30 91 3e 05 	lds	r19, 0x053E	; 0x80053e <pid+0xd>
    1bee:	40 91 3f 05 	lds	r20, 0x053F	; 0x80053f <pid+0xe>
    1bf2:	50 91 40 05 	lds	r21, 0x0540	; 0x800540 <pid+0xf>
    1bf6:	c5 01       	movw	r24, r10
    1bf8:	b4 01       	movw	r22, r8
    1bfa:	0e 94 cd 3d 	call	0x7b9a	; 0x7b9a <__mulsf3>
    1bfe:	4b 01       	movw	r8, r22
    1c00:	5c 01       	movw	r10, r24
    1c02:	20 91 45 05 	lds	r18, 0x0545	; 0x800545 <pid+0x14>
    1c06:	30 91 46 05 	lds	r19, 0x0546	; 0x800546 <pid+0x15>
    1c0a:	40 91 47 05 	lds	r20, 0x0547	; 0x800547 <pid+0x16>
    1c0e:	50 91 48 05 	lds	r21, 0x0548	; 0x800548 <pid+0x17>
    1c12:	c7 01       	movw	r24, r14
    1c14:	b6 01       	movw	r22, r12
    1c16:	0e 94 cd 3d 	call	0x7b9a	; 0x7b9a <__mulsf3>
    1c1a:	9b 01       	movw	r18, r22
    1c1c:	ac 01       	movw	r20, r24
    1c1e:	60 91 57 05 	lds	r22, 0x0557	; 0x800557 <pid+0x26>
    1c22:	70 91 58 05 	lds	r23, 0x0558	; 0x800558 <pid+0x27>
    1c26:	80 91 59 05 	lds	r24, 0x0559	; 0x800559 <pid+0x28>
    1c2a:	90 91 5a 05 	lds	r25, 0x055A	; 0x80055a <pid+0x29>
    1c2e:	0e 94 fc 3b 	call	0x77f8	; 0x77f8 <__subsf3>
    1c32:	a5 01       	movw	r20, r10
    1c34:	94 01       	movw	r18, r8
    1c36:	0e 94 fd 3b 	call	0x77fa	; 0x77fa <__addsf3>
    1c3a:	6b 01       	movw	r12, r22
    1c3c:	7c 01       	movw	r14, r24
    1c3e:	9b 01       	movw	r18, r22
    1c40:	ac 01       	movw	r20, r24
    1c42:	61 2f       	mov	r22, r17
    1c44:	7e 85       	ldd	r23, Y+14	; 0x0e
    1c46:	8d 85       	ldd	r24, Y+13	; 0x0d
    1c48:	90 2f       	mov	r25, r16
    1c4a:	0e 94 69 3c 	call	0x78d2	; 0x78d2 <__cmpsf2>
    1c4e:	87 fd       	sbrc	r24, 7
    1c50:	18 c0       	rjmp	.+48     	; 0x1c82 <_ZN3PID7ComputeEv.constprop.15+0x27c>
    1c52:	10 91 63 05 	lds	r17, 0x0563	; 0x800563 <pid+0x32>
    1c56:	90 91 64 05 	lds	r25, 0x0564	; 0x800564 <pid+0x33>
    1c5a:	9e 87       	std	Y+14, r25	; 0x0e
    1c5c:	a0 91 65 05 	lds	r26, 0x0565	; 0x800565 <pid+0x34>
    1c60:	ad 87       	std	Y+13, r26	; 0x0d
    1c62:	00 91 66 05 	lds	r16, 0x0566	; 0x800566 <pid+0x35>
    1c66:	21 2f       	mov	r18, r17
    1c68:	39 2f       	mov	r19, r25
    1c6a:	4a 2f       	mov	r20, r26
    1c6c:	50 2f       	mov	r21, r16
    1c6e:	b6 01       	movw	r22, r12
    1c70:	c7 01       	movw	r24, r14
    1c72:	0e 94 69 3c 	call	0x78d2	; 0x78d2 <__cmpsf2>
    1c76:	87 fd       	sbrc	r24, 7
    1c78:	04 c0       	rjmp	.+8      	; 0x1c82 <_ZN3PID7ComputeEv.constprop.15+0x27c>
    1c7a:	1c 2d       	mov	r17, r12
    1c7c:	de 86       	std	Y+14, r13	; 0x0e
    1c7e:	ed 86       	std	Y+13, r14	; 0x0d
    1c80:	0f 2d       	mov	r16, r15
    1c82:	e0 91 4f 05 	lds	r30, 0x054F	; 0x80054f <pid+0x1e>
    1c86:	f0 91 50 05 	lds	r31, 0x0550	; 0x800550 <pid+0x1f>
    1c8a:	81 2f       	mov	r24, r17
    1c8c:	9e 85       	ldd	r25, Y+14	; 0x0e
    1c8e:	ad 85       	ldd	r26, Y+13	; 0x0d
    1c90:	b0 2f       	mov	r27, r16
    1c92:	80 83       	st	Z, r24
    1c94:	91 83       	std	Z+1, r25	; 0x01
    1c96:	a2 83       	std	Z+2, r26	; 0x02
    1c98:	b3 83       	std	Z+3, r27	; 0x03
    1c9a:	89 81       	ldd	r24, Y+1	; 0x01
    1c9c:	9a 81       	ldd	r25, Y+2	; 0x02
    1c9e:	ab 81       	ldd	r26, Y+3	; 0x03
    1ca0:	bc 81       	ldd	r27, Y+4	; 0x04
    1ca2:	80 93 5b 05 	sts	0x055B, r24	; 0x80055b <pid+0x2a>
    1ca6:	90 93 5c 05 	sts	0x055C, r25	; 0x80055c <pid+0x2b>
    1caa:	a0 93 5d 05 	sts	0x055D, r26	; 0x80055d <pid+0x2c>
    1cae:	b0 93 5e 05 	sts	0x055E, r27	; 0x80055e <pid+0x2d>
    1cb2:	8d 81       	ldd	r24, Y+5	; 0x05
    1cb4:	9e 81       	ldd	r25, Y+6	; 0x06
    1cb6:	af 81       	ldd	r26, Y+7	; 0x07
    1cb8:	b8 85       	ldd	r27, Y+8	; 0x08
    1cba:	80 93 53 05 	sts	0x0553, r24	; 0x800553 <pid+0x22>
    1cbe:	90 93 54 05 	sts	0x0554, r25	; 0x800554 <pid+0x23>
    1cc2:	a0 93 55 05 	sts	0x0555, r26	; 0x800555 <pid+0x24>
    1cc6:	b0 93 56 05 	sts	0x0556, r27	; 0x800556 <pid+0x25>
    1cca:	bc ce       	rjmp	.-648    	; 0x1a44 <_ZN3PID7ComputeEv.constprop.15+0x3e>
    1ccc:	80 91 63 05 	lds	r24, 0x0563	; 0x800563 <pid+0x32>
    1cd0:	90 91 64 05 	lds	r25, 0x0564	; 0x800564 <pid+0x33>
    1cd4:	a0 91 65 05 	lds	r26, 0x0565	; 0x800565 <pid+0x34>
    1cd8:	b0 91 66 05 	lds	r27, 0x0566	; 0x800566 <pid+0x35>
    1cdc:	89 87       	std	Y+9, r24	; 0x09
    1cde:	9a 87       	std	Y+10, r25	; 0x0a
    1ce0:	ab 87       	std	Y+11, r26	; 0x0b
    1ce2:	bc 87       	std	Y+12, r27	; 0x0c
    1ce4:	9c 01       	movw	r18, r24
    1ce6:	ad 01       	movw	r20, r26
    1ce8:	c3 01       	movw	r24, r6
    1cea:	b2 01       	movw	r22, r4
    1cec:	0e 94 69 3c 	call	0x78d2	; 0x78d2 <__cmpsf2>
    1cf0:	87 ff       	sbrs	r24, 7
    1cf2:	76 cf       	rjmp	.-276    	; 0x1be0 <_ZN3PID7ComputeEv.constprop.15+0x1da>
    1cf4:	89 85       	ldd	r24, Y+9	; 0x09
    1cf6:	9a 85       	ldd	r25, Y+10	; 0x0a
    1cf8:	ab 85       	ldd	r26, Y+11	; 0x0b
    1cfa:	bc 85       	ldd	r27, Y+12	; 0x0c
    1cfc:	69 cf       	rjmp	.-302    	; 0x1bd0 <_ZN3PID7ComputeEv.constprop.15+0x1ca>
    1cfe:	81 2c       	mov	r8, r1
    1d00:	91 2c       	mov	r9, r1
    1d02:	54 01       	movw	r10, r8
    1d04:	7e cf       	rjmp	.-260    	; 0x1c02 <_ZN3PID7ComputeEv.constprop.15+0x1fc>

00001d06 <nothing>:
    1d06:	08 95       	ret

00001d08 <_ZN5Print5writeEPKhj>:
    1d08:	af 92       	push	r10
    1d0a:	bf 92       	push	r11
    1d0c:	cf 92       	push	r12
    1d0e:	df 92       	push	r13
    1d10:	ef 92       	push	r14
    1d12:	ff 92       	push	r15
    1d14:	0f 93       	push	r16
    1d16:	1f 93       	push	r17
    1d18:	cf 93       	push	r28
    1d1a:	df 93       	push	r29
    1d1c:	6c 01       	movw	r12, r24
    1d1e:	7b 01       	movw	r14, r22
    1d20:	8b 01       	movw	r16, r22
    1d22:	04 0f       	add	r16, r20
    1d24:	15 1f       	adc	r17, r21
    1d26:	eb 01       	movw	r28, r22
    1d28:	5e 01       	movw	r10, r28
    1d2a:	ae 18       	sub	r10, r14
    1d2c:	bf 08       	sbc	r11, r15
    1d2e:	c0 17       	cp	r28, r16
    1d30:	d1 07       	cpc	r29, r17
    1d32:	59 f0       	breq	.+22     	; 0x1d4a <_ZN5Print5writeEPKhj+0x42>
    1d34:	69 91       	ld	r22, Y+
    1d36:	d6 01       	movw	r26, r12
    1d38:	ed 91       	ld	r30, X+
    1d3a:	fc 91       	ld	r31, X
    1d3c:	01 90       	ld	r0, Z+
    1d3e:	f0 81       	ld	r31, Z
    1d40:	e0 2d       	mov	r30, r0
    1d42:	c6 01       	movw	r24, r12
    1d44:	09 95       	icall
    1d46:	89 2b       	or	r24, r25
    1d48:	79 f7       	brne	.-34     	; 0x1d28 <_ZN5Print5writeEPKhj+0x20>
    1d4a:	c5 01       	movw	r24, r10
    1d4c:	df 91       	pop	r29
    1d4e:	cf 91       	pop	r28
    1d50:	1f 91       	pop	r17
    1d52:	0f 91       	pop	r16
    1d54:	ff 90       	pop	r15
    1d56:	ef 90       	pop	r14
    1d58:	df 90       	pop	r13
    1d5a:	cf 90       	pop	r12
    1d5c:	bf 90       	pop	r11
    1d5e:	af 90       	pop	r10
    1d60:	08 95       	ret

00001d62 <u8x8_gpio_call>:
    1d62:	dc 01       	movw	r26, r24
    1d64:	1a 96       	adiw	r26, 0x0a	; 10
    1d66:	ed 91       	ld	r30, X+
    1d68:	fc 91       	ld	r31, X
    1d6a:	30 e0       	ldi	r19, 0x00	; 0
    1d6c:	20 e0       	ldi	r18, 0x00	; 0
    1d6e:	09 94       	ijmp

00001d70 <u8x8_cad_EndTransfer>:
    1d70:	dc 01       	movw	r26, r24
    1d72:	16 96       	adiw	r26, 0x06	; 6
    1d74:	ed 91       	ld	r30, X+
    1d76:	fc 91       	ld	r31, X
    1d78:	30 e0       	ldi	r19, 0x00	; 0
    1d7a:	20 e0       	ldi	r18, 0x00	; 0
    1d7c:	40 e0       	ldi	r20, 0x00	; 0
    1d7e:	69 e1       	ldi	r22, 0x19	; 25
    1d80:	09 94       	ijmp

00001d82 <u8x8_cad_StartTransfer>:
    1d82:	dc 01       	movw	r26, r24
    1d84:	16 96       	adiw	r26, 0x06	; 6
    1d86:	ed 91       	ld	r30, X+
    1d88:	fc 91       	ld	r31, X
    1d8a:	30 e0       	ldi	r19, 0x00	; 0
    1d8c:	20 e0       	ldi	r18, 0x00	; 0
    1d8e:	40 e0       	ldi	r20, 0x00	; 0
    1d90:	68 e1       	ldi	r22, 0x18	; 24
    1d92:	09 94       	ijmp

00001d94 <u8x8_cad_SendData>:
    1d94:	9a 01       	movw	r18, r20
    1d96:	dc 01       	movw	r26, r24
    1d98:	16 96       	adiw	r26, 0x06	; 6
    1d9a:	ed 91       	ld	r30, X+
    1d9c:	fc 91       	ld	r31, X
    1d9e:	46 2f       	mov	r20, r22
    1da0:	67 e1       	ldi	r22, 0x17	; 23
    1da2:	09 94       	ijmp

00001da4 <u8x8_cad_SendSequence>:
    1da4:	ef 92       	push	r14
    1da6:	ff 92       	push	r15
    1da8:	0f 93       	push	r16
    1daa:	1f 93       	push	r17
    1dac:	cf 93       	push	r28
    1dae:	df 93       	push	r29
    1db0:	1f 92       	push	r1
    1db2:	cd b7       	in	r28, 0x3d	; 61
    1db4:	de b7       	in	r29, 0x3e	; 62
    1db6:	7c 01       	movw	r14, r24
    1db8:	8b 01       	movw	r16, r22
    1dba:	d8 01       	movw	r26, r16
    1dbc:	6c 91       	ld	r22, X
    1dbe:	67 31       	cpi	r22, 0x17	; 23
    1dc0:	29 f1       	breq	.+74     	; 0x1e0c <u8x8_cad_SendSequence+0x68>
    1dc2:	50 f4       	brcc	.+20     	; 0x1dd8 <u8x8_cad_SendSequence+0x34>
    1dc4:	65 31       	cpi	r22, 0x15	; 21
    1dc6:	a0 f4       	brcc	.+40     	; 0x1df0 <u8x8_cad_SendSequence+0x4c>
    1dc8:	0f 90       	pop	r0
    1dca:	df 91       	pop	r29
    1dcc:	cf 91       	pop	r28
    1dce:	1f 91       	pop	r17
    1dd0:	0f 91       	pop	r16
    1dd2:	ff 90       	pop	r15
    1dd4:	ef 90       	pop	r14
    1dd6:	08 95       	ret
    1dd8:	6a 31       	cpi	r22, 0x1A	; 26
    1dda:	18 f1       	brcs	.+70     	; 0x1e22 <u8x8_cad_SendSequence+0x7e>
    1ddc:	6e 3f       	cpi	r22, 0xFE	; 254
    1dde:	a1 f7       	brne	.-24     	; 0x1dc8 <u8x8_cad_SendSequence+0x24>
    1de0:	f8 01       	movw	r30, r16
    1de2:	41 81       	ldd	r20, Z+1	; 0x01
    1de4:	49 83       	std	Y+1, r20	; 0x01
    1de6:	69 e2       	ldi	r22, 0x29	; 41
    1de8:	c7 01       	movw	r24, r14
    1dea:	0e 94 b1 0e 	call	0x1d62	; 0x1d62 <u8x8_gpio_call>
    1dee:	0b c0       	rjmp	.+22     	; 0x1e06 <u8x8_cad_SendSequence+0x62>
    1df0:	f8 01       	movw	r30, r16
    1df2:	41 81       	ldd	r20, Z+1	; 0x01
    1df4:	49 83       	std	Y+1, r20	; 0x01
    1df6:	d7 01       	movw	r26, r14
    1df8:	16 96       	adiw	r26, 0x06	; 6
    1dfa:	ed 91       	ld	r30, X+
    1dfc:	fc 91       	ld	r31, X
    1dfe:	30 e0       	ldi	r19, 0x00	; 0
    1e00:	20 e0       	ldi	r18, 0x00	; 0
    1e02:	c7 01       	movw	r24, r14
    1e04:	09 95       	icall
    1e06:	0e 5f       	subi	r16, 0xFE	; 254
    1e08:	1f 4f       	sbci	r17, 0xFF	; 255
    1e0a:	d7 cf       	rjmp	.-82     	; 0x1dba <u8x8_cad_SendSequence+0x16>
    1e0c:	f8 01       	movw	r30, r16
    1e0e:	81 81       	ldd	r24, Z+1	; 0x01
    1e10:	89 83       	std	Y+1, r24	; 0x01
    1e12:	ae 01       	movw	r20, r28
    1e14:	4f 5f       	subi	r20, 0xFF	; 255
    1e16:	5f 4f       	sbci	r21, 0xFF	; 255
    1e18:	61 e0       	ldi	r22, 0x01	; 1
    1e1a:	c7 01       	movw	r24, r14
    1e1c:	0e 94 ca 0e 	call	0x1d94	; 0x1d94 <u8x8_cad_SendData>
    1e20:	f2 cf       	rjmp	.-28     	; 0x1e06 <u8x8_cad_SendSequence+0x62>
    1e22:	0f 5f       	subi	r16, 0xFF	; 255
    1e24:	1f 4f       	sbci	r17, 0xFF	; 255
    1e26:	d7 01       	movw	r26, r14
    1e28:	16 96       	adiw	r26, 0x06	; 6
    1e2a:	ed 91       	ld	r30, X+
    1e2c:	fc 91       	ld	r31, X
    1e2e:	30 e0       	ldi	r19, 0x00	; 0
    1e30:	20 e0       	ldi	r18, 0x00	; 0
    1e32:	40 e0       	ldi	r20, 0x00	; 0
    1e34:	c7 01       	movw	r24, r14
    1e36:	09 95       	icall
    1e38:	c0 cf       	rjmp	.-128    	; 0x1dba <u8x8_cad_SendSequence+0x16>

00001e3a <u8x8_cad_SendArg>:
    1e3a:	46 2f       	mov	r20, r22
    1e3c:	dc 01       	movw	r26, r24
    1e3e:	16 96       	adiw	r26, 0x06	; 6
    1e40:	ed 91       	ld	r30, X+
    1e42:	fc 91       	ld	r31, X
    1e44:	30 e0       	ldi	r19, 0x00	; 0
    1e46:	20 e0       	ldi	r18, 0x00	; 0
    1e48:	66 e1       	ldi	r22, 0x16	; 22
    1e4a:	09 94       	ijmp

00001e4c <u8x8_cad_SendCmd>:
    1e4c:	46 2f       	mov	r20, r22
    1e4e:	dc 01       	movw	r26, r24
    1e50:	16 96       	adiw	r26, 0x06	; 6
    1e52:	ed 91       	ld	r30, X+
    1e54:	fc 91       	ld	r31, X
    1e56:	30 e0       	ldi	r19, 0x00	; 0
    1e58:	20 e0       	ldi	r18, 0x00	; 0
    1e5a:	65 e1       	ldi	r22, 0x15	; 21
    1e5c:	09 94       	ijmp

00001e5e <u8x8_d_ssd1306_128x64_noname>:
    1e5e:	ef 92       	push	r14
    1e60:	ff 92       	push	r15
    1e62:	0f 93       	push	r16
    1e64:	1f 93       	push	r17
    1e66:	cf 93       	push	r28
    1e68:	df 93       	push	r29
    1e6a:	ec 01       	movw	r28, r24
    1e6c:	04 2f       	mov	r16, r20
    1e6e:	79 01       	movw	r14, r18
    1e70:	6d 30       	cpi	r22, 0x0D	; 13
    1e72:	09 f4       	brne	.+2      	; 0x1e76 <u8x8_d_ssd1306_128x64_noname+0x18>
    1e74:	46 c0       	rjmp	.+140    	; 0x1f02 <u8x8_d_ssd1306_128x64_noname+0xa4>
    1e76:	50 f4       	brcc	.+20     	; 0x1e8c <u8x8_d_ssd1306_128x64_noname+0x2e>
    1e78:	6b 30       	cpi	r22, 0x0B	; 11
    1e7a:	c9 f1       	breq	.+114    	; 0x1eee <u8x8_d_ssd1306_128x64_noname+0x90>
    1e7c:	69 30       	cpi	r22, 0x09	; 9
    1e7e:	09 f4       	brne	.+2      	; 0x1e82 <u8x8_d_ssd1306_128x64_noname+0x24>
    1e80:	9f c0       	rjmp	.+318    	; 0x1fc0 <u8x8_d_ssd1306_128x64_noname+0x162>
    1e82:	6a 30       	cpi	r22, 0x0A	; 10
    1e84:	09 f4       	brne	.+2      	; 0x1e88 <u8x8_d_ssd1306_128x64_noname+0x2a>
    1e86:	65 c0       	rjmp	.+202    	; 0x1f52 <u8x8_d_ssd1306_128x64_noname+0xf4>
    1e88:	80 e0       	ldi	r24, 0x00	; 0
    1e8a:	46 c0       	rjmp	.+140    	; 0x1f18 <u8x8_d_ssd1306_128x64_noname+0xba>
    1e8c:	6e 30       	cpi	r22, 0x0E	; 14
    1e8e:	09 f4       	brne	.+2      	; 0x1e92 <u8x8_d_ssd1306_128x64_noname+0x34>
    1e90:	52 c0       	rjmp	.+164    	; 0x1f36 <u8x8_d_ssd1306_128x64_noname+0xd8>
    1e92:	6f 30       	cpi	r22, 0x0F	; 15
    1e94:	99 f7       	brne	.-26     	; 0x1e7c <u8x8_d_ssd1306_128x64_noname+0x1e>
    1e96:	0e 94 c1 0e 	call	0x1d82	; 0x1d82 <u8x8_cad_StartTransfer>
    1e9a:	f7 01       	movw	r30, r14
    1e9c:	13 81       	ldd	r17, Z+3	; 0x03
    1e9e:	11 0f       	add	r17, r17
    1ea0:	11 0f       	add	r17, r17
    1ea2:	11 0f       	add	r17, r17
    1ea4:	6c 89       	ldd	r22, Y+20	; 0x14
    1ea6:	16 0f       	add	r17, r22
    1ea8:	60 e4       	ldi	r22, 0x40	; 64
    1eaa:	ce 01       	movw	r24, r28
    1eac:	0e 94 26 0f 	call	0x1e4c	; 0x1e4c <u8x8_cad_SendCmd>
    1eb0:	61 2f       	mov	r22, r17
    1eb2:	62 95       	swap	r22
    1eb4:	6f 70       	andi	r22, 0x0F	; 15
    1eb6:	60 61       	ori	r22, 0x10	; 16
    1eb8:	ce 01       	movw	r24, r28
    1eba:	0e 94 26 0f 	call	0x1e4c	; 0x1e4c <u8x8_cad_SendCmd>
    1ebe:	61 2f       	mov	r22, r17
    1ec0:	6f 70       	andi	r22, 0x0F	; 15
    1ec2:	ce 01       	movw	r24, r28
    1ec4:	0e 94 1d 0f 	call	0x1e3a	; 0x1e3a <u8x8_cad_SendArg>
    1ec8:	f7 01       	movw	r30, r14
    1eca:	64 81       	ldd	r22, Z+4	; 0x04
    1ecc:	60 6b       	ori	r22, 0xB0	; 176
    1ece:	ce 01       	movw	r24, r28
    1ed0:	0e 94 1d 0f 	call	0x1e3a	; 0x1e3a <u8x8_cad_SendArg>
    1ed4:	f7 01       	movw	r30, r14
    1ed6:	40 81       	ld	r20, Z
    1ed8:	51 81       	ldd	r21, Z+1	; 0x01
    1eda:	62 81       	ldd	r22, Z+2	; 0x02
    1edc:	66 0f       	add	r22, r22
    1ede:	66 0f       	add	r22, r22
    1ee0:	66 0f       	add	r22, r22
    1ee2:	ce 01       	movw	r24, r28
    1ee4:	0e 94 ca 0e 	call	0x1d94	; 0x1d94 <u8x8_cad_SendData>
    1ee8:	01 50       	subi	r16, 0x01	; 1
    1eea:	a1 f7       	brne	.-24     	; 0x1ed4 <u8x8_d_ssd1306_128x64_noname+0x76>
    1eec:	2e c0       	rjmp	.+92     	; 0x1f4a <u8x8_d_ssd1306_128x64_noname+0xec>
    1eee:	64 e2       	ldi	r22, 0x24	; 36
    1ef0:	71 e0       	ldi	r23, 0x01	; 1
    1ef2:	44 23       	and	r20, r20
    1ef4:	11 f0       	breq	.+4      	; 0x1efa <u8x8_d_ssd1306_128x64_noname+0x9c>
    1ef6:	6f e1       	ldi	r22, 0x1F	; 31
    1ef8:	71 e0       	ldi	r23, 0x01	; 1
    1efa:	ce 01       	movw	r24, r28
    1efc:	0e 94 d2 0e 	call	0x1da4	; 0x1da4 <u8x8_cad_SendSequence>
    1f00:	0a c0       	rjmp	.+20     	; 0x1f16 <u8x8_d_ssd1306_128x64_noname+0xb8>
    1f02:	41 11       	cpse	r20, r1
    1f04:	10 c0       	rjmp	.+32     	; 0x1f26 <u8x8_d_ssd1306_128x64_noname+0xc8>
    1f06:	68 e1       	ldi	r22, 0x18	; 24
    1f08:	71 e0       	ldi	r23, 0x01	; 1
    1f0a:	0e 94 d2 0e 	call	0x1da4	; 0x1da4 <u8x8_cad_SendSequence>
    1f0e:	e8 81       	ld	r30, Y
    1f10:	f9 81       	ldd	r31, Y+1	; 0x01
    1f12:	82 89       	ldd	r24, Z+18	; 0x12
    1f14:	8c 8b       	std	Y+20, r24	; 0x14
    1f16:	81 e0       	ldi	r24, 0x01	; 1
    1f18:	df 91       	pop	r29
    1f1a:	cf 91       	pop	r28
    1f1c:	1f 91       	pop	r17
    1f1e:	0f 91       	pop	r16
    1f20:	ff 90       	pop	r15
    1f22:	ef 90       	pop	r14
    1f24:	08 95       	ret
    1f26:	61 e1       	ldi	r22, 0x11	; 17
    1f28:	71 e0       	ldi	r23, 0x01	; 1
    1f2a:	0e 94 d2 0e 	call	0x1da4	; 0x1da4 <u8x8_cad_SendSequence>
    1f2e:	e8 81       	ld	r30, Y
    1f30:	f9 81       	ldd	r31, Y+1	; 0x01
    1f32:	83 89       	ldd	r24, Z+19	; 0x13
    1f34:	ef cf       	rjmp	.-34     	; 0x1f14 <u8x8_d_ssd1306_128x64_noname+0xb6>
    1f36:	0e 94 c1 0e 	call	0x1d82	; 0x1d82 <u8x8_cad_StartTransfer>
    1f3a:	61 e8       	ldi	r22, 0x81	; 129
    1f3c:	ce 01       	movw	r24, r28
    1f3e:	0e 94 26 0f 	call	0x1e4c	; 0x1e4c <u8x8_cad_SendCmd>
    1f42:	60 2f       	mov	r22, r16
    1f44:	ce 01       	movw	r24, r28
    1f46:	0e 94 1d 0f 	call	0x1e3a	; 0x1e3a <u8x8_cad_SendArg>
    1f4a:	ce 01       	movw	r24, r28
    1f4c:	0e 94 b8 0e 	call	0x1d70	; 0x1d70 <u8x8_cad_EndTransfer>
    1f50:	e2 cf       	rjmp	.-60     	; 0x1f16 <u8x8_d_ssd1306_128x64_noname+0xb8>
    1f52:	ea 85       	ldd	r30, Y+10	; 0x0a
    1f54:	fb 85       	ldd	r31, Y+11	; 0x0b
    1f56:	30 e0       	ldi	r19, 0x00	; 0
    1f58:	20 e0       	ldi	r18, 0x00	; 0
    1f5a:	40 e0       	ldi	r20, 0x00	; 0
    1f5c:	68 e2       	ldi	r22, 0x28	; 40
    1f5e:	ce 01       	movw	r24, r28
    1f60:	09 95       	icall
    1f62:	ee 81       	ldd	r30, Y+6	; 0x06
    1f64:	ff 81       	ldd	r31, Y+7	; 0x07
    1f66:	30 e0       	ldi	r19, 0x00	; 0
    1f68:	20 e0       	ldi	r18, 0x00	; 0
    1f6a:	40 e0       	ldi	r20, 0x00	; 0
    1f6c:	64 e1       	ldi	r22, 0x14	; 20
    1f6e:	ce 01       	movw	r24, r28
    1f70:	09 95       	icall
    1f72:	41 e0       	ldi	r20, 0x01	; 1
    1f74:	6b e4       	ldi	r22, 0x4B	; 75
    1f76:	ce 01       	movw	r24, r28
    1f78:	0e 94 b1 0e 	call	0x1d62	; 0x1d62 <u8x8_gpio_call>
    1f7c:	e8 81       	ld	r30, Y
    1f7e:	f9 81       	ldd	r31, Y+1	; 0x01
    1f80:	44 81       	ldd	r20, Z+4	; 0x04
    1f82:	69 e2       	ldi	r22, 0x29	; 41
    1f84:	ce 01       	movw	r24, r28
    1f86:	0e 94 b1 0e 	call	0x1d62	; 0x1d62 <u8x8_gpio_call>
    1f8a:	40 e0       	ldi	r20, 0x00	; 0
    1f8c:	6b e4       	ldi	r22, 0x4B	; 75
    1f8e:	ce 01       	movw	r24, r28
    1f90:	0e 94 b1 0e 	call	0x1d62	; 0x1d62 <u8x8_gpio_call>
    1f94:	e8 81       	ld	r30, Y
    1f96:	f9 81       	ldd	r31, Y+1	; 0x01
    1f98:	44 81       	ldd	r20, Z+4	; 0x04
    1f9a:	69 e2       	ldi	r22, 0x29	; 41
    1f9c:	ce 01       	movw	r24, r28
    1f9e:	0e 94 b1 0e 	call	0x1d62	; 0x1d62 <u8x8_gpio_call>
    1fa2:	41 e0       	ldi	r20, 0x01	; 1
    1fa4:	6b e4       	ldi	r22, 0x4B	; 75
    1fa6:	ce 01       	movw	r24, r28
    1fa8:	0e 94 b1 0e 	call	0x1d62	; 0x1d62 <u8x8_gpio_call>
    1fac:	e8 81       	ld	r30, Y
    1fae:	f9 81       	ldd	r31, Y+1	; 0x01
    1fb0:	45 81       	ldd	r20, Z+5	; 0x05
    1fb2:	69 e2       	ldi	r22, 0x29	; 41
    1fb4:	ce 01       	movw	r24, r28
    1fb6:	0e 94 b1 0e 	call	0x1d62	; 0x1d62 <u8x8_gpio_call>
    1fba:	69 e2       	ldi	r22, 0x29	; 41
    1fbc:	71 e0       	ldi	r23, 0x01	; 1
    1fbe:	9d cf       	rjmp	.-198    	; 0x1efa <u8x8_d_ssd1306_128x64_noname+0x9c>
    1fc0:	8e e5       	ldi	r24, 0x5E	; 94
    1fc2:	91 e0       	ldi	r25, 0x01	; 1
    1fc4:	99 83       	std	Y+1, r25	; 0x01
    1fc6:	88 83       	st	Y, r24
    1fc8:	1c 8a       	std	Y+20, r1	; 0x14
    1fca:	a5 cf       	rjmp	.-182    	; 0x1f16 <u8x8_d_ssd1306_128x64_noname+0xb8>

00001fcc <u8x8_byte_EndTransfer>:
    1fcc:	dc 01       	movw	r26, r24
    1fce:	18 96       	adiw	r26, 0x08	; 8
    1fd0:	ed 91       	ld	r30, X+
    1fd2:	fc 91       	ld	r31, X
    1fd4:	30 e0       	ldi	r19, 0x00	; 0
    1fd6:	20 e0       	ldi	r18, 0x00	; 0
    1fd8:	40 e0       	ldi	r20, 0x00	; 0
    1fda:	69 e1       	ldi	r22, 0x19	; 25
    1fdc:	09 94       	ijmp

00001fde <u8x8_byte_StartTransfer>:
    1fde:	dc 01       	movw	r26, r24
    1fe0:	18 96       	adiw	r26, 0x08	; 8
    1fe2:	ed 91       	ld	r30, X+
    1fe4:	fc 91       	ld	r31, X
    1fe6:	30 e0       	ldi	r19, 0x00	; 0
    1fe8:	20 e0       	ldi	r18, 0x00	; 0
    1fea:	40 e0       	ldi	r20, 0x00	; 0
    1fec:	68 e1       	ldi	r22, 0x18	; 24
    1fee:	09 94       	ijmp

00001ff0 <u8x8_byte_SendByte>:
    1ff0:	cf 93       	push	r28
    1ff2:	df 93       	push	r29
    1ff4:	1f 92       	push	r1
    1ff6:	cd b7       	in	r28, 0x3d	; 61
    1ff8:	de b7       	in	r29, 0x3e	; 62
    1ffa:	69 83       	std	Y+1, r22	; 0x01
    1ffc:	be 01       	movw	r22, r28
    1ffe:	6f 5f       	subi	r22, 0xFF	; 255
    2000:	7f 4f       	sbci	r23, 0xFF	; 255
    2002:	0e 94 ad 07 	call	0xf5a	; 0xf5a <u8x8_byte_SendBytes.constprop.5>
    2006:	0f 90       	pop	r0
    2008:	df 91       	pop	r29
    200a:	cf 91       	pop	r28
    200c:	08 95       	ret

0000200e <u8x8_i2c_data_transfer>:
    200e:	ef 92       	push	r14
    2010:	ff 92       	push	r15
    2012:	1f 93       	push	r17
    2014:	cf 93       	push	r28
    2016:	df 93       	push	r29
    2018:	ec 01       	movw	r28, r24
    201a:	16 2f       	mov	r17, r22
    201c:	7a 01       	movw	r14, r20
    201e:	0e 94 ef 0f 	call	0x1fde	; 0x1fde <u8x8_byte_StartTransfer>
    2022:	60 e4       	ldi	r22, 0x40	; 64
    2024:	ce 01       	movw	r24, r28
    2026:	0e 94 f8 0f 	call	0x1ff0	; 0x1ff0 <u8x8_byte_SendByte>
    202a:	e8 85       	ldd	r30, Y+8	; 0x08
    202c:	f9 85       	ldd	r31, Y+9	; 0x09
    202e:	97 01       	movw	r18, r14
    2030:	41 2f       	mov	r20, r17
    2032:	67 e1       	ldi	r22, 0x17	; 23
    2034:	ce 01       	movw	r24, r28
    2036:	09 95       	icall
    2038:	ce 01       	movw	r24, r28
    203a:	df 91       	pop	r29
    203c:	cf 91       	pop	r28
    203e:	1f 91       	pop	r17
    2040:	ff 90       	pop	r15
    2042:	ef 90       	pop	r14
    2044:	0c 94 e6 0f 	jmp	0x1fcc	; 0x1fcc <u8x8_byte_EndTransfer>

00002048 <u8x8_cad_ssd13xx_fast_i2c>:
    2048:	ef 92       	push	r14
    204a:	ff 92       	push	r15
    204c:	1f 93       	push	r17
    204e:	cf 93       	push	r28
    2050:	df 93       	push	r29
    2052:	ec 01       	movw	r28, r24
    2054:	14 2f       	mov	r17, r20
    2056:	79 01       	movw	r14, r18
    2058:	66 31       	cpi	r22, 0x16	; 22
    205a:	81 f1       	breq	.+96     	; 0x20bc <u8x8_cad_ssd13xx_fast_i2c+0x74>
    205c:	38 f4       	brcc	.+14     	; 0x206c <u8x8_cad_ssd13xx_fast_i2c+0x24>
    205e:	64 31       	cpi	r22, 0x14	; 20
    2060:	09 f4       	brne	.+2      	; 0x2064 <u8x8_cad_ssd13xx_fast_i2c+0x1c>
    2062:	4b c0       	rjmp	.+150    	; 0x20fa <u8x8_cad_ssd13xx_fast_i2c+0xb2>
    2064:	65 31       	cpi	r22, 0x15	; 21
    2066:	79 f0       	breq	.+30     	; 0x2086 <u8x8_cad_ssd13xx_fast_i2c+0x3e>
    2068:	80 e0       	ldi	r24, 0x00	; 0
    206a:	22 c0       	rjmp	.+68     	; 0x20b0 <u8x8_cad_ssd13xx_fast_i2c+0x68>
    206c:	68 31       	cpi	r22, 0x18	; 24
    206e:	c9 f1       	breq	.+114    	; 0x20e2 <u8x8_cad_ssd13xx_fast_i2c+0x9a>
    2070:	50 f1       	brcs	.+84     	; 0x20c6 <u8x8_cad_ssd13xx_fast_i2c+0x7e>
    2072:	69 31       	cpi	r22, 0x19	; 25
    2074:	c9 f7       	brne	.-14     	; 0x2068 <u8x8_cad_ssd13xx_fast_i2c+0x20>
    2076:	80 91 a5 02 	lds	r24, 0x02A5	; 0x8002a5 <in_transfer.3464>
    207a:	88 23       	and	r24, r24
    207c:	91 f1       	breq	.+100    	; 0x20e2 <u8x8_cad_ssd13xx_fast_i2c+0x9a>
    207e:	ce 01       	movw	r24, r28
    2080:	0e 94 e6 0f 	call	0x1fcc	; 0x1fcc <u8x8_byte_EndTransfer>
    2084:	2e c0       	rjmp	.+92     	; 0x20e2 <u8x8_cad_ssd13xx_fast_i2c+0x9a>
    2086:	80 91 a5 02 	lds	r24, 0x02A5	; 0x8002a5 <in_transfer.3464>
    208a:	88 23       	and	r24, r24
    208c:	19 f0       	breq	.+6      	; 0x2094 <u8x8_cad_ssd13xx_fast_i2c+0x4c>
    208e:	ce 01       	movw	r24, r28
    2090:	0e 94 e6 0f 	call	0x1fcc	; 0x1fcc <u8x8_byte_EndTransfer>
    2094:	ce 01       	movw	r24, r28
    2096:	0e 94 ef 0f 	call	0x1fde	; 0x1fde <u8x8_byte_StartTransfer>
    209a:	60 e0       	ldi	r22, 0x00	; 0
    209c:	ce 01       	movw	r24, r28
    209e:	0e 94 f8 0f 	call	0x1ff0	; 0x1ff0 <u8x8_byte_SendByte>
    20a2:	61 2f       	mov	r22, r17
    20a4:	ce 01       	movw	r24, r28
    20a6:	0e 94 f8 0f 	call	0x1ff0	; 0x1ff0 <u8x8_byte_SendByte>
    20aa:	81 e0       	ldi	r24, 0x01	; 1
    20ac:	80 93 a5 02 	sts	0x02A5, r24	; 0x8002a5 <in_transfer.3464>
    20b0:	df 91       	pop	r29
    20b2:	cf 91       	pop	r28
    20b4:	1f 91       	pop	r17
    20b6:	ff 90       	pop	r15
    20b8:	ef 90       	pop	r14
    20ba:	08 95       	ret
    20bc:	64 2f       	mov	r22, r20
    20be:	0e 94 f8 0f 	call	0x1ff0	; 0x1ff0 <u8x8_byte_SendByte>
    20c2:	81 e0       	ldi	r24, 0x01	; 1
    20c4:	f5 cf       	rjmp	.-22     	; 0x20b0 <u8x8_cad_ssd13xx_fast_i2c+0x68>
    20c6:	80 91 a5 02 	lds	r24, 0x02A5	; 0x8002a5 <in_transfer.3464>
    20ca:	88 23       	and	r24, r24
    20cc:	19 f0       	breq	.+6      	; 0x20d4 <u8x8_cad_ssd13xx_fast_i2c+0x8c>
    20ce:	ce 01       	movw	r24, r28
    20d0:	0e 94 e6 0f 	call	0x1fcc	; 0x1fcc <u8x8_byte_EndTransfer>
    20d4:	a7 01       	movw	r20, r14
    20d6:	19 31       	cpi	r17, 0x19	; 25
    20d8:	38 f4       	brcc	.+14     	; 0x20e8 <u8x8_cad_ssd13xx_fast_i2c+0xa0>
    20da:	61 2f       	mov	r22, r17
    20dc:	ce 01       	movw	r24, r28
    20de:	0e 94 07 10 	call	0x200e	; 0x200e <u8x8_i2c_data_transfer>
    20e2:	10 92 a5 02 	sts	0x02A5, r1	; 0x8002a5 <in_transfer.3464>
    20e6:	ed cf       	rjmp	.-38     	; 0x20c2 <u8x8_cad_ssd13xx_fast_i2c+0x7a>
    20e8:	68 e1       	ldi	r22, 0x18	; 24
    20ea:	ce 01       	movw	r24, r28
    20ec:	0e 94 07 10 	call	0x200e	; 0x200e <u8x8_i2c_data_transfer>
    20f0:	18 51       	subi	r17, 0x18	; 24
    20f2:	88 e1       	ldi	r24, 0x18	; 24
    20f4:	e8 0e       	add	r14, r24
    20f6:	f1 1c       	adc	r15, r1
    20f8:	ed cf       	rjmp	.-38     	; 0x20d4 <u8x8_cad_ssd13xx_fast_i2c+0x8c>
    20fa:	8e 89       	ldd	r24, Y+22	; 0x16
    20fc:	8f 3f       	cpi	r24, 0xFF	; 255
    20fe:	11 f4       	brne	.+4      	; 0x2104 <u8x8_cad_ssd13xx_fast_i2c+0xbc>
    2100:	88 e7       	ldi	r24, 0x78	; 120
    2102:	8e 8b       	std	Y+22, r24	; 0x16
    2104:	e8 85       	ldd	r30, Y+8	; 0x08
    2106:	f9 85       	ldd	r31, Y+9	; 0x09
    2108:	97 01       	movw	r18, r14
    210a:	41 2f       	mov	r20, r17
    210c:	64 e1       	ldi	r22, 0x14	; 20
    210e:	ce 01       	movw	r24, r28
    2110:	df 91       	pop	r29
    2112:	cf 91       	pop	r28
    2114:	1f 91       	pop	r17
    2116:	ff 90       	pop	r15
    2118:	ef 90       	pop	r14
    211a:	09 94       	ijmp

0000211c <u8x8_utf8_next>:
    211c:	fc 01       	movw	r30, r24
    211e:	66 23       	and	r22, r22
    2120:	d9 f1       	breq	.+118    	; 0x2198 <u8x8_utf8_next+0x7c>
    2122:	6a 30       	cpi	r22, 0x0A	; 10
    2124:	c9 f1       	breq	.+114    	; 0x2198 <u8x8_utf8_next+0x7c>
    2126:	80 8d       	ldd	r24, Z+24	; 0x18
    2128:	81 11       	cpse	r24, r1
    212a:	25 c0       	rjmp	.+74     	; 0x2176 <u8x8_utf8_next+0x5a>
    212c:	6c 3f       	cpi	r22, 0xFC	; 252
    212e:	48 f0       	brcs	.+18     	; 0x2142 <u8x8_utf8_next+0x26>
    2130:	85 e0       	ldi	r24, 0x05	; 5
    2132:	80 8f       	std	Z+24, r24	; 0x18
    2134:	61 70       	andi	r22, 0x01	; 1
    2136:	70 e0       	ldi	r23, 0x00	; 0
    2138:	73 8b       	std	Z+19, r23	; 0x13
    213a:	62 8b       	std	Z+18, r22	; 0x12
    213c:	2e ef       	ldi	r18, 0xFE	; 254
    213e:	3f ef       	ldi	r19, 0xFF	; 255
    2140:	29 c0       	rjmp	.+82     	; 0x2194 <u8x8_utf8_next+0x78>
    2142:	68 3f       	cpi	r22, 0xF8	; 248
    2144:	20 f0       	brcs	.+8      	; 0x214e <u8x8_utf8_next+0x32>
    2146:	84 e0       	ldi	r24, 0x04	; 4
    2148:	80 8f       	std	Z+24, r24	; 0x18
    214a:	63 70       	andi	r22, 0x03	; 3
    214c:	f4 cf       	rjmp	.-24     	; 0x2136 <u8x8_utf8_next+0x1a>
    214e:	60 3f       	cpi	r22, 0xF0	; 240
    2150:	20 f0       	brcs	.+8      	; 0x215a <u8x8_utf8_next+0x3e>
    2152:	83 e0       	ldi	r24, 0x03	; 3
    2154:	80 8f       	std	Z+24, r24	; 0x18
    2156:	67 70       	andi	r22, 0x07	; 7
    2158:	ee cf       	rjmp	.-36     	; 0x2136 <u8x8_utf8_next+0x1a>
    215a:	60 3e       	cpi	r22, 0xE0	; 224
    215c:	20 f0       	brcs	.+8      	; 0x2166 <u8x8_utf8_next+0x4a>
    215e:	82 e0       	ldi	r24, 0x02	; 2
    2160:	80 8f       	std	Z+24, r24	; 0x18
    2162:	6f 70       	andi	r22, 0x0F	; 15
    2164:	e8 cf       	rjmp	.-48     	; 0x2136 <u8x8_utf8_next+0x1a>
    2166:	26 2f       	mov	r18, r22
    2168:	30 e0       	ldi	r19, 0x00	; 0
    216a:	60 3c       	cpi	r22, 0xC0	; 192
    216c:	98 f0       	brcs	.+38     	; 0x2194 <u8x8_utf8_next+0x78>
    216e:	81 e0       	ldi	r24, 0x01	; 1
    2170:	80 8f       	std	Z+24, r24	; 0x18
    2172:	6f 71       	andi	r22, 0x1F	; 31
    2174:	e0 cf       	rjmp	.-64     	; 0x2136 <u8x8_utf8_next+0x1a>
    2176:	81 50       	subi	r24, 0x01	; 1
    2178:	80 8f       	std	Z+24, r24	; 0x18
    217a:	22 89       	ldd	r18, Z+18	; 0x12
    217c:	33 89       	ldd	r19, Z+19	; 0x13
    217e:	96 e0       	ldi	r25, 0x06	; 6
    2180:	22 0f       	add	r18, r18
    2182:	33 1f       	adc	r19, r19
    2184:	9a 95       	dec	r25
    2186:	e1 f7       	brne	.-8      	; 0x2180 <u8x8_utf8_next+0x64>
    2188:	6f 73       	andi	r22, 0x3F	; 63
    218a:	26 2b       	or	r18, r22
    218c:	33 8b       	std	Z+19, r19	; 0x13
    218e:	22 8b       	std	Z+18, r18	; 0x12
    2190:	81 11       	cpse	r24, r1
    2192:	d4 cf       	rjmp	.-88     	; 0x213c <u8x8_utf8_next+0x20>
    2194:	c9 01       	movw	r24, r18
    2196:	08 95       	ret
    2198:	2f ef       	ldi	r18, 0xFF	; 255
    219a:	3f ef       	ldi	r19, 0xFF	; 255
    219c:	fb cf       	rjmp	.-10     	; 0x2194 <u8x8_utf8_next+0x78>

0000219e <u8g2_draw_l90_r0>:
    219e:	0f 93       	push	r16
    21a0:	fc 01       	movw	r30, r24
    21a2:	e0 5c       	subi	r30, 0xC0	; 192
    21a4:	ff 4f       	sbci	r31, 0xFF	; 255
    21a6:	01 90       	ld	r0, Z+
    21a8:	f0 81       	ld	r31, Z
    21aa:	e0 2d       	mov	r30, r0
    21ac:	4e 1b       	sub	r20, r30
    21ae:	5f 0b       	sbc	r21, r31
    21b0:	dc 01       	movw	r26, r24
    21b2:	d4 96       	adiw	r26, 0x34	; 52
    21b4:	ed 91       	ld	r30, X+
    21b6:	fc 91       	ld	r31, X
    21b8:	09 95       	icall
    21ba:	0f 91       	pop	r16
    21bc:	08 95       	ret

000021be <u8g2_update_dimension_r0>:
    21be:	cf 93       	push	r28
    21c0:	df 93       	push	r29
    21c2:	fc 01       	movw	r30, r24
    21c4:	a0 81       	ld	r26, Z
    21c6:	b1 81       	ldd	r27, Z+1	; 0x01
    21c8:	82 ad       	ldd	r24, Z+58	; 0x3a
    21ca:	90 e0       	ldi	r25, 0x00	; 0
    21cc:	9c 01       	movw	r18, r24
    21ce:	43 e0       	ldi	r20, 0x03	; 3
    21d0:	22 0f       	add	r18, r18
    21d2:	33 1f       	adc	r19, r19
    21d4:	4a 95       	dec	r20
    21d6:	e1 f7       	brne	.-8      	; 0x21d0 <u8g2_update_dimension_r0+0x12>
    21d8:	37 af       	std	Z+63, r19	; 0x3f
    21da:	26 af       	std	Z+62, r18	; 0x3e
    21dc:	50 96       	adiw	r26, 0x10	; 16
    21de:	2c 91       	ld	r18, X
    21e0:	50 97       	sbiw	r26, 0x10	; 16
    21e2:	48 e0       	ldi	r20, 0x08	; 8
    21e4:	24 9f       	mul	r18, r20
    21e6:	90 01       	movw	r18, r0
    21e8:	11 24       	eor	r1, r1
    21ea:	35 af       	std	Z+61, r19	; 0x3d
    21ec:	24 af       	std	Z+60, r18	; 0x3c
    21ee:	23 ad       	ldd	r18, Z+59	; 0x3b
    21f0:	30 e0       	ldi	r19, 0x00	; 0
    21f2:	b9 01       	movw	r22, r18
    21f4:	53 e0       	ldi	r21, 0x03	; 3
    21f6:	66 0f       	add	r22, r22
    21f8:	77 1f       	adc	r23, r23
    21fa:	5a 95       	dec	r21
    21fc:	e1 f7       	brne	.-8      	; 0x21f6 <u8g2_update_dimension_r0+0x38>
    21fe:	ef 01       	movw	r28, r30
    2200:	c0 5c       	subi	r28, 0xC0	; 192
    2202:	df 4f       	sbci	r29, 0xFF	; 255
    2204:	79 83       	std	Y+1, r23	; 0x01
    2206:	68 83       	st	Y, r22
    2208:	51 96       	adiw	r26, 0x11	; 17
    220a:	4c 91       	ld	r20, X
    220c:	51 97       	sbiw	r26, 0x11	; 17
    220e:	e9 01       	movw	r28, r18
    2210:	c8 0f       	add	r28, r24
    2212:	d9 1f       	adc	r29, r25
    2214:	50 e0       	ldi	r21, 0x00	; 0
    2216:	4c 17       	cp	r20, r28
    2218:	5d 07       	cpc	r21, r29
    221a:	18 f4       	brcc	.+6      	; 0x2222 <u8g2_update_dimension_r0+0x64>
    221c:	ca 01       	movw	r24, r20
    221e:	82 1b       	sub	r24, r18
    2220:	93 0b       	sbc	r25, r19
    2222:	ef 01       	movw	r28, r30
    2224:	ce 5b       	subi	r28, 0xBE	; 190
    2226:	df 4f       	sbci	r29, 0xFF	; 255
    2228:	79 83       	std	Y+1, r23	; 0x01
    222a:	68 83       	st	Y, r22
    222c:	22 96       	adiw	r28, 0x02	; 2
    222e:	23 e0       	ldi	r18, 0x03	; 3
    2230:	88 0f       	add	r24, r24
    2232:	99 1f       	adc	r25, r25
    2234:	2a 95       	dec	r18
    2236:	e1 f7       	brne	.-8      	; 0x2230 <u8g2_update_dimension_r0+0x72>
    2238:	86 0f       	add	r24, r22
    223a:	97 1f       	adc	r25, r23
    223c:	99 83       	std	Y+1, r25	; 0x01
    223e:	88 83       	st	Y, r24
    2240:	22 96       	adiw	r28, 0x02	; 2
    2242:	54 96       	adiw	r26, 0x14	; 20
    2244:	8d 91       	ld	r24, X+
    2246:	9c 91       	ld	r25, X
    2248:	55 97       	sbiw	r26, 0x15	; 21
    224a:	99 83       	std	Y+1, r25	; 0x01
    224c:	88 83       	st	Y, r24
    224e:	e8 5b       	subi	r30, 0xB8	; 184
    2250:	ff 4f       	sbci	r31, 0xFF	; 255
    2252:	56 96       	adiw	r26, 0x16	; 22
    2254:	8d 91       	ld	r24, X+
    2256:	9c 91       	ld	r25, X
    2258:	91 83       	std	Z+1, r25	; 0x01
    225a:	80 83       	st	Z, r24
    225c:	df 91       	pop	r29
    225e:	cf 91       	pop	r28
    2260:	08 95       	ret

00002262 <u8g2_IsIntersection>:
    2262:	0f 93       	push	r16
    2264:	1f 93       	push	r17
    2266:	fc 01       	movw	r30, r24
    2268:	e2 5b       	subi	r30, 0xB2	; 178
    226a:	ff 4f       	sbci	r31, 0xFF	; 255
    226c:	01 90       	ld	r0, Z+
    226e:	f0 81       	ld	r31, Z
    2270:	e0 2d       	mov	r30, r0
    2272:	dc 01       	movw	r26, r24
    2274:	a0 5b       	subi	r26, 0xB0	; 176
    2276:	bf 4f       	sbci	r27, 0xFF	; 255
    2278:	0d 90       	ld	r0, X+
    227a:	bc 91       	ld	r27, X
    227c:	a0 2d       	mov	r26, r0
    227e:	4a 17       	cp	r20, r26
    2280:	5b 07       	cpc	r21, r27
    2282:	40 f4       	brcc	.+16     	; 0x2294 <u8g2_IsIntersection+0x32>
    2284:	e0 17       	cp	r30, r16
    2286:	f1 07       	cpc	r31, r17
    2288:	48 f0       	brcs	.+18     	; 0x229c <u8g2_IsIntersection+0x3a>
    228a:	04 17       	cp	r16, r20
    228c:	15 07       	cpc	r17, r21
    228e:	30 f0       	brcs	.+12     	; 0x229c <u8g2_IsIntersection+0x3a>
    2290:	80 e0       	ldi	r24, 0x00	; 0
    2292:	19 c0       	rjmp	.+50     	; 0x22c6 <u8g2_IsIntersection+0x64>
    2294:	e0 17       	cp	r30, r16
    2296:	f1 07       	cpc	r31, r17
    2298:	c0 f3       	brcs	.-16     	; 0x228a <u8g2_IsIntersection+0x28>
    229a:	fa cf       	rjmp	.-12     	; 0x2290 <u8g2_IsIntersection+0x2e>
    229c:	fc 01       	movw	r30, r24
    229e:	e6 5b       	subi	r30, 0xB6	; 182
    22a0:	ff 4f       	sbci	r31, 0xFF	; 255
    22a2:	40 81       	ld	r20, Z
    22a4:	51 81       	ldd	r21, Z+1	; 0x01
    22a6:	84 5b       	subi	r24, 0xB4	; 180
    22a8:	9f 4f       	sbci	r25, 0xFF	; 255
    22aa:	fc 01       	movw	r30, r24
    22ac:	80 81       	ld	r24, Z
    22ae:	91 81       	ldd	r25, Z+1	; 0x01
    22b0:	68 17       	cp	r22, r24
    22b2:	79 07       	cpc	r23, r25
    22b4:	58 f4       	brcc	.+22     	; 0x22cc <u8g2_IsIntersection+0x6a>
    22b6:	81 e0       	ldi	r24, 0x01	; 1
    22b8:	42 17       	cp	r20, r18
    22ba:	53 07       	cpc	r21, r19
    22bc:	20 f0       	brcs	.+8      	; 0x22c6 <u8g2_IsIntersection+0x64>
    22be:	81 e0       	ldi	r24, 0x01	; 1
    22c0:	26 17       	cp	r18, r22
    22c2:	37 07       	cpc	r19, r23
    22c4:	28 f7       	brcc	.-54     	; 0x2290 <u8g2_IsIntersection+0x2e>
    22c6:	1f 91       	pop	r17
    22c8:	0f 91       	pop	r16
    22ca:	08 95       	ret
    22cc:	42 17       	cp	r20, r18
    22ce:	53 07       	cpc	r21, r19
    22d0:	b0 f3       	brcs	.-20     	; 0x22be <u8g2_IsIntersection+0x5c>
    22d2:	de cf       	rjmp	.-68     	; 0x2290 <u8g2_IsIntersection+0x2e>

000022d4 <u8g2_update_page_win_r0>:
    22d4:	2f 92       	push	r2
    22d6:	3f 92       	push	r3
    22d8:	4f 92       	push	r4
    22da:	5f 92       	push	r5
    22dc:	6f 92       	push	r6
    22de:	7f 92       	push	r7
    22e0:	8f 92       	push	r8
    22e2:	9f 92       	push	r9
    22e4:	af 92       	push	r10
    22e6:	bf 92       	push	r11
    22e8:	cf 92       	push	r12
    22ea:	df 92       	push	r13
    22ec:	ef 92       	push	r14
    22ee:	ff 92       	push	r15
    22f0:	0f 93       	push	r16
    22f2:	1f 93       	push	r17
    22f4:	cf 93       	push	r28
    22f6:	df 93       	push	r29
    22f8:	cd b7       	in	r28, 0x3d	; 61
    22fa:	de b7       	in	r29, 0x3e	; 62
    22fc:	2a 97       	sbiw	r28, 0x0a	; 10
    22fe:	0f b6       	in	r0, 0x3f	; 63
    2300:	f8 94       	cli
    2302:	de bf       	out	0x3e, r29	; 62
    2304:	0f be       	out	0x3f, r0	; 63
    2306:	cd bf       	out	0x3d, r28	; 61
    2308:	9a 87       	std	Y+10, r25	; 0x0a
    230a:	89 87       	std	Y+9, r24	; 0x09
    230c:	86 5b       	subi	r24, 0xB6	; 182
    230e:	9f 4f       	sbci	r25, 0xFF	; 255
    2310:	9a 83       	std	Y+2, r25	; 0x02
    2312:	89 83       	std	Y+1, r24	; 0x01
    2314:	fc 01       	movw	r30, r24
    2316:	11 82       	std	Z+1, r1	; 0x01
    2318:	10 82       	st	Z, r1
    231a:	e9 85       	ldd	r30, Y+9	; 0x09
    231c:	fa 85       	ldd	r31, Y+10	; 0x0a
    231e:	ea 5b       	subi	r30, 0xBA	; 186
    2320:	ff 4f       	sbci	r31, 0xFF	; 255
    2322:	40 80       	ld	r4, Z
    2324:	51 80       	ldd	r5, Z+1	; 0x01
    2326:	29 85       	ldd	r18, Y+9	; 0x09
    2328:	3a 85       	ldd	r19, Y+10	; 0x0a
    232a:	24 5b       	subi	r18, 0xB4	; 180
    232c:	3f 4f       	sbci	r19, 0xFF	; 255
    232e:	3c 83       	std	Y+4, r19	; 0x04
    2330:	2b 83       	std	Y+3, r18	; 0x03
    2332:	f9 01       	movw	r30, r18
    2334:	51 82       	std	Z+1, r5	; 0x01
    2336:	40 82       	st	Z, r4
    2338:	e9 85       	ldd	r30, Y+9	; 0x09
    233a:	fa 85       	ldd	r31, Y+10	; 0x0a
    233c:	ee 5b       	subi	r30, 0xBE	; 190
    233e:	ff 4f       	sbci	r31, 0xFF	; 255
    2340:	20 80       	ld	r2, Z
    2342:	31 80       	ldd	r3, Z+1	; 0x01
    2344:	29 85       	ldd	r18, Y+9	; 0x09
    2346:	3a 85       	ldd	r19, Y+10	; 0x0a
    2348:	22 5b       	subi	r18, 0xB2	; 178
    234a:	3f 4f       	sbci	r19, 0xFF	; 255
    234c:	3e 83       	std	Y+6, r19	; 0x06
    234e:	2d 83       	std	Y+5, r18	; 0x05
    2350:	f9 01       	movw	r30, r18
    2352:	31 82       	std	Z+1, r3	; 0x01
    2354:	20 82       	st	Z, r2
    2356:	e9 85       	ldd	r30, Y+9	; 0x09
    2358:	fa 85       	ldd	r31, Y+10	; 0x0a
    235a:	ec 5b       	subi	r30, 0xBC	; 188
    235c:	ff 4f       	sbci	r31, 0xFF	; 255
    235e:	60 80       	ld	r6, Z
    2360:	71 80       	ldd	r7, Z+1	; 0x01
    2362:	29 85       	ldd	r18, Y+9	; 0x09
    2364:	3a 85       	ldd	r19, Y+10	; 0x0a
    2366:	20 5b       	subi	r18, 0xB0	; 176
    2368:	3f 4f       	sbci	r19, 0xFF	; 255
    236a:	38 87       	std	Y+8, r19	; 0x08
    236c:	2f 83       	std	Y+7, r18	; 0x07
    236e:	f9 01       	movw	r30, r18
    2370:	71 82       	std	Z+1, r7	; 0x01
    2372:	60 82       	st	Z, r6
    2374:	e9 85       	ldd	r30, Y+9	; 0x09
    2376:	fa 85       	ldd	r31, Y+10	; 0x0a
    2378:	e8 5a       	subi	r30, 0xA8	; 168
    237a:	ff 4f       	sbci	r31, 0xFF	; 255
    237c:	e0 80       	ld	r14, Z
    237e:	f1 80       	ldd	r15, Z+1	; 0x01
    2380:	e9 85       	ldd	r30, Y+9	; 0x09
    2382:	fa 85       	ldd	r31, Y+10	; 0x0a
    2384:	ec 5a       	subi	r30, 0xAC	; 172
    2386:	ff 4f       	sbci	r31, 0xFF	; 255
    2388:	a0 80       	ld	r10, Z
    238a:	b1 80       	ldd	r11, Z+1	; 0x01
    238c:	e9 85       	ldd	r30, Y+9	; 0x09
    238e:	fa 85       	ldd	r31, Y+10	; 0x0a
    2390:	ea 5a       	subi	r30, 0xAA	; 170
    2392:	ff 4f       	sbci	r31, 0xFF	; 255
    2394:	c0 80       	ld	r12, Z
    2396:	d1 80       	ldd	r13, Z+1	; 0x01
    2398:	e9 85       	ldd	r30, Y+9	; 0x09
    239a:	fa 85       	ldd	r31, Y+10	; 0x0a
    239c:	ee 5a       	subi	r30, 0xAE	; 174
    239e:	ff 4f       	sbci	r31, 0xFF	; 255
    23a0:	80 80       	ld	r8, Z
    23a2:	91 80       	ldd	r9, Z+1	; 0x01
    23a4:	87 01       	movw	r16, r14
    23a6:	95 01       	movw	r18, r10
    23a8:	a6 01       	movw	r20, r12
    23aa:	b4 01       	movw	r22, r8
    23ac:	89 85       	ldd	r24, Y+9	; 0x09
    23ae:	9a 85       	ldd	r25, Y+10	; 0x0a
    23b0:	0e 94 31 11 	call	0x2262	; 0x2262 <u8g2_IsIntersection>
    23b4:	29 85       	ldd	r18, Y+9	; 0x09
    23b6:	3a 85       	ldd	r19, Y+10	; 0x0a
    23b8:	2c 57       	subi	r18, 0x7C	; 124
    23ba:	3f 4f       	sbci	r19, 0xFF	; 255
    23bc:	3a 87       	std	Y+10, r19	; 0x0a
    23be:	29 87       	std	Y+9, r18	; 0x09
    23c0:	81 11       	cpse	r24, r1
    23c2:	1b c0       	rjmp	.+54     	; 0x23fa <u8g2_update_page_win_r0+0x126>
    23c4:	f9 01       	movw	r30, r18
    23c6:	10 82       	st	Z, r1
    23c8:	2a 96       	adiw	r28, 0x0a	; 10
    23ca:	0f b6       	in	r0, 0x3f	; 63
    23cc:	f8 94       	cli
    23ce:	de bf       	out	0x3e, r29	; 62
    23d0:	0f be       	out	0x3f, r0	; 63
    23d2:	cd bf       	out	0x3d, r28	; 61
    23d4:	df 91       	pop	r29
    23d6:	cf 91       	pop	r28
    23d8:	1f 91       	pop	r17
    23da:	0f 91       	pop	r16
    23dc:	ff 90       	pop	r15
    23de:	ef 90       	pop	r14
    23e0:	df 90       	pop	r13
    23e2:	cf 90       	pop	r12
    23e4:	bf 90       	pop	r11
    23e6:	af 90       	pop	r10
    23e8:	9f 90       	pop	r9
    23ea:	8f 90       	pop	r8
    23ec:	7f 90       	pop	r7
    23ee:	6f 90       	pop	r6
    23f0:	5f 90       	pop	r5
    23f2:	4f 90       	pop	r4
    23f4:	3f 90       	pop	r3
    23f6:	2f 90       	pop	r2
    23f8:	08 95       	ret
    23fa:	81 e0       	ldi	r24, 0x01	; 1
    23fc:	e9 85       	ldd	r30, Y+9	; 0x09
    23fe:	fa 85       	ldd	r31, Y+10	; 0x0a
    2400:	80 83       	st	Z, r24
    2402:	81 14       	cp	r8, r1
    2404:	91 04       	cpc	r9, r1
    2406:	21 f0       	breq	.+8      	; 0x2410 <u8g2_update_page_win_r0+0x13c>
    2408:	e9 81       	ldd	r30, Y+1	; 0x01
    240a:	fa 81       	ldd	r31, Y+2	; 0x02
    240c:	91 82       	std	Z+1, r9	; 0x01
    240e:	80 82       	st	Z, r8
    2410:	a4 14       	cp	r10, r4
    2412:	b5 04       	cpc	r11, r5
    2414:	20 f4       	brcc	.+8      	; 0x241e <u8g2_update_page_win_r0+0x14a>
    2416:	eb 81       	ldd	r30, Y+3	; 0x03
    2418:	fc 81       	ldd	r31, Y+4	; 0x04
    241a:	b1 82       	std	Z+1, r11	; 0x01
    241c:	a0 82       	st	Z, r10
    241e:	2c 14       	cp	r2, r12
    2420:	3d 04       	cpc	r3, r13
    2422:	20 f4       	brcc	.+8      	; 0x242c <u8g2_update_page_win_r0+0x158>
    2424:	ed 81       	ldd	r30, Y+5	; 0x05
    2426:	fe 81       	ldd	r31, Y+6	; 0x06
    2428:	d1 82       	std	Z+1, r13	; 0x01
    242a:	c0 82       	st	Z, r12
    242c:	e6 14       	cp	r14, r6
    242e:	f7 04       	cpc	r15, r7
    2430:	58 f6       	brcc	.-106    	; 0x23c8 <u8g2_update_page_win_r0+0xf4>
    2432:	ef 81       	ldd	r30, Y+7	; 0x07
    2434:	f8 85       	ldd	r31, Y+8	; 0x08
    2436:	f1 82       	std	Z+1, r15	; 0x01
    2438:	e0 82       	st	Z, r14
    243a:	c6 cf       	rjmp	.-116    	; 0x23c8 <u8g2_update_page_win_r0+0xf4>

0000243c <u8g2_DrawHVLine>:
    243c:	0f 93       	push	r16
    243e:	cf 93       	push	r28
    2440:	df 93       	push	r29
    2442:	e0 2f       	mov	r30, r16
    2444:	dc 01       	movw	r26, r24
    2446:	ac 57       	subi	r26, 0x7C	; 124
    2448:	bf 4f       	sbci	r27, 0xFF	; 255
    244a:	fc 91       	ld	r31, X
    244c:	ff 23       	and	r31, r31
    244e:	09 f4       	brne	.+2      	; 0x2452 <u8g2_DrawHVLine+0x16>
    2450:	60 c0       	rjmp	.+192    	; 0x2512 <u8g2_DrawHVLine+0xd6>
    2452:	21 15       	cp	r18, r1
    2454:	31 05       	cpc	r19, r1
    2456:	09 f4       	brne	.+2      	; 0x245a <u8g2_DrawHVLine+0x1e>
    2458:	5c c0       	rjmp	.+184    	; 0x2512 <u8g2_DrawHVLine+0xd6>
    245a:	22 30       	cpi	r18, 0x02	; 2
    245c:	31 05       	cpc	r19, r1
    245e:	38 f0       	brcs	.+14     	; 0x246e <u8g2_DrawHVLine+0x32>
    2460:	02 30       	cpi	r16, 0x02	; 2
    2462:	09 f0       	breq	.+2      	; 0x2466 <u8g2_DrawHVLine+0x2a>
    2464:	4a c0       	rjmp	.+148    	; 0x24fa <u8g2_DrawHVLine+0xbe>
    2466:	6f 5f       	subi	r22, 0xFF	; 255
    2468:	7f 4f       	sbci	r23, 0xFF	; 255
    246a:	62 1b       	sub	r22, r18
    246c:	73 0b       	sbc	r23, r19
    246e:	0e 2f       	mov	r16, r30
    2470:	01 70       	andi	r16, 0x01	; 1
    2472:	e0 fd       	sbrc	r30, 0
    2474:	52 c0       	rjmp	.+164    	; 0x251a <u8g2_DrawHVLine+0xde>
    2476:	fc 01       	movw	r30, r24
    2478:	e2 5b       	subi	r30, 0xB2	; 178
    247a:	ff 4f       	sbci	r31, 0xFF	; 255
    247c:	01 90       	ld	r0, Z+
    247e:	f0 81       	ld	r31, Z
    2480:	e0 2d       	mov	r30, r0
    2482:	4e 17       	cp	r20, r30
    2484:	5f 07       	cpc	r21, r31
    2486:	08 f4       	brcc	.+2      	; 0x248a <u8g2_DrawHVLine+0x4e>
    2488:	44 c0       	rjmp	.+136    	; 0x2512 <u8g2_DrawHVLine+0xd6>
    248a:	fc 01       	movw	r30, r24
    248c:	e0 5b       	subi	r30, 0xB0	; 176
    248e:	ff 4f       	sbci	r31, 0xFF	; 255
    2490:	01 90       	ld	r0, Z+
    2492:	f0 81       	ld	r31, Z
    2494:	e0 2d       	mov	r30, r0
    2496:	4e 17       	cp	r20, r30
    2498:	5f 07       	cpc	r21, r31
    249a:	d8 f5       	brcc	.+118    	; 0x2512 <u8g2_DrawHVLine+0xd6>
    249c:	fc 01       	movw	r30, r24
    249e:	e4 5b       	subi	r30, 0xB4	; 180
    24a0:	ff 4f       	sbci	r31, 0xFF	; 255
    24a2:	01 90       	ld	r0, Z+
    24a4:	f0 81       	ld	r31, Z
    24a6:	e0 2d       	mov	r30, r0
    24a8:	dc 01       	movw	r26, r24
    24aa:	a6 5b       	subi	r26, 0xB6	; 182
    24ac:	bf 4f       	sbci	r27, 0xFF	; 255
    24ae:	0d 90       	ld	r0, X+
    24b0:	bc 91       	ld	r27, X
    24b2:	a0 2d       	mov	r26, r0
    24b4:	26 0f       	add	r18, r22
    24b6:	37 1f       	adc	r19, r23
    24b8:	26 17       	cp	r18, r22
    24ba:	37 07       	cpc	r19, r23
    24bc:	38 f5       	brcc	.+78     	; 0x250c <u8g2_DrawHVLine+0xd0>
    24be:	6e 17       	cp	r22, r30
    24c0:	7f 07       	cpc	r23, r31
    24c2:	18 f5       	brcc	.+70     	; 0x250a <u8g2_DrawHVLine+0xce>
    24c4:	9f 01       	movw	r18, r30
    24c6:	21 50       	subi	r18, 0x01	; 1
    24c8:	31 09       	sbc	r19, r1
    24ca:	a2 17       	cp	r26, r18
    24cc:	b3 07       	cpc	r27, r19
    24ce:	08 f5       	brcc	.+66     	; 0x2512 <u8g2_DrawHVLine+0xd6>
    24d0:	6a 17       	cp	r22, r26
    24d2:	7b 07       	cpc	r23, r27
    24d4:	08 f4       	brcc	.+2      	; 0x24d8 <u8g2_DrawHVLine+0x9c>
    24d6:	bd 01       	movw	r22, r26
    24d8:	2e 17       	cp	r18, r30
    24da:	3f 07       	cpc	r19, r31
    24dc:	08 f4       	brcc	.+2      	; 0x24e0 <u8g2_DrawHVLine+0xa4>
    24de:	f9 01       	movw	r30, r18
    24e0:	e6 1b       	sub	r30, r22
    24e2:	f7 0b       	sbc	r31, r23
    24e4:	ec 01       	movw	r28, r24
    24e6:	ae a9       	ldd	r26, Y+54	; 0x36
    24e8:	bf a9       	ldd	r27, Y+55	; 0x37
    24ea:	14 96       	adiw	r26, 0x04	; 4
    24ec:	0d 90       	ld	r0, X+
    24ee:	bc 91       	ld	r27, X
    24f0:	a0 2d       	mov	r26, r0
    24f2:	9f 01       	movw	r18, r30
    24f4:	fd 01       	movw	r30, r26
    24f6:	09 95       	icall
    24f8:	0c c0       	rjmp	.+24     	; 0x2512 <u8g2_DrawHVLine+0xd6>
    24fa:	03 30       	cpi	r16, 0x03	; 3
    24fc:	09 f0       	breq	.+2      	; 0x2500 <u8g2_DrawHVLine+0xc4>
    24fe:	b7 cf       	rjmp	.-146    	; 0x246e <u8g2_DrawHVLine+0x32>
    2500:	4f 5f       	subi	r20, 0xFF	; 255
    2502:	5f 4f       	sbci	r21, 0xFF	; 255
    2504:	42 1b       	sub	r20, r18
    2506:	53 0b       	sbc	r21, r19
    2508:	b2 cf       	rjmp	.-156    	; 0x246e <u8g2_DrawHVLine+0x32>
    250a:	bd 01       	movw	r22, r26
    250c:	6e 17       	cp	r22, r30
    250e:	7f 07       	cpc	r23, r31
    2510:	e0 f2       	brcs	.-72     	; 0x24ca <u8g2_DrawHVLine+0x8e>
    2512:	df 91       	pop	r29
    2514:	cf 91       	pop	r28
    2516:	0f 91       	pop	r16
    2518:	08 95       	ret
    251a:	fc 01       	movw	r30, r24
    251c:	e6 5b       	subi	r30, 0xB6	; 182
    251e:	ff 4f       	sbci	r31, 0xFF	; 255
    2520:	01 90       	ld	r0, Z+
    2522:	f0 81       	ld	r31, Z
    2524:	e0 2d       	mov	r30, r0
    2526:	6e 17       	cp	r22, r30
    2528:	7f 07       	cpc	r23, r31
    252a:	98 f3       	brcs	.-26     	; 0x2512 <u8g2_DrawHVLine+0xd6>
    252c:	fc 01       	movw	r30, r24
    252e:	e4 5b       	subi	r30, 0xB4	; 180
    2530:	ff 4f       	sbci	r31, 0xFF	; 255
    2532:	01 90       	ld	r0, Z+
    2534:	f0 81       	ld	r31, Z
    2536:	e0 2d       	mov	r30, r0
    2538:	6e 17       	cp	r22, r30
    253a:	7f 07       	cpc	r23, r31
    253c:	50 f7       	brcc	.-44     	; 0x2512 <u8g2_DrawHVLine+0xd6>
    253e:	fc 01       	movw	r30, r24
    2540:	e0 5b       	subi	r30, 0xB0	; 176
    2542:	ff 4f       	sbci	r31, 0xFF	; 255
    2544:	01 90       	ld	r0, Z+
    2546:	f0 81       	ld	r31, Z
    2548:	e0 2d       	mov	r30, r0
    254a:	dc 01       	movw	r26, r24
    254c:	a2 5b       	subi	r26, 0xB2	; 178
    254e:	bf 4f       	sbci	r27, 0xFF	; 255
    2550:	0d 90       	ld	r0, X+
    2552:	bc 91       	ld	r27, X
    2554:	a0 2d       	mov	r26, r0
    2556:	24 0f       	add	r18, r20
    2558:	35 1f       	adc	r19, r21
    255a:	24 17       	cp	r18, r20
    255c:	35 07       	cpc	r19, r21
    255e:	a8 f4       	brcc	.+42     	; 0x258a <u8g2_DrawHVLine+0x14e>
    2560:	4e 17       	cp	r20, r30
    2562:	5f 07       	cpc	r21, r31
    2564:	88 f4       	brcc	.+34     	; 0x2588 <u8g2_DrawHVLine+0x14c>
    2566:	9f 01       	movw	r18, r30
    2568:	21 50       	subi	r18, 0x01	; 1
    256a:	31 09       	sbc	r19, r1
    256c:	a2 17       	cp	r26, r18
    256e:	b3 07       	cpc	r27, r19
    2570:	80 f6       	brcc	.-96     	; 0x2512 <u8g2_DrawHVLine+0xd6>
    2572:	4a 17       	cp	r20, r26
    2574:	5b 07       	cpc	r21, r27
    2576:	08 f4       	brcc	.+2      	; 0x257a <u8g2_DrawHVLine+0x13e>
    2578:	ad 01       	movw	r20, r26
    257a:	2e 17       	cp	r18, r30
    257c:	3f 07       	cpc	r19, r31
    257e:	08 f4       	brcc	.+2      	; 0x2582 <u8g2_DrawHVLine+0x146>
    2580:	f9 01       	movw	r30, r18
    2582:	e4 1b       	sub	r30, r20
    2584:	f5 0b       	sbc	r31, r21
    2586:	ae cf       	rjmp	.-164    	; 0x24e4 <u8g2_DrawHVLine+0xa8>
    2588:	ad 01       	movw	r20, r26
    258a:	4e 17       	cp	r20, r30
    258c:	5f 07       	cpc	r21, r31
    258e:	08 f6       	brcc	.-126    	; 0x2512 <u8g2_DrawHVLine+0xd6>
    2590:	ed cf       	rjmp	.-38     	; 0x256c <u8g2_DrawHVLine+0x130>

00002592 <u8g2_DrawPixel.constprop.92>:
    2592:	0f 93       	push	r16
    2594:	20 91 2c 06 	lds	r18, 0x062C	; 0x80062c <oled+0x52>
    2598:	30 91 2d 06 	lds	r19, 0x062D	; 0x80062d <oled+0x53>
    259c:	62 17       	cp	r22, r18
    259e:	73 07       	cpc	r23, r19
    25a0:	f0 f0       	brcs	.+60     	; 0x25de <u8g2_DrawPixel.constprop.92+0x4c>
    25a2:	20 91 2e 06 	lds	r18, 0x062E	; 0x80062e <oled+0x54>
    25a6:	30 91 2f 06 	lds	r19, 0x062F	; 0x80062f <oled+0x55>
    25aa:	62 17       	cp	r22, r18
    25ac:	73 07       	cpc	r23, r19
    25ae:	b8 f4       	brcc	.+46     	; 0x25de <u8g2_DrawPixel.constprop.92+0x4c>
    25b0:	20 91 28 06 	lds	r18, 0x0628	; 0x800628 <oled+0x4e>
    25b4:	30 91 29 06 	lds	r19, 0x0629	; 0x800629 <oled+0x4f>
    25b8:	82 17       	cp	r24, r18
    25ba:	93 07       	cpc	r25, r19
    25bc:	80 f0       	brcs	.+32     	; 0x25de <u8g2_DrawPixel.constprop.92+0x4c>
    25be:	20 91 2a 06 	lds	r18, 0x062A	; 0x80062a <oled+0x50>
    25c2:	30 91 2b 06 	lds	r19, 0x062B	; 0x80062b <oled+0x51>
    25c6:	82 17       	cp	r24, r18
    25c8:	93 07       	cpc	r25, r19
    25ca:	48 f4       	brcc	.+18     	; 0x25de <u8g2_DrawPixel.constprop.92+0x4c>
    25cc:	ab 01       	movw	r20, r22
    25ce:	bc 01       	movw	r22, r24
    25d0:	00 e0       	ldi	r16, 0x00	; 0
    25d2:	21 e0       	ldi	r18, 0x01	; 1
    25d4:	30 e0       	ldi	r19, 0x00	; 0
    25d6:	8e ed       	ldi	r24, 0xDE	; 222
    25d8:	95 e0       	ldi	r25, 0x05	; 5
    25da:	0e 94 1e 12 	call	0x243c	; 0x243c <u8g2_DrawHVLine>
    25de:	0f 91       	pop	r16
    25e0:	08 95       	ret

000025e2 <u8g2_add_vector_x>:
    25e2:	21 30       	cpi	r18, 0x01	; 1
    25e4:	69 f0       	breq	.+26     	; 0x2600 <u8g2_add_vector_x+0x1e>
    25e6:	38 f0       	brcs	.+14     	; 0x25f6 <u8g2_add_vector_x+0x14>
    25e8:	22 30       	cpi	r18, 0x02	; 2
    25ea:	79 f0       	breq	.+30     	; 0x260a <u8g2_add_vector_x+0x28>
    25ec:	84 0f       	add	r24, r20
    25ee:	91 1d       	adc	r25, r1
    25f0:	47 fd       	sbrc	r20, 7
    25f2:	9a 95       	dec	r25
    25f4:	08 95       	ret
    25f6:	86 0f       	add	r24, r22
    25f8:	91 1d       	adc	r25, r1
    25fa:	67 fd       	sbrc	r22, 7
    25fc:	9a 95       	dec	r25
    25fe:	08 95       	ret
    2600:	84 1b       	sub	r24, r20
    2602:	91 09       	sbc	r25, r1
    2604:	47 fd       	sbrc	r20, 7
    2606:	93 95       	inc	r25
    2608:	08 95       	ret
    260a:	86 1b       	sub	r24, r22
    260c:	91 09       	sbc	r25, r1
    260e:	67 fd       	sbrc	r22, 7
    2610:	93 95       	inc	r25
    2612:	08 95       	ret

00002614 <u8g2_add_vector_y>:
    2614:	21 30       	cpi	r18, 0x01	; 1
    2616:	69 f0       	breq	.+26     	; 0x2632 <u8g2_add_vector_y+0x1e>
    2618:	38 f0       	brcs	.+14     	; 0x2628 <u8g2_add_vector_y+0x14>
    261a:	22 30       	cpi	r18, 0x02	; 2
    261c:	79 f0       	breq	.+30     	; 0x263c <u8g2_add_vector_y+0x28>
    261e:	86 1b       	sub	r24, r22
    2620:	91 09       	sbc	r25, r1
    2622:	67 fd       	sbrc	r22, 7
    2624:	93 95       	inc	r25
    2626:	08 95       	ret
    2628:	84 0f       	add	r24, r20
    262a:	91 1d       	adc	r25, r1
    262c:	47 fd       	sbrc	r20, 7
    262e:	9a 95       	dec	r25
    2630:	08 95       	ret
    2632:	86 0f       	add	r24, r22
    2634:	91 1d       	adc	r25, r1
    2636:	67 fd       	sbrc	r22, 7
    2638:	9a 95       	dec	r25
    263a:	08 95       	ret
    263c:	84 1b       	sub	r24, r20
    263e:	91 09       	sbc	r25, r1
    2640:	47 fd       	sbrc	r20, 7
    2642:	93 95       	inc	r25
    2644:	08 95       	ret

00002646 <u8g2_font_decode_len>:
    2646:	3f 92       	push	r3
    2648:	4f 92       	push	r4
    264a:	5f 92       	push	r5
    264c:	6f 92       	push	r6
    264e:	7f 92       	push	r7
    2650:	8f 92       	push	r8
    2652:	9f 92       	push	r9
    2654:	af 92       	push	r10
    2656:	bf 92       	push	r11
    2658:	cf 92       	push	r12
    265a:	df 92       	push	r13
    265c:	ef 92       	push	r14
    265e:	ff 92       	push	r15
    2660:	0f 93       	push	r16
    2662:	1f 93       	push	r17
    2664:	cf 93       	push	r28
    2666:	df 93       	push	r29
    2668:	7c 01       	movw	r14, r24
    266a:	16 2f       	mov	r17, r22
    266c:	44 2e       	mov	r4, r20
    266e:	ec 01       	movw	r28, r24
    2670:	c2 5a       	subi	r28, 0xA2	; 162
    2672:	df 4f       	sbci	r29, 0xFF	; 255
    2674:	5e 80       	ldd	r5, Y+6	; 0x06
    2676:	6f 80       	ldd	r6, Y+7	; 0x07
    2678:	6c 01       	movw	r12, r24
    267a:	8a e8       	ldi	r24, 0x8A	; 138
    267c:	c8 0e       	add	r12, r24
    267e:	d1 1c       	adc	r13, r1
    2680:	78 84       	ldd	r7, Y+8	; 0x08
    2682:	75 18       	sub	r7, r5
    2684:	31 2e       	mov	r3, r17
    2686:	71 16       	cp	r7, r17
    2688:	08 f4       	brcc	.+2      	; 0x268c <u8g2_font_decode_len+0x46>
    268a:	37 2c       	mov	r3, r7
    268c:	8c 80       	ldd	r8, Y+4	; 0x04
    268e:	9d 80       	ldd	r9, Y+5	; 0x05
    2690:	0e 85       	ldd	r16, Y+14	; 0x0e
    2692:	20 2f       	mov	r18, r16
    2694:	46 2d       	mov	r20, r6
    2696:	65 2d       	mov	r22, r5
    2698:	8a 81       	ldd	r24, Y+2	; 0x02
    269a:	9b 81       	ldd	r25, Y+3	; 0x03
    269c:	0e 94 f1 12 	call	0x25e2	; 0x25e2 <u8g2_add_vector_x>
    26a0:	5c 01       	movw	r10, r24
    26a2:	20 2f       	mov	r18, r16
    26a4:	46 2d       	mov	r20, r6
    26a6:	65 2d       	mov	r22, r5
    26a8:	c4 01       	movw	r24, r8
    26aa:	0e 94 0a 13 	call	0x2614	; 0x2614 <u8g2_add_vector_y>
    26ae:	ac 01       	movw	r20, r24
    26b0:	44 20       	and	r4, r4
    26b2:	79 f0       	breq	.+30     	; 0x26d2 <u8g2_font_decode_len+0x8c>
    26b4:	8c 85       	ldd	r24, Y+12	; 0x0c
    26b6:	f6 01       	movw	r30, r12
    26b8:	80 83       	st	Z, r24
    26ba:	23 2d       	mov	r18, r3
    26bc:	30 e0       	ldi	r19, 0x00	; 0
    26be:	b5 01       	movw	r22, r10
    26c0:	c7 01       	movw	r24, r14
    26c2:	0e 94 1e 12 	call	0x243c	; 0x243c <u8g2_DrawHVLine>
    26c6:	17 15       	cp	r17, r7
    26c8:	48 f0       	brcs	.+18     	; 0x26dc <u8g2_font_decode_len+0x96>
    26ca:	17 19       	sub	r17, r7
    26cc:	63 94       	inc	r6
    26ce:	51 2c       	mov	r5, r1
    26d0:	d7 cf       	rjmp	.-82     	; 0x2680 <u8g2_font_decode_len+0x3a>
    26d2:	8b 85       	ldd	r24, Y+11	; 0x0b
    26d4:	81 11       	cpse	r24, r1
    26d6:	f7 cf       	rjmp	.-18     	; 0x26c6 <u8g2_font_decode_len+0x80>
    26d8:	8d 85       	ldd	r24, Y+13	; 0x0d
    26da:	ed cf       	rjmp	.-38     	; 0x26b6 <u8g2_font_decode_len+0x70>
    26dc:	15 0d       	add	r17, r5
    26de:	1e 83       	std	Y+6, r17	; 0x06
    26e0:	6f 82       	std	Y+7, r6	; 0x07
    26e2:	df 91       	pop	r29
    26e4:	cf 91       	pop	r28
    26e6:	1f 91       	pop	r17
    26e8:	0f 91       	pop	r16
    26ea:	ff 90       	pop	r15
    26ec:	ef 90       	pop	r14
    26ee:	df 90       	pop	r13
    26f0:	cf 90       	pop	r12
    26f2:	bf 90       	pop	r11
    26f4:	af 90       	pop	r10
    26f6:	9f 90       	pop	r9
    26f8:	8f 90       	pop	r8
    26fa:	7f 90       	pop	r7
    26fc:	6f 90       	pop	r6
    26fe:	5f 90       	pop	r5
    2700:	4f 90       	pop	r4
    2702:	3f 90       	pop	r3
    2704:	08 95       	ret

00002706 <u8g2_font_decode_get_unsigned_bits>:
    2706:	dc 01       	movw	r26, r24
    2708:	1a 96       	adiw	r26, 0x0a	; 10
    270a:	4c 91       	ld	r20, X
    270c:	1a 97       	sbiw	r26, 0x0a	; 10
    270e:	ed 91       	ld	r30, X+
    2710:	fc 91       	ld	r31, X
    2712:	11 97       	sbiw	r26, 0x01	; 1
    2714:	24 91       	lpm	r18, Z
    2716:	30 e0       	ldi	r19, 0x00	; 0
    2718:	04 2e       	mov	r0, r20
    271a:	02 c0       	rjmp	.+4      	; 0x2720 <u8g2_font_decode_get_unsigned_bits+0x1a>
    271c:	35 95       	asr	r19
    271e:	27 95       	ror	r18
    2720:	0a 94       	dec	r0
    2722:	e2 f7       	brpl	.-8      	; 0x271c <u8g2_font_decode_get_unsigned_bits+0x16>
    2724:	84 2f       	mov	r24, r20
    2726:	86 0f       	add	r24, r22
    2728:	88 30       	cpi	r24, 0x08	; 8
    272a:	68 f0       	brcs	.+26     	; 0x2746 <u8g2_font_decode_get_unsigned_bits+0x40>
    272c:	31 96       	adiw	r30, 0x01	; 1
    272e:	11 96       	adiw	r26, 0x01	; 1
    2730:	fc 93       	st	X, r31
    2732:	ee 93       	st	-X, r30
    2734:	e4 91       	lpm	r30, Z
    2736:	98 e0       	ldi	r25, 0x08	; 8
    2738:	94 1b       	sub	r25, r20
    273a:	01 c0       	rjmp	.+2      	; 0x273e <u8g2_font_decode_get_unsigned_bits+0x38>
    273c:	ee 0f       	add	r30, r30
    273e:	9a 95       	dec	r25
    2740:	ea f7       	brpl	.-6      	; 0x273c <u8g2_font_decode_get_unsigned_bits+0x36>
    2742:	2e 2b       	or	r18, r30
    2744:	88 50       	subi	r24, 0x08	; 8
    2746:	1a 96       	adiw	r26, 0x0a	; 10
    2748:	8c 93       	st	X, r24
    274a:	8f ef       	ldi	r24, 0xFF	; 255
    274c:	9f ef       	ldi	r25, 0xFF	; 255
    274e:	01 c0       	rjmp	.+2      	; 0x2752 <u8g2_font_decode_get_unsigned_bits+0x4c>
    2750:	88 0f       	add	r24, r24
    2752:	6a 95       	dec	r22
    2754:	ea f7       	brpl	.-6      	; 0x2750 <u8g2_font_decode_get_unsigned_bits+0x4a>
    2756:	80 95       	com	r24
    2758:	82 23       	and	r24, r18
    275a:	08 95       	ret

0000275c <u8g2_font_setup_decode>:
    275c:	0f 93       	push	r16
    275e:	1f 93       	push	r17
    2760:	cf 93       	push	r28
    2762:	df 93       	push	r29
    2764:	8c 01       	movw	r16, r24
    2766:	ec 01       	movw	r28, r24
    2768:	c2 5a       	subi	r28, 0xA2	; 162
    276a:	df 4f       	sbci	r29, 0xFF	; 255
    276c:	79 83       	std	Y+1, r23	; 0x01
    276e:	68 83       	st	Y, r22
    2770:	1a 86       	std	Y+10, r1	; 0x0a
    2772:	fc 01       	movw	r30, r24
    2774:	ef 58       	subi	r30, 0x8F	; 143
    2776:	ff 4f       	sbci	r31, 0xFF	; 255
    2778:	60 81       	ld	r22, Z
    277a:	ce 01       	movw	r24, r28
    277c:	0e 94 83 13 	call	0x2706	; 0x2706 <u8g2_font_decode_get_unsigned_bits>
    2780:	88 87       	std	Y+8, r24	; 0x08
    2782:	f8 01       	movw	r30, r16
    2784:	ee 58       	subi	r30, 0x8E	; 142
    2786:	ff 4f       	sbci	r31, 0xFF	; 255
    2788:	60 81       	ld	r22, Z
    278a:	ce 01       	movw	r24, r28
    278c:	0e 94 83 13 	call	0x2706	; 0x2706 <u8g2_font_decode_get_unsigned_bits>
    2790:	89 87       	std	Y+9, r24	; 0x09
    2792:	f8 01       	movw	r30, r16
    2794:	e6 57       	subi	r30, 0x76	; 118
    2796:	ff 4f       	sbci	r31, 0xFF	; 255
    2798:	90 81       	ld	r25, Z
    279a:	9c 87       	std	Y+12, r25	; 0x0c
    279c:	81 e0       	ldi	r24, 0x01	; 1
    279e:	91 11       	cpse	r25, r1
    27a0:	80 e0       	ldi	r24, 0x00	; 0
    27a2:	8d 87       	std	Y+13, r24	; 0x0d
    27a4:	df 91       	pop	r29
    27a6:	cf 91       	pop	r28
    27a8:	1f 91       	pop	r17
    27aa:	0f 91       	pop	r16
    27ac:	08 95       	ret

000027ae <u8g2_font_decode_get_signed_bits>:
    27ae:	cf 93       	push	r28
    27b0:	c6 2f       	mov	r28, r22
    27b2:	0e 94 83 13 	call	0x2706	; 0x2706 <u8g2_font_decode_get_unsigned_bits>
    27b6:	c1 50       	subi	r28, 0x01	; 1
    27b8:	21 e0       	ldi	r18, 0x01	; 1
    27ba:	30 e0       	ldi	r19, 0x00	; 0
    27bc:	01 c0       	rjmp	.+2      	; 0x27c0 <u8g2_font_decode_get_signed_bits+0x12>
    27be:	22 0f       	add	r18, r18
    27c0:	ca 95       	dec	r28
    27c2:	ea f7       	brpl	.-6      	; 0x27be <u8g2_font_decode_get_signed_bits+0x10>
    27c4:	82 1b       	sub	r24, r18
    27c6:	cf 91       	pop	r28
    27c8:	08 95       	ret

000027ca <u8g2_font_get_word>:
    27ca:	fc 01       	movw	r30, r24
    27cc:	e6 0f       	add	r30, r22
    27ce:	f1 1d       	adc	r31, r1
    27d0:	84 91       	lpm	r24, Z
    27d2:	90 e0       	ldi	r25, 0x00	; 0
    27d4:	98 2f       	mov	r25, r24
    27d6:	88 27       	eor	r24, r24
    27d8:	31 96       	adiw	r30, 0x01	; 1
    27da:	e4 91       	lpm	r30, Z
    27dc:	8e 0f       	add	r24, r30
    27de:	91 1d       	adc	r25, r1
    27e0:	08 95       	ret

000027e2 <u8g2_SetFont.constprop.87>:
    27e2:	80 91 38 06 	lds	r24, 0x0638	; 0x800638 <oled+0x5e>
    27e6:	90 91 39 06 	lds	r25, 0x0639	; 0x800639 <oled+0x5f>
    27ea:	83 50       	subi	r24, 0x03	; 3
    27ec:	95 40       	sbci	r25, 0x05	; 5
    27ee:	09 f4       	brne	.+2      	; 0x27f2 <u8g2_SetFont.constprop.87+0x10>
    27f0:	ae c0       	rjmp	.+348    	; 0x294e <u8g2_SetFont.constprop.87+0x16c>
    27f2:	e3 e0       	ldi	r30, 0x03	; 3
    27f4:	f5 e0       	ldi	r31, 0x05	; 5
    27f6:	f0 93 39 06 	sts	0x0639, r31	; 0x800639 <oled+0x5f>
    27fa:	e0 93 38 06 	sts	0x0638, r30	; 0x800638 <oled+0x5e>
    27fe:	e4 91       	lpm	r30, Z
    2800:	e0 93 4b 06 	sts	0x064B, r30	; 0x80064b <oled+0x71>
    2804:	e4 e0       	ldi	r30, 0x04	; 4
    2806:	f5 e0       	ldi	r31, 0x05	; 5
    2808:	e4 91       	lpm	r30, Z
    280a:	e0 93 4c 06 	sts	0x064C, r30	; 0x80064c <oled+0x72>
    280e:	e5 e0       	ldi	r30, 0x05	; 5
    2810:	f5 e0       	ldi	r31, 0x05	; 5
    2812:	e4 91       	lpm	r30, Z
    2814:	e0 93 4d 06 	sts	0x064D, r30	; 0x80064d <oled+0x73>
    2818:	e6 e0       	ldi	r30, 0x06	; 6
    281a:	f5 e0       	ldi	r31, 0x05	; 5
    281c:	e4 91       	lpm	r30, Z
    281e:	e0 93 4e 06 	sts	0x064E, r30	; 0x80064e <oled+0x74>
    2822:	e7 e0       	ldi	r30, 0x07	; 7
    2824:	f5 e0       	ldi	r31, 0x05	; 5
    2826:	e4 91       	lpm	r30, Z
    2828:	e0 93 4f 06 	sts	0x064F, r30	; 0x80064f <oled+0x75>
    282c:	e8 e0       	ldi	r30, 0x08	; 8
    282e:	f5 e0       	ldi	r31, 0x05	; 5
    2830:	e4 91       	lpm	r30, Z
    2832:	e0 93 50 06 	sts	0x0650, r30	; 0x800650 <oled+0x76>
    2836:	e9 e0       	ldi	r30, 0x09	; 9
    2838:	f5 e0       	ldi	r31, 0x05	; 5
    283a:	e4 91       	lpm	r30, Z
    283c:	e0 93 51 06 	sts	0x0651, r30	; 0x800651 <oled+0x77>
    2840:	ea e0       	ldi	r30, 0x0A	; 10
    2842:	f5 e0       	ldi	r31, 0x05	; 5
    2844:	e4 91       	lpm	r30, Z
    2846:	e0 93 52 06 	sts	0x0652, r30	; 0x800652 <oled+0x78>
    284a:	eb e0       	ldi	r30, 0x0B	; 11
    284c:	f5 e0       	ldi	r31, 0x05	; 5
    284e:	e4 91       	lpm	r30, Z
    2850:	e0 93 53 06 	sts	0x0653, r30	; 0x800653 <oled+0x79>
    2854:	ec e0       	ldi	r30, 0x0C	; 12
    2856:	f5 e0       	ldi	r31, 0x05	; 5
    2858:	e4 91       	lpm	r30, Z
    285a:	e0 93 54 06 	sts	0x0654, r30	; 0x800654 <oled+0x7a>
    285e:	ed e0       	ldi	r30, 0x0D	; 13
    2860:	f5 e0       	ldi	r31, 0x05	; 5
    2862:	e4 91       	lpm	r30, Z
    2864:	e0 93 55 06 	sts	0x0655, r30	; 0x800655 <oled+0x7b>
    2868:	ee e0       	ldi	r30, 0x0E	; 14
    286a:	f5 e0       	ldi	r31, 0x05	; 5
    286c:	e4 91       	lpm	r30, Z
    286e:	e0 93 56 06 	sts	0x0656, r30	; 0x800656 <oled+0x7c>
    2872:	ef e0       	ldi	r30, 0x0F	; 15
    2874:	f5 e0       	ldi	r31, 0x05	; 5
    2876:	e4 91       	lpm	r30, Z
    2878:	e0 93 57 06 	sts	0x0657, r30	; 0x800657 <oled+0x7d>
    287c:	e0 e1       	ldi	r30, 0x10	; 16
    287e:	f5 e0       	ldi	r31, 0x05	; 5
    2880:	e4 91       	lpm	r30, Z
    2882:	e0 93 58 06 	sts	0x0658, r30	; 0x800658 <oled+0x7e>
    2886:	e1 e1       	ldi	r30, 0x11	; 17
    2888:	f5 e0       	ldi	r31, 0x05	; 5
    288a:	e4 91       	lpm	r30, Z
    288c:	e0 93 59 06 	sts	0x0659, r30	; 0x800659 <oled+0x7f>
    2890:	e2 e1       	ldi	r30, 0x12	; 18
    2892:	f5 e0       	ldi	r31, 0x05	; 5
    2894:	e4 91       	lpm	r30, Z
    2896:	e0 93 5a 06 	sts	0x065A, r30	; 0x80065a <oled+0x80>
    289a:	e3 e1       	ldi	r30, 0x13	; 19
    289c:	f5 e0       	ldi	r31, 0x05	; 5
    289e:	e4 91       	lpm	r30, Z
    28a0:	e0 93 5b 06 	sts	0x065B, r30	; 0x80065b <oled+0x81>
    28a4:	61 e1       	ldi	r22, 0x11	; 17
    28a6:	83 e0       	ldi	r24, 0x03	; 3
    28a8:	95 e0       	ldi	r25, 0x05	; 5
    28aa:	0e 94 e5 13 	call	0x27ca	; 0x27ca <u8g2_font_get_word>
    28ae:	90 93 5d 06 	sts	0x065D, r25	; 0x80065d <oled+0x83>
    28b2:	80 93 5c 06 	sts	0x065C, r24	; 0x80065c <oled+0x82>
    28b6:	63 e1       	ldi	r22, 0x13	; 19
    28b8:	83 e0       	ldi	r24, 0x03	; 3
    28ba:	95 e0       	ldi	r25, 0x05	; 5
    28bc:	0e 94 e5 13 	call	0x27ca	; 0x27ca <u8g2_font_get_word>
    28c0:	90 93 5f 06 	sts	0x065F, r25	; 0x80065f <oled+0x85>
    28c4:	80 93 5e 06 	sts	0x065E, r24	; 0x80065e <oled+0x84>
    28c8:	65 e1       	ldi	r22, 0x15	; 21
    28ca:	83 e0       	ldi	r24, 0x03	; 3
    28cc:	95 e0       	ldi	r25, 0x05	; 5
    28ce:	0e 94 e5 13 	call	0x27ca	; 0x27ca <u8g2_font_get_word>
    28d2:	90 93 61 06 	sts	0x0661, r25	; 0x800661 <oled+0x87>
    28d6:	80 93 60 06 	sts	0x0660, r24	; 0x800660 <oled+0x86>
    28da:	80 91 38 06 	lds	r24, 0x0638	; 0x800638 <oled+0x5e>
    28de:	90 91 39 06 	lds	r25, 0x0639	; 0x800639 <oled+0x5f>
    28e2:	89 2b       	or	r24, r25
    28e4:	a1 f1       	breq	.+104    	; 0x294e <u8g2_SetFont.constprop.87+0x16c>
    28e6:	80 91 58 06 	lds	r24, 0x0658	; 0x800658 <oled+0x7e>
    28ea:	80 93 64 06 	sts	0x0664, r24	; 0x800664 <oled+0x8a>
    28ee:	40 91 59 06 	lds	r20, 0x0659	; 0x800659 <oled+0x7f>
    28f2:	40 93 65 06 	sts	0x0665, r20	; 0x800665 <oled+0x8b>
    28f6:	90 91 63 06 	lds	r25, 0x0663	; 0x800663 <oled+0x89>
    28fa:	99 23       	and	r25, r25
    28fc:	41 f1       	breq	.+80     	; 0x294e <u8g2_SetFont.constprop.87+0x16c>
    28fe:	91 30       	cpi	r25, 0x01	; 1
    2900:	69 f4       	brne	.+26     	; 0x291c <u8g2_SetFont.constprop.87+0x13a>
    2902:	90 91 5a 06 	lds	r25, 0x065A	; 0x80065a <oled+0x80>
    2906:	89 17       	cp	r24, r25
    2908:	14 f4       	brge	.+4      	; 0x290e <u8g2_SetFont.constprop.87+0x12c>
    290a:	90 93 64 06 	sts	0x0664, r25	; 0x800664 <oled+0x8a>
    290e:	80 91 5b 06 	lds	r24, 0x065B	; 0x80065b <oled+0x81>
    2912:	84 17       	cp	r24, r20
    2914:	e4 f4       	brge	.+56     	; 0x294e <u8g2_SetFont.constprop.87+0x16c>
    2916:	80 93 65 06 	sts	0x0665, r24	; 0x800665 <oled+0x8b>
    291a:	08 95       	ret
    291c:	30 91 55 06 	lds	r19, 0x0655	; 0x800655 <oled+0x7b>
    2920:	20 91 57 06 	lds	r18, 0x0657	; 0x800657 <oled+0x7d>
    2924:	08 2e       	mov	r0, r24
    2926:	00 0c       	add	r0, r0
    2928:	99 0b       	sbc	r25, r25
    292a:	62 2f       	mov	r22, r18
    292c:	02 2e       	mov	r0, r18
    292e:	00 0c       	add	r0, r0
    2930:	77 0b       	sbc	r23, r23
    2932:	63 0f       	add	r22, r19
    2934:	71 1d       	adc	r23, r1
    2936:	37 fd       	sbrc	r19, 7
    2938:	7a 95       	dec	r23
    293a:	86 17       	cp	r24, r22
    293c:	97 07       	cpc	r25, r23
    293e:	1c f4       	brge	.+6      	; 0x2946 <u8g2_SetFont.constprop.87+0x164>
    2940:	32 0f       	add	r19, r18
    2942:	30 93 64 06 	sts	0x0664, r19	; 0x800664 <oled+0x8a>
    2946:	24 17       	cp	r18, r20
    2948:	14 f4       	brge	.+4      	; 0x294e <u8g2_SetFont.constprop.87+0x16c>
    294a:	20 93 65 06 	sts	0x0665, r18	; 0x800665 <oled+0x8b>
    294e:	08 95       	ret

00002950 <u8g2_font_get_glyph_data>:
    2950:	ef 92       	push	r14
    2952:	ff 92       	push	r15
    2954:	0f 93       	push	r16
    2956:	1f 93       	push	r17
    2958:	cf 93       	push	r28
    295a:	df 93       	push	r29
    295c:	fc 01       	movw	r30, r24
    295e:	e6 5a       	subi	r30, 0xA6	; 166
    2960:	ff 4f       	sbci	r31, 0xFF	; 255
    2962:	20 81       	ld	r18, Z
    2964:	31 81       	ldd	r19, Z+1	; 0x01
    2966:	29 5e       	subi	r18, 0xE9	; 233
    2968:	3f 4f       	sbci	r19, 0xFF	; 255
    296a:	6f 3f       	cpi	r22, 0xFF	; 255
    296c:	71 05       	cpc	r23, r1
    296e:	09 f0       	breq	.+2      	; 0x2972 <u8g2_font_get_glyph_data+0x22>
    2970:	48 f5       	brcc	.+82     	; 0x29c4 <u8g2_font_get_glyph_data+0x74>
    2972:	61 36       	cpi	r22, 0x61	; 97
    2974:	71 05       	cpc	r23, r1
    2976:	d8 f0       	brcs	.+54     	; 0x29ae <u8g2_font_get_glyph_data+0x5e>
    2978:	80 58       	subi	r24, 0x80	; 128
    297a:	9f 4f       	sbci	r25, 0xFF	; 255
    297c:	fc 01       	movw	r30, r24
    297e:	80 81       	ld	r24, Z
    2980:	91 81       	ldd	r25, Z+1	; 0x01
    2982:	28 0f       	add	r18, r24
    2984:	39 1f       	adc	r19, r25
    2986:	c9 01       	movw	r24, r18
    2988:	01 96       	adiw	r24, 0x01	; 1
    298a:	fc 01       	movw	r30, r24
    298c:	44 91       	lpm	r20, Z
    298e:	44 23       	and	r20, r20
    2990:	09 f4       	brne	.+2      	; 0x2994 <u8g2_font_get_glyph_data+0x44>
    2992:	47 c0       	rjmp	.+142    	; 0x2a22 <u8g2_font_get_glyph_data+0xd2>
    2994:	f9 01       	movw	r30, r18
    2996:	44 91       	lpm	r20, Z
    2998:	46 17       	cp	r20, r22
    299a:	17 06       	cpc	r1, r23
    299c:	71 f4       	brne	.+28     	; 0x29ba <u8g2_font_get_glyph_data+0x6a>
    299e:	01 96       	adiw	r24, 0x01	; 1
    29a0:	df 91       	pop	r29
    29a2:	cf 91       	pop	r28
    29a4:	1f 91       	pop	r17
    29a6:	0f 91       	pop	r16
    29a8:	ff 90       	pop	r15
    29aa:	ef 90       	pop	r14
    29ac:	08 95       	ret
    29ae:	61 34       	cpi	r22, 0x41	; 65
    29b0:	71 05       	cpc	r23, r1
    29b2:	48 f3       	brcs	.-46     	; 0x2986 <u8g2_font_get_glyph_data+0x36>
    29b4:	82 58       	subi	r24, 0x82	; 130
    29b6:	9f 4f       	sbci	r25, 0xFF	; 255
    29b8:	e1 cf       	rjmp	.-62     	; 0x297c <u8g2_font_get_glyph_data+0x2c>
    29ba:	fc 01       	movw	r30, r24
    29bc:	84 91       	lpm	r24, Z
    29be:	28 0f       	add	r18, r24
    29c0:	31 1d       	adc	r19, r1
    29c2:	e1 cf       	rjmp	.-62     	; 0x2986 <u8g2_font_get_glyph_data+0x36>
    29c4:	8b 01       	movw	r16, r22
    29c6:	fc 01       	movw	r30, r24
    29c8:	ee 57       	subi	r30, 0x7E	; 126
    29ca:	ff 4f       	sbci	r31, 0xFF	; 255
    29cc:	c0 81       	ld	r28, Z
    29ce:	d1 81       	ldd	r29, Z+1	; 0x01
    29d0:	c2 0f       	add	r28, r18
    29d2:	d3 1f       	adc	r29, r19
    29d4:	7e 01       	movw	r14, r28
    29d6:	60 e0       	ldi	r22, 0x00	; 0
    29d8:	c7 01       	movw	r24, r14
    29da:	0e 94 e5 13 	call	0x27ca	; 0x27ca <u8g2_font_get_word>
    29de:	c8 0f       	add	r28, r24
    29e0:	d9 1f       	adc	r29, r25
    29e2:	62 e0       	ldi	r22, 0x02	; 2
    29e4:	c7 01       	movw	r24, r14
    29e6:	0e 94 e5 13 	call	0x27ca	; 0x27ca <u8g2_font_get_word>
    29ea:	f4 e0       	ldi	r31, 0x04	; 4
    29ec:	ef 0e       	add	r14, r31
    29ee:	f1 1c       	adc	r15, r1
    29f0:	80 17       	cp	r24, r16
    29f2:	91 07       	cpc	r25, r17
    29f4:	80 f3       	brcs	.-32     	; 0x29d6 <u8g2_font_get_glyph_data+0x86>
    29f6:	fe 01       	movw	r30, r28
    29f8:	84 91       	lpm	r24, Z
    29fa:	90 e0       	ldi	r25, 0x00	; 0
    29fc:	98 2f       	mov	r25, r24
    29fe:	88 27       	eor	r24, r24
    2a00:	31 96       	adiw	r30, 0x01	; 1
    2a02:	e4 91       	lpm	r30, Z
    2a04:	8e 2b       	or	r24, r30
    2a06:	00 97       	sbiw	r24, 0x00	; 0
    2a08:	61 f0       	breq	.+24     	; 0x2a22 <u8g2_font_get_glyph_data+0xd2>
    2a0a:	08 17       	cp	r16, r24
    2a0c:	19 07       	cpc	r17, r25
    2a0e:	19 f4       	brne	.+6      	; 0x2a16 <u8g2_font_get_glyph_data+0xc6>
    2a10:	ce 01       	movw	r24, r28
    2a12:	03 96       	adiw	r24, 0x03	; 3
    2a14:	c5 cf       	rjmp	.-118    	; 0x29a0 <u8g2_font_get_glyph_data+0x50>
    2a16:	fe 01       	movw	r30, r28
    2a18:	32 96       	adiw	r30, 0x02	; 2
    2a1a:	e4 91       	lpm	r30, Z
    2a1c:	ce 0f       	add	r28, r30
    2a1e:	d1 1d       	adc	r29, r1
    2a20:	ea cf       	rjmp	.-44     	; 0x29f6 <u8g2_font_get_glyph_data+0xa6>
    2a22:	90 e0       	ldi	r25, 0x00	; 0
    2a24:	80 e0       	ldi	r24, 0x00	; 0
    2a26:	bc cf       	rjmp	.-136    	; 0x29a0 <u8g2_font_get_glyph_data+0x50>

00002a28 <u8g2_string_width.constprop.96>:
    2a28:	cf 92       	push	r12
    2a2a:	df 92       	push	r13
    2a2c:	ff 92       	push	r15
    2a2e:	0f 93       	push	r16
    2a30:	1f 93       	push	r17
    2a32:	cf 93       	push	r28
    2a34:	df 93       	push	r29
    2a36:	10 92 44 06 	sts	0x0644, r1	; 0x800644 <oled+0x6a>
    2a3a:	10 92 f6 05 	sts	0x05F6, r1	; 0x8005f6 <oled+0x1c>
    2a3e:	6c 01       	movw	r12, r24
    2a40:	80 ec       	ldi	r24, 0xC0	; 192
    2a42:	f8 2e       	mov	r15, r24
    2a44:	10 e0       	ldi	r17, 0x00	; 0
    2a46:	00 e0       	ldi	r16, 0x00	; 0
    2a48:	d0 e0       	ldi	r29, 0x00	; 0
    2a4a:	c0 e0       	ldi	r28, 0x00	; 0
    2a4c:	f6 01       	movw	r30, r12
    2a4e:	61 91       	ld	r22, Z+
    2a50:	6f 01       	movw	r12, r30
    2a52:	e0 91 e0 05 	lds	r30, 0x05E0	; 0x8005e0 <oled+0x6>
    2a56:	f0 91 e1 05 	lds	r31, 0x05E1	; 0x8005e1 <oled+0x7>
    2a5a:	8e ed       	ldi	r24, 0xDE	; 222
    2a5c:	95 e0       	ldi	r25, 0x05	; 5
    2a5e:	09 95       	icall
    2a60:	8f 3f       	cpi	r24, 0xFF	; 255
    2a62:	98 07       	cpc	r25, r24
    2a64:	89 f1       	breq	.+98     	; 0x2ac8 <u8g2_string_width.constprop.96+0xa0>
    2a66:	8e 3f       	cpi	r24, 0xFE	; 254
    2a68:	2f ef       	ldi	r18, 0xFF	; 255
    2a6a:	92 07       	cpc	r25, r18
    2a6c:	79 f3       	breq	.-34     	; 0x2a4c <u8g2_string_width.constprop.96+0x24>
    2a6e:	bc 01       	movw	r22, r24
    2a70:	8e ed       	ldi	r24, 0xDE	; 222
    2a72:	95 e0       	ldi	r25, 0x05	; 5
    2a74:	0e 94 a8 14 	call	0x2950	; 0x2950 <u8g2_font_get_glyph_data>
    2a78:	00 97       	sbiw	r24, 0x00	; 0
    2a7a:	21 f1       	breq	.+72     	; 0x2ac4 <u8g2_string_width.constprop.96+0x9c>
    2a7c:	bc 01       	movw	r22, r24
    2a7e:	8e ed       	ldi	r24, 0xDE	; 222
    2a80:	95 e0       	ldi	r25, 0x05	; 5
    2a82:	0e 94 ae 13 	call	0x275c	; 0x275c <u8g2_font_setup_decode>
    2a86:	60 91 51 06 	lds	r22, 0x0651	; 0x800651 <oled+0x77>
    2a8a:	8c e3       	ldi	r24, 0x3C	; 60
    2a8c:	96 e0       	ldi	r25, 0x06	; 6
    2a8e:	0e 94 d7 13 	call	0x27ae	; 0x27ae <u8g2_font_decode_get_signed_bits>
    2a92:	80 93 66 06 	sts	0x0666, r24	; 0x800666 <oled+0x8c>
    2a96:	60 91 52 06 	lds	r22, 0x0652	; 0x800652 <oled+0x78>
    2a9a:	8c e3       	ldi	r24, 0x3C	; 60
    2a9c:	96 e0       	ldi	r25, 0x06	; 6
    2a9e:	0e 94 d7 13 	call	0x27ae	; 0x27ae <u8g2_font_decode_get_signed_bits>
    2aa2:	60 91 53 06 	lds	r22, 0x0653	; 0x800653 <oled+0x79>
    2aa6:	8c e3       	ldi	r24, 0x3C	; 60
    2aa8:	96 e0       	ldi	r25, 0x06	; 6
    2aaa:	0e 94 d7 13 	call	0x27ae	; 0x27ae <u8g2_font_decode_get_signed_bits>
    2aae:	08 2f       	mov	r16, r24
    2ab0:	88 0f       	add	r24, r24
    2ab2:	11 0b       	sbc	r17, r17
    2ab4:	80 ec       	ldi	r24, 0xC0	; 192
    2ab6:	f8 12       	cpse	r15, r24
    2ab8:	02 c0       	rjmp	.+4      	; 0x2abe <u8g2_string_width.constprop.96+0x96>
    2aba:	f0 90 66 06 	lds	r15, 0x0666	; 0x800666 <oled+0x8c>
    2abe:	c0 0f       	add	r28, r16
    2ac0:	d1 1f       	adc	r29, r17
    2ac2:	c4 cf       	rjmp	.-120    	; 0x2a4c <u8g2_string_width.constprop.96+0x24>
    2ac4:	80 e0       	ldi	r24, 0x00	; 0
    2ac6:	f3 cf       	rjmp	.-26     	; 0x2aae <u8g2_string_width.constprop.96+0x86>
    2ac8:	20 91 44 06 	lds	r18, 0x0644	; 0x800644 <oled+0x6a>
    2acc:	22 23       	and	r18, r18
    2ace:	99 f0       	breq	.+38     	; 0x2af6 <u8g2_string_width.constprop.96+0xce>
    2ad0:	80 91 66 06 	lds	r24, 0x0666	; 0x800666 <oled+0x8c>
    2ad4:	02 2e       	mov	r0, r18
    2ad6:	00 0c       	add	r0, r0
    2ad8:	33 0b       	sbc	r19, r19
    2ada:	28 0f       	add	r18, r24
    2adc:	31 1d       	adc	r19, r1
    2ade:	87 fd       	sbrc	r24, 7
    2ae0:	3a 95       	dec	r19
    2ae2:	c2 0f       	add	r28, r18
    2ae4:	d3 1f       	adc	r29, r19
    2ae6:	c0 1b       	sub	r28, r16
    2ae8:	d1 0b       	sbc	r29, r17
    2aea:	1f 14       	cp	r1, r15
    2aec:	24 f4       	brge	.+8      	; 0x2af6 <u8g2_string_width.constprop.96+0xce>
    2aee:	cf 0d       	add	r28, r15
    2af0:	d1 1d       	adc	r29, r1
    2af2:	f7 fc       	sbrc	r15, 7
    2af4:	da 95       	dec	r29
    2af6:	ce 01       	movw	r24, r28
    2af8:	df 91       	pop	r29
    2afa:	cf 91       	pop	r28
    2afc:	1f 91       	pop	r17
    2afe:	0f 91       	pop	r16
    2b00:	ff 90       	pop	r15
    2b02:	df 90       	pop	r13
    2b04:	cf 90       	pop	r12
    2b06:	08 95       	ret

00002b08 <u8g2_GetUTF8Width.constprop.95>:
    2b08:	2e e8       	ldi	r18, 0x8E	; 142
    2b0a:	30 e1       	ldi	r19, 0x10	; 16
    2b0c:	30 93 e1 05 	sts	0x05E1, r19	; 0x8005e1 <oled+0x7>
    2b10:	20 93 e0 05 	sts	0x05E0, r18	; 0x8005e0 <oled+0x6>
    2b14:	0c 94 14 15 	jmp	0x2a28	; 0x2a28 <u8g2_string_width.constprop.96>

00002b18 <u8g2_DrawGlyph>:
    2b18:	8f 92       	push	r8
    2b1a:	9f 92       	push	r9
    2b1c:	af 92       	push	r10
    2b1e:	bf 92       	push	r11
    2b20:	cf 92       	push	r12
    2b22:	df 92       	push	r13
    2b24:	ef 92       	push	r14
    2b26:	ff 92       	push	r15
    2b28:	0f 93       	push	r16
    2b2a:	1f 93       	push	r17
    2b2c:	cf 93       	push	r28
    2b2e:	df 93       	push	r29
    2b30:	ec 01       	movw	r28, r24
    2b32:	7b 01       	movw	r14, r22
    2b34:	8a 01       	movw	r16, r20
    2b36:	69 01       	movw	r12, r18
    2b38:	fc 01       	movw	r30, r24
    2b3a:	e4 59       	subi	r30, 0x94	; 148
    2b3c:	ff 4f       	sbci	r31, 0xFF	; 255
    2b3e:	80 81       	ld	r24, Z
    2b40:	81 30       	cpi	r24, 0x01	; 1
    2b42:	09 f4       	brne	.+2      	; 0x2b46 <u8g2_DrawGlyph+0x2e>
    2b44:	6f c0       	rjmp	.+222    	; 0x2c24 <u8g2_DrawGlyph+0x10c>
    2b46:	08 f4       	brcc	.+2      	; 0x2b4a <u8g2_DrawGlyph+0x32>
    2b48:	62 c0       	rjmp	.+196    	; 0x2c0e <u8g2_DrawGlyph+0xf6>
    2b4a:	82 30       	cpi	r24, 0x02	; 2
    2b4c:	09 f4       	brne	.+2      	; 0x2b50 <u8g2_DrawGlyph+0x38>
    2b4e:	75 c0       	rjmp	.+234    	; 0x2c3a <u8g2_DrawGlyph+0x122>
    2b50:	83 30       	cpi	r24, 0x03	; 3
    2b52:	09 f4       	brne	.+2      	; 0x2b56 <u8g2_DrawGlyph+0x3e>
    2b54:	7d c0       	rjmp	.+250    	; 0x2c50 <u8g2_DrawGlyph+0x138>
    2b56:	fe 01       	movw	r30, r28
    2b58:	e0 5a       	subi	r30, 0xA0	; 160
    2b5a:	ff 4f       	sbci	r31, 0xFF	; 255
    2b5c:	f1 82       	std	Z+1, r15	; 0x01
    2b5e:	e0 82       	st	Z, r14
    2b60:	32 96       	adiw	r30, 0x02	; 2
    2b62:	11 83       	std	Z+1, r17	; 0x01
    2b64:	00 83       	st	Z, r16
    2b66:	b6 01       	movw	r22, r12
    2b68:	ce 01       	movw	r24, r28
    2b6a:	0e 94 a8 14 	call	0x2950	; 0x2950 <u8g2_font_get_glyph_data>
    2b6e:	00 97       	sbiw	r24, 0x00	; 0
    2b70:	09 f4       	brne	.+2      	; 0x2b74 <u8g2_DrawGlyph+0x5c>
    2b72:	ff c0       	rjmp	.+510    	; 0x2d72 <u8g2_DrawGlyph+0x25a>
    2b74:	7e 01       	movw	r14, r28
    2b76:	2e e5       	ldi	r18, 0x5E	; 94
    2b78:	e2 0e       	add	r14, r18
    2b7a:	f1 1c       	adc	r15, r1
    2b7c:	bc 01       	movw	r22, r24
    2b7e:	ce 01       	movw	r24, r28
    2b80:	0e 94 ae 13 	call	0x275c	; 0x275c <u8g2_font_setup_decode>
    2b84:	fe 01       	movw	r30, r28
    2b86:	e9 59       	subi	r30, 0x99	; 153
    2b88:	ff 4f       	sbci	r31, 0xFF	; 255
    2b8a:	b0 80       	ld	r11, Z
    2b8c:	3c 96       	adiw	r30, 0x0c	; 12
    2b8e:	60 81       	ld	r22, Z
    2b90:	c7 01       	movw	r24, r14
    2b92:	0e 94 d7 13 	call	0x27ae	; 0x27ae <u8g2_font_decode_get_signed_bits>
    2b96:	88 2e       	mov	r8, r24
    2b98:	fe 01       	movw	r30, r28
    2b9a:	ec 58       	subi	r30, 0x8C	; 140
    2b9c:	ff 4f       	sbci	r31, 0xFF	; 255
    2b9e:	60 81       	ld	r22, Z
    2ba0:	c7 01       	movw	r24, r14
    2ba2:	0e 94 d7 13 	call	0x27ae	; 0x27ae <u8g2_font_decode_get_signed_bits>
    2ba6:	08 2f       	mov	r16, r24
    2ba8:	fe 01       	movw	r30, r28
    2baa:	eb 58       	subi	r30, 0x8B	; 139
    2bac:	ff 4f       	sbci	r31, 0xFF	; 255
    2bae:	60 81       	ld	r22, Z
    2bb0:	c7 01       	movw	r24, r14
    2bb2:	0e 94 d7 13 	call	0x27ae	; 0x27ae <u8g2_font_decode_get_signed_bits>
    2bb6:	a8 2e       	mov	r10, r24
    2bb8:	f7 01       	movw	r30, r14
    2bba:	90 84       	ldd	r9, Z+8	; 0x08
    2bbc:	19 14       	cp	r1, r9
    2bbe:	0c f0       	brlt	.+2      	; 0x2bc2 <u8g2_DrawGlyph+0xaa>
    2bc0:	90 c0       	rjmp	.+288    	; 0x2ce2 <u8g2_DrawGlyph+0x1ca>
    2bc2:	16 85       	ldd	r17, Z+14	; 0x0e
    2bc4:	0b 0d       	add	r16, r11
    2bc6:	01 95       	neg	r16
    2bc8:	21 2f       	mov	r18, r17
    2bca:	40 2f       	mov	r20, r16
    2bcc:	68 2d       	mov	r22, r8
    2bce:	82 81       	ldd	r24, Z+2	; 0x02
    2bd0:	93 81       	ldd	r25, Z+3	; 0x03
    2bd2:	0e 94 f1 12 	call	0x25e2	; 0x25e2 <u8g2_add_vector_x>
    2bd6:	6c 01       	movw	r12, r24
    2bd8:	f7 01       	movw	r30, r14
    2bda:	93 83       	std	Z+3, r25	; 0x03
    2bdc:	82 83       	std	Z+2, r24	; 0x02
    2bde:	21 2f       	mov	r18, r17
    2be0:	40 2f       	mov	r20, r16
    2be2:	68 2d       	mov	r22, r8
    2be4:	84 81       	ldd	r24, Z+4	; 0x04
    2be6:	95 81       	ldd	r25, Z+5	; 0x05
    2be8:	0e 94 0a 13 	call	0x2614	; 0x2614 <u8g2_add_vector_y>
    2bec:	ac 01       	movw	r20, r24
    2bee:	f7 01       	movw	r30, r14
    2bf0:	95 83       	std	Z+5, r25	; 0x05
    2bf2:	84 83       	std	Z+4, r24	; 0x04
    2bf4:	11 30       	cpi	r17, 0x01	; 1
    2bf6:	09 f4       	brne	.+2      	; 0x2bfa <u8g2_DrawGlyph+0xe2>
    2bf8:	84 c0       	rjmp	.+264    	; 0x2d02 <u8g2_DrawGlyph+0x1ea>
    2bfa:	a8 f1       	brcs	.+106    	; 0x2c66 <u8g2_DrawGlyph+0x14e>
    2bfc:	12 30       	cpi	r17, 0x02	; 2
    2bfe:	09 f4       	brne	.+2      	; 0x2c02 <u8g2_DrawGlyph+0xea>
    2c00:	91 c0       	rjmp	.+290    	; 0x2d24 <u8g2_DrawGlyph+0x20c>
    2c02:	13 30       	cpi	r17, 0x03	; 3
    2c04:	09 f4       	brne	.+2      	; 0x2c08 <u8g2_DrawGlyph+0xf0>
    2c06:	a4 c0       	rjmp	.+328    	; 0x2d50 <u8g2_DrawGlyph+0x238>
    2c08:	8c 01       	movw	r16, r24
    2c0a:	96 01       	movw	r18, r12
    2c0c:	36 c0       	rjmp	.+108    	; 0x2c7a <u8g2_DrawGlyph+0x162>
    2c0e:	fe 01       	movw	r30, r28
    2c10:	e4 5a       	subi	r30, 0xA4	; 164
    2c12:	ff 4f       	sbci	r31, 0xFF	; 255
    2c14:	01 90       	ld	r0, Z+
    2c16:	f0 81       	ld	r31, Z
    2c18:	e0 2d       	mov	r30, r0
    2c1a:	ce 01       	movw	r24, r28
    2c1c:	09 95       	icall
    2c1e:	08 0f       	add	r16, r24
    2c20:	19 1f       	adc	r17, r25
    2c22:	99 cf       	rjmp	.-206    	; 0x2b56 <u8g2_DrawGlyph+0x3e>
    2c24:	fe 01       	movw	r30, r28
    2c26:	e4 5a       	subi	r30, 0xA4	; 164
    2c28:	ff 4f       	sbci	r31, 0xFF	; 255
    2c2a:	01 90       	ld	r0, Z+
    2c2c:	f0 81       	ld	r31, Z
    2c2e:	e0 2d       	mov	r30, r0
    2c30:	ce 01       	movw	r24, r28
    2c32:	09 95       	icall
    2c34:	e8 1a       	sub	r14, r24
    2c36:	f9 0a       	sbc	r15, r25
    2c38:	8e cf       	rjmp	.-228    	; 0x2b56 <u8g2_DrawGlyph+0x3e>
    2c3a:	fe 01       	movw	r30, r28
    2c3c:	e4 5a       	subi	r30, 0xA4	; 164
    2c3e:	ff 4f       	sbci	r31, 0xFF	; 255
    2c40:	01 90       	ld	r0, Z+
    2c42:	f0 81       	ld	r31, Z
    2c44:	e0 2d       	mov	r30, r0
    2c46:	ce 01       	movw	r24, r28
    2c48:	09 95       	icall
    2c4a:	08 1b       	sub	r16, r24
    2c4c:	19 0b       	sbc	r17, r25
    2c4e:	83 cf       	rjmp	.-250    	; 0x2b56 <u8g2_DrawGlyph+0x3e>
    2c50:	fe 01       	movw	r30, r28
    2c52:	e4 5a       	subi	r30, 0xA4	; 164
    2c54:	ff 4f       	sbci	r31, 0xFF	; 255
    2c56:	01 90       	ld	r0, Z+
    2c58:	f0 81       	ld	r31, Z
    2c5a:	e0 2d       	mov	r30, r0
    2c5c:	ce 01       	movw	r24, r28
    2c5e:	09 95       	icall
    2c60:	e8 0e       	add	r14, r24
    2c62:	f9 1e       	adc	r15, r25
    2c64:	78 cf       	rjmp	.-272    	; 0x2b56 <u8g2_DrawGlyph+0x3e>
    2c66:	96 01       	movw	r18, r12
    2c68:	29 0d       	add	r18, r9
    2c6a:	31 1d       	adc	r19, r1
    2c6c:	97 fc       	sbrc	r9, 7
    2c6e:	3a 95       	dec	r19
    2c70:	8c 01       	movw	r16, r24
    2c72:	0b 0d       	add	r16, r11
    2c74:	11 1d       	adc	r17, r1
    2c76:	b7 fc       	sbrc	r11, 7
    2c78:	1a 95       	dec	r17
    2c7a:	b6 01       	movw	r22, r12
    2c7c:	ce 01       	movw	r24, r28
    2c7e:	0e 94 31 11 	call	0x2262	; 0x2262 <u8g2_IsIntersection>
    2c82:	88 23       	and	r24, r24
    2c84:	71 f1       	breq	.+92     	; 0x2ce2 <u8g2_DrawGlyph+0x1ca>
    2c86:	f7 01       	movw	r30, r14
    2c88:	16 82       	std	Z+6, r1	; 0x06
    2c8a:	17 82       	std	Z+7, r1	; 0x07
    2c8c:	8e 01       	movw	r16, r28
    2c8e:	01 59       	subi	r16, 0x91	; 145
    2c90:	1f 4f       	sbci	r17, 0xFF	; 255
    2c92:	6e 01       	movw	r12, r28
    2c94:	f0 e7       	ldi	r31, 0x70	; 112
    2c96:	cf 0e       	add	r12, r31
    2c98:	d1 1c       	adc	r13, r1
    2c9a:	f8 01       	movw	r30, r16
    2c9c:	60 81       	ld	r22, Z
    2c9e:	c7 01       	movw	r24, r14
    2ca0:	0e 94 83 13 	call	0x2706	; 0x2706 <u8g2_font_decode_get_unsigned_bits>
    2ca4:	88 2e       	mov	r8, r24
    2ca6:	f6 01       	movw	r30, r12
    2ca8:	60 81       	ld	r22, Z
    2caa:	c7 01       	movw	r24, r14
    2cac:	0e 94 83 13 	call	0x2706	; 0x2706 <u8g2_font_decode_get_unsigned_bits>
    2cb0:	98 2e       	mov	r9, r24
    2cb2:	40 e0       	ldi	r20, 0x00	; 0
    2cb4:	68 2d       	mov	r22, r8
    2cb6:	ce 01       	movw	r24, r28
    2cb8:	0e 94 23 13 	call	0x2646	; 0x2646 <u8g2_font_decode_len>
    2cbc:	41 e0       	ldi	r20, 0x01	; 1
    2cbe:	69 2d       	mov	r22, r9
    2cc0:	ce 01       	movw	r24, r28
    2cc2:	0e 94 23 13 	call	0x2646	; 0x2646 <u8g2_font_decode_len>
    2cc6:	61 e0       	ldi	r22, 0x01	; 1
    2cc8:	c7 01       	movw	r24, r14
    2cca:	0e 94 83 13 	call	0x2706	; 0x2706 <u8g2_font_decode_get_unsigned_bits>
    2cce:	81 11       	cpse	r24, r1
    2cd0:	f0 cf       	rjmp	.-32     	; 0x2cb2 <u8g2_DrawGlyph+0x19a>
    2cd2:	f7 01       	movw	r30, r14
    2cd4:	87 81       	ldd	r24, Z+7	; 0x07
    2cd6:	8b 15       	cp	r24, r11
    2cd8:	04 f3       	brlt	.-64     	; 0x2c9a <u8g2_DrawGlyph+0x182>
    2cda:	c6 57       	subi	r28, 0x76	; 118
    2cdc:	df 4f       	sbci	r29, 0xFF	; 255
    2cde:	84 85       	ldd	r24, Z+12	; 0x0c
    2ce0:	88 83       	st	Y, r24
    2ce2:	8a 2d       	mov	r24, r10
    2ce4:	aa 0c       	add	r10, r10
    2ce6:	99 0b       	sbc	r25, r25
    2ce8:	df 91       	pop	r29
    2cea:	cf 91       	pop	r28
    2cec:	1f 91       	pop	r17
    2cee:	0f 91       	pop	r16
    2cf0:	ff 90       	pop	r15
    2cf2:	ef 90       	pop	r14
    2cf4:	df 90       	pop	r13
    2cf6:	cf 90       	pop	r12
    2cf8:	bf 90       	pop	r11
    2cfa:	af 90       	pop	r10
    2cfc:	9f 90       	pop	r9
    2cfe:	8f 90       	pop	r8
    2d00:	08 95       	ret
    2d02:	81 e0       	ldi	r24, 0x01	; 1
    2d04:	90 e0       	ldi	r25, 0x00	; 0
    2d06:	8b 19       	sub	r24, r11
    2d08:	91 09       	sbc	r25, r1
    2d0a:	b7 fc       	sbrc	r11, 7
    2d0c:	93 95       	inc	r25
    2d0e:	96 01       	movw	r18, r12
    2d10:	2f 5f       	subi	r18, 0xFF	; 255
    2d12:	3f 4f       	sbci	r19, 0xFF	; 255
    2d14:	8a 01       	movw	r16, r20
    2d16:	09 0d       	add	r16, r9
    2d18:	11 1d       	adc	r17, r1
    2d1a:	97 fc       	sbrc	r9, 7
    2d1c:	1a 95       	dec	r17
    2d1e:	c8 0e       	add	r12, r24
    2d20:	d9 1e       	adc	r13, r25
    2d22:	ab cf       	rjmp	.-170    	; 0x2c7a <u8g2_DrawGlyph+0x162>
    2d24:	81 e0       	ldi	r24, 0x01	; 1
    2d26:	90 e0       	ldi	r25, 0x00	; 0
    2d28:	bc 01       	movw	r22, r24
    2d2a:	69 19       	sub	r22, r9
    2d2c:	71 09       	sbc	r23, r1
    2d2e:	97 fc       	sbrc	r9, 7
    2d30:	73 95       	inc	r23
    2d32:	96 01       	movw	r18, r12
    2d34:	2f 5f       	subi	r18, 0xFF	; 255
    2d36:	3f 4f       	sbci	r19, 0xFF	; 255
    2d38:	8b 19       	sub	r24, r11
    2d3a:	91 09       	sbc	r25, r1
    2d3c:	b7 fc       	sbrc	r11, 7
    2d3e:	93 95       	inc	r25
    2d40:	8a 01       	movw	r16, r20
    2d42:	0f 5f       	subi	r16, 0xFF	; 255
    2d44:	1f 4f       	sbci	r17, 0xFF	; 255
    2d46:	48 0f       	add	r20, r24
    2d48:	59 1f       	adc	r21, r25
    2d4a:	c6 0e       	add	r12, r22
    2d4c:	d7 1e       	adc	r13, r23
    2d4e:	95 cf       	rjmp	.-214    	; 0x2c7a <u8g2_DrawGlyph+0x162>
    2d50:	96 01       	movw	r18, r12
    2d52:	2b 0d       	add	r18, r11
    2d54:	31 1d       	adc	r19, r1
    2d56:	b7 fc       	sbrc	r11, 7
    2d58:	3a 95       	dec	r19
    2d5a:	81 e0       	ldi	r24, 0x01	; 1
    2d5c:	90 e0       	ldi	r25, 0x00	; 0
    2d5e:	89 19       	sub	r24, r9
    2d60:	91 09       	sbc	r25, r1
    2d62:	97 fc       	sbrc	r9, 7
    2d64:	93 95       	inc	r25
    2d66:	8a 01       	movw	r16, r20
    2d68:	0f 5f       	subi	r16, 0xFF	; 255
    2d6a:	1f 4f       	sbci	r17, 0xFF	; 255
    2d6c:	48 0f       	add	r20, r24
    2d6e:	59 1f       	adc	r21, r25
    2d70:	84 cf       	rjmp	.-248    	; 0x2c7a <u8g2_DrawGlyph+0x162>
    2d72:	90 e0       	ldi	r25, 0x00	; 0
    2d74:	80 e0       	ldi	r24, 0x00	; 0
    2d76:	b8 cf       	rjmp	.-144    	; 0x2ce8 <u8g2_DrawGlyph+0x1d0>

00002d78 <u8g2_draw_string>:
    2d78:	8f 92       	push	r8
    2d7a:	9f 92       	push	r9
    2d7c:	af 92       	push	r10
    2d7e:	bf 92       	push	r11
    2d80:	cf 92       	push	r12
    2d82:	df 92       	push	r13
    2d84:	ef 92       	push	r14
    2d86:	ff 92       	push	r15
    2d88:	0f 93       	push	r16
    2d8a:	1f 93       	push	r17
    2d8c:	cf 93       	push	r28
    2d8e:	df 93       	push	r29
    2d90:	ec 01       	movw	r28, r24
    2d92:	8b 01       	movw	r16, r22
    2d94:	7a 01       	movw	r14, r20
    2d96:	18 8e       	std	Y+24, r1	; 0x18
    2d98:	69 01       	movw	r12, r18
    2d9a:	b1 2c       	mov	r11, r1
    2d9c:	a1 2c       	mov	r10, r1
    2d9e:	4c 01       	movw	r8, r24
    2da0:	2c e6       	ldi	r18, 0x6C	; 108
    2da2:	82 0e       	add	r8, r18
    2da4:	91 1c       	adc	r9, r1
    2da6:	f6 01       	movw	r30, r12
    2da8:	61 91       	ld	r22, Z+
    2daa:	6f 01       	movw	r12, r30
    2dac:	ea 81       	ldd	r30, Y+2	; 0x02
    2dae:	fb 81       	ldd	r31, Y+3	; 0x03
    2db0:	ce 01       	movw	r24, r28
    2db2:	09 95       	icall
    2db4:	8f 3f       	cpi	r24, 0xFF	; 255
    2db6:	98 07       	cpc	r25, r24
    2db8:	11 f1       	breq	.+68     	; 0x2dfe <u8g2_draw_string+0x86>
    2dba:	8e 3f       	cpi	r24, 0xFE	; 254
    2dbc:	2f ef       	ldi	r18, 0xFF	; 255
    2dbe:	92 07       	cpc	r25, r18
    2dc0:	91 f3       	breq	.-28     	; 0x2da6 <u8g2_draw_string+0x2e>
    2dc2:	9c 01       	movw	r18, r24
    2dc4:	a7 01       	movw	r20, r14
    2dc6:	b8 01       	movw	r22, r16
    2dc8:	ce 01       	movw	r24, r28
    2dca:	0e 94 8c 15 	call	0x2b18	; 0x2b18 <u8g2_DrawGlyph>
    2dce:	f4 01       	movw	r30, r8
    2dd0:	20 81       	ld	r18, Z
    2dd2:	21 30       	cpi	r18, 0x01	; 1
    2dd4:	59 f0       	breq	.+22     	; 0x2dec <u8g2_draw_string+0x74>
    2dd6:	38 f0       	brcs	.+14     	; 0x2de6 <u8g2_draw_string+0x6e>
    2dd8:	22 30       	cpi	r18, 0x02	; 2
    2dda:	59 f0       	breq	.+22     	; 0x2df2 <u8g2_draw_string+0x7a>
    2ddc:	23 30       	cpi	r18, 0x03	; 3
    2dde:	61 f0       	breq	.+24     	; 0x2df8 <u8g2_draw_string+0x80>
    2de0:	a8 0e       	add	r10, r24
    2de2:	b9 1e       	adc	r11, r25
    2de4:	e0 cf       	rjmp	.-64     	; 0x2da6 <u8g2_draw_string+0x2e>
    2de6:	08 0f       	add	r16, r24
    2de8:	19 1f       	adc	r17, r25
    2dea:	fa cf       	rjmp	.-12     	; 0x2de0 <u8g2_draw_string+0x68>
    2dec:	e8 0e       	add	r14, r24
    2dee:	f9 1e       	adc	r15, r25
    2df0:	f7 cf       	rjmp	.-18     	; 0x2de0 <u8g2_draw_string+0x68>
    2df2:	08 1b       	sub	r16, r24
    2df4:	19 0b       	sbc	r17, r25
    2df6:	f4 cf       	rjmp	.-24     	; 0x2de0 <u8g2_draw_string+0x68>
    2df8:	e8 1a       	sub	r14, r24
    2dfa:	f9 0a       	sbc	r15, r25
    2dfc:	f1 cf       	rjmp	.-30     	; 0x2de0 <u8g2_draw_string+0x68>
    2dfe:	c5 01       	movw	r24, r10
    2e00:	df 91       	pop	r29
    2e02:	cf 91       	pop	r28
    2e04:	1f 91       	pop	r17
    2e06:	0f 91       	pop	r16
    2e08:	ff 90       	pop	r15
    2e0a:	ef 90       	pop	r14
    2e0c:	df 90       	pop	r13
    2e0e:	cf 90       	pop	r12
    2e10:	bf 90       	pop	r11
    2e12:	af 90       	pop	r10
    2e14:	9f 90       	pop	r9
    2e16:	8f 90       	pop	r8
    2e18:	08 95       	ret

00002e1a <u8g2_DrawButtonUTF8.constprop.94>:
    2e1a:	7f 92       	push	r7
    2e1c:	8f 92       	push	r8
    2e1e:	9f 92       	push	r9
    2e20:	af 92       	push	r10
    2e22:	bf 92       	push	r11
    2e24:	cf 92       	push	r12
    2e26:	df 92       	push	r13
    2e28:	ef 92       	push	r14
    2e2a:	ff 92       	push	r15
    2e2c:	0f 93       	push	r16
    2e2e:	1f 93       	push	r17
    2e30:	cf 93       	push	r28
    2e32:	df 93       	push	r29
    2e34:	5c 01       	movw	r10, r24
    2e36:	eb 01       	movw	r28, r22
    2e38:	6a 01       	movw	r12, r20
    2e3a:	89 01       	movw	r16, r18
    2e3c:	88 e5       	ldi	r24, 0x58	; 88
    2e3e:	92 e0       	ldi	r25, 0x02	; 2
    2e40:	0e 94 84 15 	call	0x2b08	; 0x2b08 <u8g2_GetUTF8Width.constprop.95>
    2e44:	78 2e       	mov	r7, r24
    2e46:	f9 2e       	mov	r15, r25
    2e48:	81 e0       	ldi	r24, 0x01	; 1
    2e4a:	80 93 47 06 	sts	0x0647, r24	; 0x800647 <oled+0x6d>
    2e4e:	8e e8       	ldi	r24, 0x8E	; 142
    2e50:	90 e1       	ldi	r25, 0x10	; 16
    2e52:	90 93 e1 05 	sts	0x05E1, r25	; 0x8005e1 <oled+0x7>
    2e56:	80 93 e0 05 	sts	0x05E0, r24	; 0x8005e0 <oled+0x6>
    2e5a:	28 e5       	ldi	r18, 0x58	; 88
    2e5c:	32 e0       	ldi	r19, 0x02	; 2
    2e5e:	ae 01       	movw	r20, r28
    2e60:	b5 01       	movw	r22, r10
    2e62:	8e ed       	ldi	r24, 0xDE	; 222
    2e64:	95 e0       	ldi	r25, 0x05	; 5
    2e66:	0e 94 bc 16 	call	0x2d78	; 0x2d78 <u8g2_draw_string>
    2e6a:	e0 90 64 06 	lds	r14, 0x0664	; 0x800664 <oled+0x8a>
    2e6e:	80 90 65 06 	lds	r8, 0x0665	; 0x800665 <oled+0x8b>
    2e72:	90 90 68 06 	lds	r9, 0x0668	; 0x800668 <oled+0x8e>
    2e76:	ac 18       	sub	r10, r12
    2e78:	bd 08       	sbc	r11, r13
    2e7a:	cc 0c       	add	r12, r12
    2e7c:	dd 1c       	adc	r13, r13
    2e7e:	87 2d       	mov	r24, r7
    2e80:	9f 2d       	mov	r25, r15
    2e82:	80 38       	cpi	r24, 0x80	; 128
    2e84:	91 05       	cpc	r25, r1
    2e86:	10 f4       	brcc	.+4      	; 0x2e8c <u8g2_DrawButtonUTF8.constprop.94+0x72>
    2e88:	80 e8       	ldi	r24, 0x80	; 128
    2e8a:	90 e0       	ldi	r25, 0x00	; 0
    2e8c:	c8 0e       	add	r12, r24
    2e8e:	d9 1e       	adc	r13, r25
    2e90:	e0 91 3a 06 	lds	r30, 0x063A	; 0x80063a <oled+0x60>
    2e94:	f0 91 3b 06 	lds	r31, 0x063B	; 0x80063b <oled+0x61>
    2e98:	8e ed       	ldi	r24, 0xDE	; 222
    2e9a:	95 e0       	ldi	r25, 0x05	; 5
    2e9c:	09 95       	icall
    2e9e:	0e 2c       	mov	r0, r14
    2ea0:	00 0c       	add	r0, r0
    2ea2:	ff 08       	sbc	r15, r15
    2ea4:	97 01       	movw	r18, r14
    2ea6:	20 0f       	add	r18, r16
    2ea8:	31 1f       	adc	r19, r17
    2eaa:	c2 1b       	sub	r28, r18
    2eac:	d3 0b       	sbc	r29, r19
    2eae:	c8 0f       	add	r28, r24
    2eb0:	d9 1f       	adc	r29, r25
    2eb2:	e8 18       	sub	r14, r8
    2eb4:	f1 08       	sbc	r15, r1
    2eb6:	87 fc       	sbrc	r8, 7
    2eb8:	f3 94       	inc	r15
    2eba:	00 0f       	add	r16, r16
    2ebc:	11 1f       	adc	r17, r17
    2ebe:	e0 0e       	add	r14, r16
    2ec0:	f1 1e       	adc	r15, r17
    2ec2:	82 e0       	ldi	r24, 0x02	; 2
    2ec4:	0e 94 c5 06 	call	0xd8a	; 0xd8a <u8g2_SetDrawColor.constprop.105>
    2ec8:	ec 0e       	add	r14, r28
    2eca:	fd 1e       	adc	r15, r29
    2ecc:	95 01       	movw	r18, r10
    2ece:	2c 0d       	add	r18, r12
    2ed0:	3d 1d       	adc	r19, r13
    2ed2:	87 01       	movw	r16, r14
    2ed4:	ae 01       	movw	r20, r28
    2ed6:	b5 01       	movw	r22, r10
    2ed8:	8e ed       	ldi	r24, 0xDE	; 222
    2eda:	95 e0       	ldi	r25, 0x05	; 5
    2edc:	0e 94 31 11 	call	0x2262	; 0x2262 <u8g2_IsIntersection>
    2ee0:	81 11       	cpse	r24, r1
    2ee2:	19 c0       	rjmp	.+50     	; 0x2f16 <u8g2_DrawButtonUTF8.constprop.94+0xfc>
    2ee4:	89 2d       	mov	r24, r9
    2ee6:	df 91       	pop	r29
    2ee8:	cf 91       	pop	r28
    2eea:	1f 91       	pop	r17
    2eec:	0f 91       	pop	r16
    2eee:	ff 90       	pop	r15
    2ef0:	ef 90       	pop	r14
    2ef2:	df 90       	pop	r13
    2ef4:	cf 90       	pop	r12
    2ef6:	bf 90       	pop	r11
    2ef8:	af 90       	pop	r10
    2efa:	9f 90       	pop	r9
    2efc:	8f 90       	pop	r8
    2efe:	7f 90       	pop	r7
    2f00:	0c 94 c5 06 	jmp	0xd8a	; 0xd8a <u8g2_SetDrawColor.constprop.105>
    2f04:	00 e0       	ldi	r16, 0x00	; 0
    2f06:	96 01       	movw	r18, r12
    2f08:	ae 01       	movw	r20, r28
    2f0a:	b5 01       	movw	r22, r10
    2f0c:	8e ed       	ldi	r24, 0xDE	; 222
    2f0e:	95 e0       	ldi	r25, 0x05	; 5
    2f10:	0e 94 1e 12 	call	0x243c	; 0x243c <u8g2_DrawHVLine>
    2f14:	21 96       	adiw	r28, 0x01	; 1
    2f16:	ec 16       	cp	r14, r28
    2f18:	fd 06       	cpc	r15, r29
    2f1a:	a1 f7       	brne	.-24     	; 0x2f04 <u8g2_DrawButtonUTF8.constprop.94+0xea>
    2f1c:	e3 cf       	rjmp	.-58     	; 0x2ee4 <u8g2_DrawButtonUTF8.constprop.94+0xca>

00002f1e <_ZN4U8G28drawUTF8EjjPKc.constprop.146>:
    2f1e:	9a 01       	movw	r18, r20
    2f20:	4e e8       	ldi	r20, 0x8E	; 142
    2f22:	50 e1       	ldi	r21, 0x10	; 16
    2f24:	50 93 e1 05 	sts	0x05E1, r21	; 0x8005e1 <oled+0x7>
    2f28:	40 93 e0 05 	sts	0x05E0, r20	; 0x8005e0 <oled+0x6>
    2f2c:	ab 01       	movw	r20, r22
    2f2e:	bc 01       	movw	r22, r24
    2f30:	8e ed       	ldi	r24, 0xDE	; 222
    2f32:	95 e0       	ldi	r25, 0x05	; 5
    2f34:	0c 94 bc 16 	jmp	0x2d78	; 0x2d78 <u8g2_draw_string>

00002f38 <u8g2_SetBufferCurrTileRow>:
    2f38:	cf 93       	push	r28
    2f3a:	df 93       	push	r29
    2f3c:	ec 01       	movw	r28, r24
    2f3e:	6b af       	std	Y+59, r22	; 0x3b
    2f40:	ee a9       	ldd	r30, Y+54	; 0x36
    2f42:	ff a9       	ldd	r31, Y+55	; 0x37
    2f44:	01 90       	ld	r0, Z+
    2f46:	f0 81       	ld	r31, Z
    2f48:	e0 2d       	mov	r30, r0
    2f4a:	09 95       	icall
    2f4c:	ee a9       	ldd	r30, Y+54	; 0x36
    2f4e:	ff a9       	ldd	r31, Y+55	; 0x37
    2f50:	02 80       	ldd	r0, Z+2	; 0x02
    2f52:	f3 81       	ldd	r31, Z+3	; 0x03
    2f54:	e0 2d       	mov	r30, r0
    2f56:	ce 01       	movw	r24, r28
    2f58:	df 91       	pop	r29
    2f5a:	cf 91       	pop	r28
    2f5c:	09 94       	ijmp

00002f5e <u8g2_send_buffer>:
    2f5e:	af 92       	push	r10
    2f60:	bf 92       	push	r11
    2f62:	cf 92       	push	r12
    2f64:	df 92       	push	r13
    2f66:	ef 92       	push	r14
    2f68:	ff 92       	push	r15
    2f6a:	0f 93       	push	r16
    2f6c:	1f 93       	push	r17
    2f6e:	cf 93       	push	r28
    2f70:	df 93       	push	r29
    2f72:	00 d0       	rcall	.+0      	; 0x2f74 <u8g2_send_buffer+0x16>
    2f74:	00 d0       	rcall	.+0      	; 0x2f76 <u8g2_send_buffer+0x18>
    2f76:	1f 92       	push	r1
    2f78:	cd b7       	in	r28, 0x3d	; 61
    2f7a:	de b7       	in	r29, 0x3e	; 62
    2f7c:	8c 01       	movw	r16, r24
    2f7e:	dc 01       	movw	r26, r24
    2f80:	da 96       	adiw	r26, 0x3a	; 58
    2f82:	ac 90       	ld	r10, X
    2f84:	da 97       	sbiw	r26, 0x3a	; 58
    2f86:	db 96       	adiw	r26, 0x3b	; 59
    2f88:	ec 90       	ld	r14, X
    2f8a:	db 97       	sbiw	r26, 0x3b	; 59
    2f8c:	ed 91       	ld	r30, X+
    2f8e:	fc 91       	ld	r31, X
    2f90:	b1 88       	ldd	r11, Z+17	; 0x11
    2f92:	fe 2c       	mov	r15, r14
    2f94:	d1 2c       	mov	r13, r1
    2f96:	c1 2c       	mov	r12, r1
    2f98:	d8 01       	movw	r26, r16
    2f9a:	ed 91       	ld	r30, X+
    2f9c:	fc 91       	ld	r31, X
    2f9e:	11 97       	sbiw	r26, 0x01	; 1
    2fa0:	80 89       	ldd	r24, Z+16	; 0x10
    2fa2:	d8 96       	adiw	r26, 0x38	; 56
    2fa4:	2d 91       	ld	r18, X+
    2fa6:	3c 91       	ld	r19, X
    2fa8:	1c 82       	std	Y+4, r1	; 0x04
    2faa:	fd 82       	std	Y+5, r15	; 0x05
    2fac:	8b 83       	std	Y+3, r24	; 0x03
    2fae:	b8 e0       	ldi	r27, 0x08	; 8
    2fb0:	8b 9f       	mul	r24, r27
    2fb2:	c0 01       	movw	r24, r0
    2fb4:	11 24       	eor	r1, r1
    2fb6:	8c 9d       	mul	r24, r12
    2fb8:	a0 01       	movw	r20, r0
    2fba:	8d 9d       	mul	r24, r13
    2fbc:	50 0d       	add	r21, r0
    2fbe:	9c 9d       	mul	r25, r12
    2fc0:	50 0d       	add	r21, r0
    2fc2:	11 24       	eor	r1, r1
    2fc4:	24 0f       	add	r18, r20
    2fc6:	35 1f       	adc	r19, r21
    2fc8:	3a 83       	std	Y+2, r19	; 0x02
    2fca:	29 83       	std	Y+1, r18	; 0x01
    2fcc:	d8 01       	movw	r26, r16
    2fce:	14 96       	adiw	r26, 0x04	; 4
    2fd0:	ed 91       	ld	r30, X+
    2fd2:	fc 91       	ld	r31, X
    2fd4:	9e 01       	movw	r18, r28
    2fd6:	2f 5f       	subi	r18, 0xFF	; 255
    2fd8:	3f 4f       	sbci	r19, 0xFF	; 255
    2fda:	41 e0       	ldi	r20, 0x01	; 1
    2fdc:	6f e0       	ldi	r22, 0x0F	; 15
    2fde:	c8 01       	movw	r24, r16
    2fe0:	09 95       	icall
    2fe2:	f3 94       	inc	r15
    2fe4:	8f 2d       	mov	r24, r15
    2fe6:	8e 19       	sub	r24, r14
    2fe8:	8a 15       	cp	r24, r10
    2fea:	28 f4       	brcc	.+10     	; 0x2ff6 <u8g2_send_buffer+0x98>
    2fec:	bf ef       	ldi	r27, 0xFF	; 255
    2fee:	cb 1a       	sub	r12, r27
    2ff0:	db 0a       	sbc	r13, r27
    2ff2:	fb 14       	cp	r15, r11
    2ff4:	88 f2       	brcs	.-94     	; 0x2f98 <u8g2_send_buffer+0x3a>
    2ff6:	0f 90       	pop	r0
    2ff8:	0f 90       	pop	r0
    2ffa:	0f 90       	pop	r0
    2ffc:	0f 90       	pop	r0
    2ffe:	0f 90       	pop	r0
    3000:	df 91       	pop	r29
    3002:	cf 91       	pop	r28
    3004:	1f 91       	pop	r17
    3006:	0f 91       	pop	r16
    3008:	ff 90       	pop	r15
    300a:	ef 90       	pop	r14
    300c:	df 90       	pop	r13
    300e:	cf 90       	pop	r12
    3010:	bf 90       	pop	r11
    3012:	af 90       	pop	r10
    3014:	08 95       	ret

00003016 <u8x8_byte_arduino_hw_i2c>:
    3016:	cf 93       	push	r28
    3018:	df 93       	push	r29
    301a:	ec 01       	movw	r28, r24
    301c:	96 2f       	mov	r25, r22
    301e:	68 31       	cpi	r22, 0x18	; 24
    3020:	89 f1       	breq	.+98     	; 0x3084 <u8x8_byte_arduino_hw_i2c+0x6e>
    3022:	b9 01       	movw	r22, r18
    3024:	99 31       	cpi	r25, 0x19	; 25
    3026:	30 f4       	brcc	.+12     	; 0x3034 <u8x8_byte_arduino_hw_i2c+0x1e>
    3028:	94 31       	cpi	r25, 0x14	; 20
    302a:	99 f0       	breq	.+38     	; 0x3052 <u8x8_byte_arduino_hw_i2c+0x3c>
    302c:	97 31       	cpi	r25, 0x17	; 23
    302e:	59 f0       	breq	.+22     	; 0x3046 <u8x8_byte_arduino_hw_i2c+0x30>
    3030:	80 e0       	ldi	r24, 0x00	; 0
    3032:	06 c0       	rjmp	.+12     	; 0x3040 <u8x8_byte_arduino_hw_i2c+0x2a>
    3034:	99 31       	cpi	r25, 0x19	; 25
    3036:	09 f4       	brne	.+2      	; 0x303a <u8x8_byte_arduino_hw_i2c+0x24>
    3038:	47 c0       	rjmp	.+142    	; 0x30c8 <u8x8_byte_arduino_hw_i2c+0xb2>
    303a:	90 32       	cpi	r25, 0x20	; 32
    303c:	c9 f7       	brne	.-14     	; 0x3030 <u8x8_byte_arduino_hw_i2c+0x1a>
    303e:	81 e0       	ldi	r24, 0x01	; 1
    3040:	df 91       	pop	r29
    3042:	cf 91       	pop	r28
    3044:	08 95       	ret
    3046:	50 e0       	ldi	r21, 0x00	; 0
    3048:	81 ef       	ldi	r24, 0xF1	; 241
    304a:	93 e0       	ldi	r25, 0x03	; 3
    304c:	0e 94 fd 07 	call	0xffa	; 0xffa <_ZN7TwoWire5writeEPKhj>
    3050:	f6 cf       	rjmp	.-20     	; 0x303e <u8x8_byte_arduino_hw_i2c+0x28>
    3052:	8c 85       	ldd	r24, Y+12	; 0x0c
    3054:	9d 85       	ldd	r25, Y+13	; 0x0d
    3056:	ae 85       	ldd	r26, Y+14	; 0x0e
    3058:	bf 85       	ldd	r27, Y+15	; 0x0f
    305a:	89 2b       	or	r24, r25
    305c:	8a 2b       	or	r24, r26
    305e:	8b 2b       	or	r24, r27
    3060:	71 f4       	brne	.+28     	; 0x307e <u8x8_byte_arduino_hw_i2c+0x68>
    3062:	e8 81       	ld	r30, Y
    3064:	f9 81       	ldd	r31, Y+1	; 0x01
    3066:	a5 85       	ldd	r26, Z+13	; 0x0d
    3068:	b0 e0       	ldi	r27, 0x00	; 0
    306a:	20 ea       	ldi	r18, 0xA0	; 160
    306c:	36 e8       	ldi	r19, 0x86	; 134
    306e:	41 e0       	ldi	r20, 0x01	; 1
    3070:	50 e0       	ldi	r21, 0x00	; 0
    3072:	0e 94 58 3b 	call	0x76b0	; 0x76b0 <__muluhisi3>
    3076:	6c 87       	std	Y+12, r22	; 0x0c
    3078:	7d 87       	std	Y+13, r23	; 0x0d
    307a:	8e 87       	std	Y+14, r24	; 0x0e
    307c:	9f 87       	std	Y+15, r25	; 0x0f
    307e:	0e 94 d8 09 	call	0x13b0	; 0x13b0 <_ZN7TwoWire5beginEv.constprop.41>
    3082:	dd cf       	rjmp	.-70     	; 0x303e <u8x8_byte_arduino_hw_i2c+0x28>
    3084:	2c 85       	ldd	r18, Y+12	; 0x0c
    3086:	3d 85       	ldd	r19, Y+13	; 0x0d
    3088:	4e 85       	ldd	r20, Y+14	; 0x0e
    308a:	5f 85       	ldd	r21, Y+15	; 0x0f
    308c:	60 e0       	ldi	r22, 0x00	; 0
    308e:	74 e2       	ldi	r23, 0x24	; 36
    3090:	84 ef       	ldi	r24, 0xF4	; 244
    3092:	90 e0       	ldi	r25, 0x00	; 0
    3094:	0e 94 a2 3b 	call	0x7744	; 0x7744 <__udivmodsi4>
    3098:	20 51       	subi	r18, 0x10	; 16
    309a:	31 09       	sbc	r19, r1
    309c:	41 09       	sbc	r20, r1
    309e:	51 09       	sbc	r21, r1
    30a0:	56 95       	lsr	r21
    30a2:	47 95       	ror	r20
    30a4:	37 95       	ror	r19
    30a6:	27 95       	ror	r18
    30a8:	20 93 b8 00 	sts	0x00B8, r18	; 0x8000b8 <__TEXT_REGION_LENGTH__+0x7e00b8>
    30ac:	8e 89       	ldd	r24, Y+22	; 0x16
    30ae:	90 e0       	ldi	r25, 0x00	; 0
    30b0:	95 95       	asr	r25
    30b2:	87 95       	ror	r24
    30b4:	91 e0       	ldi	r25, 0x01	; 1
    30b6:	90 93 45 03 	sts	0x0345, r25	; 0x800345 <_ZN7TwoWire12transmittingE>
    30ba:	80 93 67 03 	sts	0x0367, r24	; 0x800367 <_ZN7TwoWire9txAddressE>
    30be:	10 92 46 03 	sts	0x0346, r1	; 0x800346 <_ZN7TwoWire13txBufferIndexE>
    30c2:	10 92 68 03 	sts	0x0368, r1	; 0x800368 <_ZN7TwoWire14txBufferLengthE>
    30c6:	bb cf       	rjmp	.-138    	; 0x303e <u8x8_byte_arduino_hw_i2c+0x28>
    30c8:	0e 94 53 07 	call	0xea6	; 0xea6 <_ZN7TwoWire15endTransmissionEv.constprop.60>
    30cc:	b8 cf       	rjmp	.-144    	; 0x303e <u8x8_byte_arduino_hw_i2c+0x28>

000030ce <u8x8_gpio_and_delay_arduino>:
    30ce:	0f 93       	push	r16
    30d0:	1f 93       	push	r17
    30d2:	cf 93       	push	r28
    30d4:	df 93       	push	r29
    30d6:	8c 01       	movw	r16, r24
    30d8:	c6 2f       	mov	r28, r22
    30da:	64 2f       	mov	r22, r20
    30dc:	cc 32       	cpi	r28, 0x2C	; 44
    30de:	e8 f4       	brcc	.+58     	; 0x311a <u8x8_gpio_and_delay_arduino+0x4c>
    30e0:	ca 32       	cpi	r28, 0x2A	; 42
    30e2:	08 f0       	brcs	.+2      	; 0x30e6 <u8x8_gpio_and_delay_arduino+0x18>
    30e4:	41 c0       	rjmp	.+130    	; 0x3168 <u8x8_gpio_and_delay_arduino+0x9a>
    30e6:	c8 32       	cpi	r28, 0x28	; 40
    30e8:	71 f1       	breq	.+92     	; 0x3146 <u8x8_gpio_and_delay_arduino+0x78>
    30ea:	c9 32       	cpi	r28, 0x29	; 41
    30ec:	09 f4       	brne	.+2      	; 0x30f0 <u8x8_gpio_and_delay_arduino+0x22>
    30ee:	42 c0       	rjmp	.+132    	; 0x3174 <u8x8_gpio_and_delay_arduino+0xa6>
    30f0:	80 e0       	ldi	r24, 0x00	; 0
    30f2:	c0 34       	cpi	r28, 0x40	; 64
    30f4:	d0 f1       	brcs	.+116    	; 0x316a <u8x8_gpio_and_delay_arduino+0x9c>
    30f6:	cf 73       	andi	r28, 0x3F	; 63
    30f8:	f8 01       	movw	r30, r16
    30fa:	ec 0f       	add	r30, r28
    30fc:	f1 1d       	adc	r31, r1
    30fe:	86 8d       	ldd	r24, Z+30	; 0x1e
    3100:	8f 3f       	cpi	r24, 0xFF	; 255
    3102:	91 f1       	breq	.+100    	; 0x3168 <u8x8_gpio_and_delay_arduino+0x9a>
    3104:	c0 31       	cpi	r28, 0x10	; 16
    3106:	e0 f0       	brcs	.+56     	; 0x3140 <u8x8_gpio_and_delay_arduino+0x72>
    3108:	0e 94 81 09 	call	0x1302	; 0x1302 <digitalRead>
    310c:	21 e0       	ldi	r18, 0x01	; 1
    310e:	89 2b       	or	r24, r25
    3110:	09 f4       	brne	.+2      	; 0x3114 <u8x8_gpio_and_delay_arduino+0x46>
    3112:	20 e0       	ldi	r18, 0x00	; 0
    3114:	f8 01       	movw	r30, r16
    3116:	21 8f       	std	Z+25, r18	; 0x19
    3118:	27 c0       	rjmp	.+78     	; 0x3168 <u8x8_gpio_and_delay_arduino+0x9a>
    311a:	cd 32       	cpi	r28, 0x2D	; 45
    311c:	89 f1       	breq	.+98     	; 0x3180 <u8x8_gpio_and_delay_arduino+0xb2>
    311e:	40 f3       	brcs	.-48     	; 0x30f0 <u8x8_gpio_and_delay_arduino+0x22>
    3120:	84 eb       	ldi	r24, 0xB4	; 180
    3122:	8c 0f       	add	r24, r28
    3124:	82 30       	cpi	r24, 0x02	; 2
    3126:	20 f7       	brcc	.-56     	; 0x30f0 <u8x8_gpio_and_delay_arduino+0x22>
    3128:	cf 73       	andi	r28, 0x3F	; 63
    312a:	c0 0f       	add	r28, r16
    312c:	d1 2f       	mov	r29, r17
    312e:	d1 1d       	adc	r29, r1
    3130:	8e 8d       	ldd	r24, Y+30	; 0x1e
    3132:	41 11       	cpse	r20, r1
    3134:	2e c0       	rjmp	.+92     	; 0x3192 <u8x8_gpio_and_delay_arduino+0xc4>
    3136:	61 e0       	ldi	r22, 0x01	; 1
    3138:	0e 94 0a 0a 	call	0x1414	; 0x1414 <pinMode>
    313c:	60 e0       	ldi	r22, 0x00	; 0
    313e:	8e 8d       	ldd	r24, Y+30	; 0x1e
    3140:	0e 94 aa 09 	call	0x1354	; 0x1354 <digitalWrite>
    3144:	11 c0       	rjmp	.+34     	; 0x3168 <u8x8_gpio_and_delay_arduino+0x9a>
    3146:	02 5e       	subi	r16, 0xE2	; 226
    3148:	1f 4f       	sbci	r17, 0xFF	; 255
    314a:	d0 e0       	ldi	r29, 0x00	; 0
    314c:	f8 01       	movw	r30, r16
    314e:	81 91       	ld	r24, Z+
    3150:	8f 01       	movw	r16, r30
    3152:	8f 3f       	cpi	r24, 0xFF	; 255
    3154:	31 f0       	breq	.+12     	; 0x3162 <u8x8_gpio_and_delay_arduino+0x94>
    3156:	61 e0       	ldi	r22, 0x01	; 1
    3158:	d0 31       	cpi	r29, 0x10	; 16
    315a:	08 f0       	brcs	.+2      	; 0x315e <u8x8_gpio_and_delay_arduino+0x90>
    315c:	62 e0       	ldi	r22, 0x02	; 2
    315e:	0e 94 0a 0a 	call	0x1414	; 0x1414 <pinMode>
    3162:	df 5f       	subi	r29, 0xFF	; 255
    3164:	d6 31       	cpi	r29, 0x16	; 22
    3166:	91 f7       	brne	.-28     	; 0x314c <u8x8_gpio_and_delay_arduino+0x7e>
    3168:	81 e0       	ldi	r24, 0x01	; 1
    316a:	df 91       	pop	r29
    316c:	cf 91       	pop	r28
    316e:	1f 91       	pop	r17
    3170:	0f 91       	pop	r16
    3172:	08 95       	ret
    3174:	70 e0       	ldi	r23, 0x00	; 0
    3176:	90 e0       	ldi	r25, 0x00	; 0
    3178:	80 e0       	ldi	r24, 0x00	; 0
    317a:	0e 94 e3 0a 	call	0x15c6	; 0x15c6 <delay>
    317e:	f4 cf       	rjmp	.-24     	; 0x3168 <u8x8_gpio_and_delay_arduino+0x9a>
    3180:	85 e0       	ldi	r24, 0x05	; 5
    3182:	90 e0       	ldi	r25, 0x00	; 0
    3184:	43 30       	cpi	r20, 0x03	; 3
    3186:	10 f0       	brcs	.+4      	; 0x318c <u8x8_gpio_and_delay_arduino+0xbe>
    3188:	82 e0       	ldi	r24, 0x02	; 2
    318a:	90 e0       	ldi	r25, 0x00	; 0
    318c:	0e 94 b6 0a 	call	0x156c	; 0x156c <delayMicroseconds>
    3190:	eb cf       	rjmp	.-42     	; 0x3168 <u8x8_gpio_and_delay_arduino+0x9a>
    3192:	62 e0       	ldi	r22, 0x02	; 2
    3194:	0e 94 0a 0a 	call	0x1414	; 0x1414 <pinMode>
    3198:	e7 cf       	rjmp	.-50     	; 0x3168 <u8x8_gpio_and_delay_arduino+0x9a>

0000319a <_Z6EBreadh>:
    319a:	88 30       	cpi	r24, 0x08	; 8
    319c:	58 f4       	brcc	.+22     	; 0x31b4 <_Z6EBreadh+0x1a>
    319e:	29 b1       	in	r18, 0x09	; 9
    31a0:	30 e0       	ldi	r19, 0x00	; 0
    31a2:	a9 01       	movw	r20, r18
    31a4:	02 c0       	rjmp	.+4      	; 0x31aa <_Z6EBreadh+0x10>
    31a6:	55 95       	asr	r21
    31a8:	47 95       	ror	r20
    31aa:	8a 95       	dec	r24
    31ac:	e2 f7       	brpl	.-8      	; 0x31a6 <_Z6EBreadh+0xc>
    31ae:	ca 01       	movw	r24, r20
    31b0:	81 70       	andi	r24, 0x01	; 1
    31b2:	08 95       	ret
    31b4:	8e 30       	cpi	r24, 0x0E	; 14
    31b6:	28 f4       	brcc	.+10     	; 0x31c2 <_Z6EBreadh+0x28>
    31b8:	23 b1       	in	r18, 0x03	; 3
    31ba:	30 e0       	ldi	r19, 0x00	; 0
    31bc:	88 50       	subi	r24, 0x08	; 8
    31be:	99 0b       	sbc	r25, r25
    31c0:	f0 cf       	rjmp	.-32     	; 0x31a2 <_Z6EBreadh+0x8>
    31c2:	84 31       	cpi	r24, 0x14	; 20
    31c4:	28 f4       	brcc	.+10     	; 0x31d0 <_Z6EBreadh+0x36>
    31c6:	26 b1       	in	r18, 0x06	; 6
    31c8:	30 e0       	ldi	r19, 0x00	; 0
    31ca:	8e 50       	subi	r24, 0x0E	; 14
    31cc:	99 0b       	sbc	r25, r25
    31ce:	e9 cf       	rjmp	.-46     	; 0x31a2 <_Z6EBreadh+0x8>
    31d0:	80 e0       	ldi	r24, 0x00	; 0
    31d2:	08 95       	ret

000031d4 <_ZN9EncButton7readEncEv.constprop.118>:
    31d4:	1f 93       	push	r17
    31d6:	cf 93       	push	r28
    31d8:	df 93       	push	r29
    31da:	c1 ec       	ldi	r28, 0xC1	; 193
    31dc:	d5 e0       	ldi	r29, 0x05	; 5
    31de:	8e 89       	ldd	r24, Y+22	; 0x16
    31e0:	0e 94 cd 18 	call	0x319a	; 0x319a <_Z6EBreadh>
    31e4:	18 2f       	mov	r17, r24
    31e6:	8f 89       	ldd	r24, Y+23	; 0x17
    31e8:	0e 94 cd 18 	call	0x319a	; 0x319a <_Z6EBreadh>
    31ec:	88 0f       	add	r24, r24
    31ee:	81 2b       	or	r24, r17
    31f0:	df 91       	pop	r29
    31f2:	cf 91       	pop	r28
    31f4:	1f 91       	pop	r17
    31f6:	08 95       	ret

000031f8 <_ZN5HX711D1Ev>:
    31f8:	08 95       	ret

000031fa <_Z11WDT_DISABLEv>:
    31fa:	a8 95       	wdr
    31fc:	0f b6       	in	r0, 0x3f	; 63
    31fe:	f8 94       	cli
    3200:	a8 95       	wdr
    3202:	80 91 60 00 	lds	r24, 0x0060	; 0x800060 <__TEXT_REGION_LENGTH__+0x7e0060>
    3206:	88 61       	ori	r24, 0x18	; 24
    3208:	80 93 60 00 	sts	0x0060, r24	; 0x800060 <__TEXT_REGION_LENGTH__+0x7e0060>
    320c:	10 92 60 00 	sts	0x0060, r1	; 0x800060 <__TEXT_REGION_LENGTH__+0x7e0060>
    3210:	0f be       	out	0x3f, r0	; 63
    3212:	08 95       	ret

00003214 <_Z3WDTjh>:
    3214:	60 93 9f 02 	sts	0x029F, r22	; 0x80029f <globalErrorFuncUUID>
    3218:	a8 95       	wdr
    321a:	0f b6       	in	r0, 0x3f	; 63
    321c:	f8 94       	cli
    321e:	a8 95       	wdr
    3220:	20 91 60 00 	lds	r18, 0x0060	; 0x800060 <__TEXT_REGION_LENGTH__+0x7e0060>
    3224:	28 61       	ori	r18, 0x18	; 24
    3226:	20 93 60 00 	sts	0x0060, r18	; 0x800060 <__TEXT_REGION_LENGTH__+0x7e0060>
    322a:	10 92 60 00 	sts	0x0060, r1	; 0x800060 <__TEXT_REGION_LENGTH__+0x7e0060>
    322e:	0f be       	out	0x3f, r0	; 63
    3230:	28 2f       	mov	r18, r24
    3232:	27 70       	andi	r18, 0x07	; 7
    3234:	28 60       	ori	r18, 0x08	; 8
    3236:	88 0f       	add	r24, r24
    3238:	99 1f       	adc	r25, r25
    323a:	88 0f       	add	r24, r24
    323c:	99 1f       	adc	r25, r25
    323e:	80 72       	andi	r24, 0x20	; 32
    3240:	82 2b       	or	r24, r18
    3242:	98 e1       	ldi	r25, 0x18	; 24
    3244:	0f b6       	in	r0, 0x3f	; 63
    3246:	f8 94       	cli
    3248:	a8 95       	wdr
    324a:	90 93 60 00 	sts	0x0060, r25	; 0x800060 <__TEXT_REGION_LENGTH__+0x7e0060>
    324e:	0f be       	out	0x3f, r0	; 63
    3250:	80 93 60 00 	sts	0x0060, r24	; 0x800060 <__TEXT_REGION_LENGTH__+0x7e0060>
    3254:	e0 e6       	ldi	r30, 0x60	; 96
    3256:	f0 e0       	ldi	r31, 0x00	; 0
    3258:	80 81       	ld	r24, Z
    325a:	80 64       	ori	r24, 0x40	; 64
    325c:	80 83       	st	Z, r24
    325e:	08 95       	ret

00003260 <_ZN5servo10servoPulseEii.constprop.110>:
    3260:	4f 92       	push	r4
    3262:	5f 92       	push	r5
    3264:	6f 92       	push	r6
    3266:	7f 92       	push	r7
    3268:	8f 92       	push	r8
    326a:	9f 92       	push	r9
    326c:	af 92       	push	r10
    326e:	bf 92       	push	r11
    3270:	cf 92       	push	r12
    3272:	df 92       	push	r13
    3274:	ef 92       	push	r14
    3276:	ff 92       	push	r15
    3278:	1f 93       	push	r17
    327a:	cf 93       	push	r28
    327c:	df 93       	push	r29
    327e:	18 2f       	mov	r17, r24
    3280:	eb 01       	movw	r28, r22
    3282:	63 e0       	ldi	r22, 0x03	; 3
    3284:	88 e0       	ldi	r24, 0x08	; 8
    3286:	90 e0       	ldi	r25, 0x00	; 0
    3288:	0e 94 0a 19 	call	0x3214	; 0x3214 <_Z3WDTjh>
    328c:	2c ed       	ldi	r18, 0xDC	; 220
    328e:	35 e0       	ldi	r19, 0x05	; 5
    3290:	de 01       	movw	r26, r28
    3292:	0e 94 ef 3b 	call	0x77de	; 0x77de <__usmulhisi3>
    3296:	24 eb       	ldi	r18, 0xB4	; 180
    3298:	30 e0       	ldi	r19, 0x00	; 0
    329a:	40 e0       	ldi	r20, 0x00	; 0
    329c:	50 e0       	ldi	r21, 0x00	; 0
    329e:	0e 94 39 3b 	call	0x7672	; 0x7672 <__divmodsi4>
    32a2:	49 01       	movw	r8, r18
    32a4:	5a 01       	movw	r10, r20
    32a6:	84 ef       	ldi	r24, 0xF4	; 244
    32a8:	88 0e       	add	r8, r24
    32aa:	81 e0       	ldi	r24, 0x01	; 1
    32ac:	98 1e       	adc	r9, r24
    32ae:	a1 1c       	adc	r10, r1
    32b0:	b1 1c       	adc	r11, r1
    32b2:	c5 e1       	ldi	r28, 0x15	; 21
    32b4:	d0 e0       	ldi	r29, 0x00	; 0
    32b6:	80 e2       	ldi	r24, 0x20	; 32
    32b8:	c8 2e       	mov	r12, r24
    32ba:	8e e4       	ldi	r24, 0x4E	; 78
    32bc:	d8 2e       	mov	r13, r24
    32be:	c8 18       	sub	r12, r8
    32c0:	d9 08       	sbc	r13, r9
    32c2:	0d 2c       	mov	r0, r13
    32c4:	00 0c       	add	r0, r0
    32c6:	ee 08       	sbc	r14, r14
    32c8:	ff 08       	sbc	r15, r15
    32ca:	0e 94 be 0a 	call	0x157c	; 0x157c <micros>
    32ce:	2b 01       	movw	r4, r22
    32d0:	3c 01       	movw	r6, r24
    32d2:	61 e0       	ldi	r22, 0x01	; 1
    32d4:	81 2f       	mov	r24, r17
    32d6:	0e 94 aa 09 	call	0x1354	; 0x1354 <digitalWrite>
    32da:	0e 94 be 0a 	call	0x157c	; 0x157c <micros>
    32de:	64 19       	sub	r22, r4
    32e0:	75 09       	sbc	r23, r5
    32e2:	86 09       	sbc	r24, r6
    32e4:	97 09       	sbc	r25, r7
    32e6:	68 15       	cp	r22, r8
    32e8:	79 05       	cpc	r23, r9
    32ea:	8a 05       	cpc	r24, r10
    32ec:	9b 05       	cpc	r25, r11
    32ee:	a8 f3       	brcs	.-22     	; 0x32da <_ZN5servo10servoPulseEii.constprop.110+0x7a>
    32f0:	60 e0       	ldi	r22, 0x00	; 0
    32f2:	81 2f       	mov	r24, r17
    32f4:	0e 94 aa 09 	call	0x1354	; 0x1354 <digitalWrite>
    32f8:	0e 94 be 0a 	call	0x157c	; 0x157c <micros>
    32fc:	64 19       	sub	r22, r4
    32fe:	75 09       	sbc	r23, r5
    3300:	86 09       	sbc	r24, r6
    3302:	97 09       	sbc	r25, r7
    3304:	6c 15       	cp	r22, r12
    3306:	7d 05       	cpc	r23, r13
    3308:	8e 05       	cpc	r24, r14
    330a:	9f 05       	cpc	r25, r15
    330c:	a8 f3       	brcs	.-22     	; 0x32f8 <_ZN5servo10servoPulseEii.constprop.110+0x98>
    330e:	21 97       	sbiw	r28, 0x01	; 1
    3310:	e1 f6       	brne	.-72     	; 0x32ca <_ZN5servo10servoPulseEii.constprop.110+0x6a>
    3312:	df 91       	pop	r29
    3314:	cf 91       	pop	r28
    3316:	1f 91       	pop	r17
    3318:	ff 90       	pop	r15
    331a:	ef 90       	pop	r14
    331c:	df 90       	pop	r13
    331e:	cf 90       	pop	r12
    3320:	bf 90       	pop	r11
    3322:	af 90       	pop	r10
    3324:	9f 90       	pop	r9
    3326:	8f 90       	pop	r8
    3328:	7f 90       	pop	r7
    332a:	6f 90       	pop	r6
    332c:	5f 90       	pop	r5
    332e:	4f 90       	pop	r4
    3330:	0c 94 fd 18 	jmp	0x31fa	; 0x31fa <_Z11WDT_DISABLEv>

00003334 <_ZN5servo4testEv.constprop.109>:
    3334:	cf 93       	push	r28
    3336:	df 93       	push	r29
    3338:	ca e1       	ldi	r28, 0x1A	; 26
    333a:	d5 e0       	ldi	r29, 0x05	; 5
    333c:	88 81       	ld	r24, Y
    333e:	6a e5       	ldi	r22, 0x5A	; 90
    3340:	70 e0       	ldi	r23, 0x00	; 0
    3342:	90 e0       	ldi	r25, 0x00	; 0
    3344:	0e 94 30 19 	call	0x3260	; 0x3260 <_ZN5servo10servoPulseEii.constprop.110>
    3348:	1a 86       	std	Y+10, r1	; 0x0a
    334a:	69 85       	ldd	r22, Y+9	; 0x09
    334c:	70 e0       	ldi	r23, 0x00	; 0
    334e:	66 5a       	subi	r22, 0xA6	; 166
    3350:	7f 4f       	sbci	r23, 0xFF	; 255
    3352:	88 81       	ld	r24, Y
    3354:	90 e0       	ldi	r25, 0x00	; 0
    3356:	0e 94 30 19 	call	0x3260	; 0x3260 <_ZN5servo10servoPulseEii.constprop.110>
    335a:	81 e0       	ldi	r24, 0x01	; 1
    335c:	8a 87       	std	Y+10, r24	; 0x0a
    335e:	88 81       	ld	r24, Y
    3360:	6a e5       	ldi	r22, 0x5A	; 90
    3362:	70 e0       	ldi	r23, 0x00	; 0
    3364:	90 e0       	ldi	r25, 0x00	; 0
    3366:	0e 94 30 19 	call	0x3260	; 0x3260 <_ZN5servo10servoPulseEii.constprop.110>
    336a:	1a 86       	std	Y+10, r1	; 0x0a
    336c:	0e 94 16 0b 	call	0x162c	; 0x162c <millis>
    3370:	69 83       	std	Y+1, r22	; 0x01
    3372:	7a 83       	std	Y+2, r23	; 0x02
    3374:	8b 83       	std	Y+3, r24	; 0x03
    3376:	9c 83       	std	Y+4, r25	; 0x04
    3378:	df 91       	pop	r29
    337a:	cf 91       	pop	r28
    337c:	08 95       	ret

0000337e <_ZN5servo5checkEv.part.13.constprop.108>:
    337e:	cf 92       	push	r12
    3380:	df 92       	push	r13
    3382:	ef 92       	push	r14
    3384:	ff 92       	push	r15
    3386:	cf 93       	push	r28
    3388:	df 93       	push	r29
    338a:	ca e1       	ldi	r28, 0x1A	; 26
    338c:	d5 e0       	ldi	r29, 0x05	; 5
    338e:	88 81       	ld	r24, Y
    3390:	6a e5       	ldi	r22, 0x5A	; 90
    3392:	70 e0       	ldi	r23, 0x00	; 0
    3394:	90 e0       	ldi	r25, 0x00	; 0
    3396:	0e 94 30 19 	call	0x3260	; 0x3260 <_ZN5servo10servoPulseEii.constprop.110>
    339a:	1a 86       	std	Y+10, r1	; 0x0a
    339c:	0e 94 16 0b 	call	0x162c	; 0x162c <millis>
    33a0:	6b 01       	movw	r12, r22
    33a2:	7c 01       	movw	r14, r24
    33a4:	2f 81       	ldd	r18, Y+7	; 0x07
    33a6:	38 85       	ldd	r19, Y+8	; 0x08
    33a8:	a0 e6       	ldi	r26, 0x60	; 96
    33aa:	ba ee       	ldi	r27, 0xEA	; 234
    33ac:	0e 94 c4 3b 	call	0x7788	; 0x7788 <__umulhisi3>
    33b0:	c6 0e       	add	r12, r22
    33b2:	d7 1e       	adc	r13, r23
    33b4:	e8 1e       	adc	r14, r24
    33b6:	f9 1e       	adc	r15, r25
    33b8:	c9 82       	std	Y+1, r12	; 0x01
    33ba:	da 82       	std	Y+2, r13	; 0x02
    33bc:	eb 82       	std	Y+3, r14	; 0x03
    33be:	fc 82       	std	Y+4, r15	; 0x04
    33c0:	df 91       	pop	r29
    33c2:	cf 91       	pop	r28
    33c4:	ff 90       	pop	r15
    33c6:	ef 90       	pop	r14
    33c8:	df 90       	pop	r13
    33ca:	cf 90       	pop	r12
    33cc:	08 95       	ret

000033ce <_ZN5servo5checkEv.constprop.107>:
    33ce:	cf 92       	push	r12
    33d0:	df 92       	push	r13
    33d2:	ef 92       	push	r14
    33d4:	ff 92       	push	r15
    33d6:	80 91 24 05 	lds	r24, 0x0524	; 0x800524 <Servo1+0xa>
    33da:	81 11       	cpse	r24, r1
    33dc:	34 c0       	rjmp	.+104    	; 0x3446 <_ZN5servo5checkEv.constprop.107+0x78>
    33de:	c0 90 1b 05 	lds	r12, 0x051B	; 0x80051b <Servo1+0x1>
    33e2:	d0 90 1c 05 	lds	r13, 0x051C	; 0x80051c <Servo1+0x2>
    33e6:	e0 90 1d 05 	lds	r14, 0x051D	; 0x80051d <Servo1+0x3>
    33ea:	f0 90 1e 05 	lds	r15, 0x051E	; 0x80051e <Servo1+0x4>
    33ee:	0e 94 16 0b 	call	0x162c	; 0x162c <millis>
    33f2:	c6 16       	cp	r12, r22
    33f4:	d7 06       	cpc	r13, r23
    33f6:	e8 06       	cpc	r14, r24
    33f8:	f9 06       	cpc	r15, r25
    33fa:	28 f5       	brcc	.+74     	; 0x3446 <_ZN5servo5checkEv.constprop.107+0x78>
    33fc:	60 91 23 05 	lds	r22, 0x0523	; 0x800523 <Servo1+0x9>
    3400:	70 e0       	ldi	r23, 0x00	; 0
    3402:	66 5a       	subi	r22, 0xA6	; 166
    3404:	7f 4f       	sbci	r23, 0xFF	; 255
    3406:	80 91 1a 05 	lds	r24, 0x051A	; 0x80051a <Servo1>
    340a:	90 e0       	ldi	r25, 0x00	; 0
    340c:	0e 94 30 19 	call	0x3260	; 0x3260 <_ZN5servo10servoPulseEii.constprop.110>
    3410:	81 e0       	ldi	r24, 0x01	; 1
    3412:	80 93 24 05 	sts	0x0524, r24	; 0x800524 <Servo1+0xa>
    3416:	0e 94 16 0b 	call	0x162c	; 0x162c <millis>
    341a:	6b 01       	movw	r12, r22
    341c:	7c 01       	movw	r14, r24
    341e:	20 91 1f 05 	lds	r18, 0x051F	; 0x80051f <Servo1+0x5>
    3422:	30 91 20 05 	lds	r19, 0x0520	; 0x800520 <Servo1+0x6>
    3426:	a0 e6       	ldi	r26, 0x60	; 96
    3428:	ba ee       	ldi	r27, 0xEA	; 234
    342a:	0e 94 c4 3b 	call	0x7788	; 0x7788 <__umulhisi3>
    342e:	c6 0e       	add	r12, r22
    3430:	d7 1e       	adc	r13, r23
    3432:	e8 1e       	adc	r14, r24
    3434:	f9 1e       	adc	r15, r25
    3436:	c0 92 1b 05 	sts	0x051B, r12	; 0x80051b <Servo1+0x1>
    343a:	d0 92 1c 05 	sts	0x051C, r13	; 0x80051c <Servo1+0x2>
    343e:	e0 92 1d 05 	sts	0x051D, r14	; 0x80051d <Servo1+0x3>
    3442:	f0 92 1e 05 	sts	0x051E, r15	; 0x80051e <Servo1+0x4>
    3446:	80 91 24 05 	lds	r24, 0x0524	; 0x800524 <Servo1+0xa>
    344a:	81 30       	cpi	r24, 0x01	; 1
    344c:	a9 f4       	brne	.+42     	; 0x3478 <_ZN5servo5checkEv.constprop.107+0xaa>
    344e:	c0 90 1b 05 	lds	r12, 0x051B	; 0x80051b <Servo1+0x1>
    3452:	d0 90 1c 05 	lds	r13, 0x051C	; 0x80051c <Servo1+0x2>
    3456:	e0 90 1d 05 	lds	r14, 0x051D	; 0x80051d <Servo1+0x3>
    345a:	f0 90 1e 05 	lds	r15, 0x051E	; 0x80051e <Servo1+0x4>
    345e:	0e 94 16 0b 	call	0x162c	; 0x162c <millis>
    3462:	c6 16       	cp	r12, r22
    3464:	d7 06       	cpc	r13, r23
    3466:	e8 06       	cpc	r14, r24
    3468:	f9 06       	cpc	r15, r25
    346a:	30 f4       	brcc	.+12     	; 0x3478 <_ZN5servo5checkEv.constprop.107+0xaa>
    346c:	ff 90       	pop	r15
    346e:	ef 90       	pop	r14
    3470:	df 90       	pop	r13
    3472:	cf 90       	pop	r12
    3474:	0c 94 bf 19 	jmp	0x337e	; 0x337e <_ZN5servo5checkEv.part.13.constprop.108>
    3478:	ff 90       	pop	r15
    347a:	ef 90       	pop	r14
    347c:	df 90       	pop	r13
    347e:	cf 90       	pop	r12
    3480:	08 95       	ret

00003482 <_Z9heaterOFFv>:
    3482:	61 e0       	ldi	r22, 0x01	; 1
    3484:	85 e0       	ldi	r24, 0x05	; 5
    3486:	90 e0       	ldi	r25, 0x00	; 0
    3488:	0e 94 0a 19 	call	0x3214	; 0x3214 <_Z3WDTjh>
    348c:	e8 98       	cbi	0x1d, 0	; 29
    348e:	83 e8       	ldi	r24, 0x83	; 131
    3490:	9e e0       	ldi	r25, 0x0E	; 14
    3492:	90 93 04 01 	sts	0x0104, r25	; 0x800104 <intFunc+0x1>
    3496:	80 93 03 01 	sts	0x0103, r24	; 0x800103 <intFunc>
    349a:	10 92 e9 02 	sts	0x02E9, r1	; 0x8002e9 <dimmer+0x1>
    349e:	10 92 e8 02 	sts	0x02E8, r1	; 0x8002e8 <dimmer>
    34a2:	e1 e8       	ldi	r30, 0x81	; 129
    34a4:	f0 e0       	ldi	r31, 0x00	; 0
    34a6:	80 81       	ld	r24, Z
    34a8:	88 7f       	andi	r24, 0xF8	; 248
    34aa:	80 83       	st	Z, r24
    34ac:	10 92 85 00 	sts	0x0085, r1	; 0x800085 <__TEXT_REGION_LENGTH__+0x7e0085>
    34b0:	10 92 84 00 	sts	0x0084, r1	; 0x800084 <__TEXT_REGION_LENGTH__+0x7e0084>
    34b4:	8c e1       	ldi	r24, 0x1C	; 28
    34b6:	95 e2       	ldi	r25, 0x25	; 37
    34b8:	90 93 e9 02 	sts	0x02E9, r25	; 0x8002e9 <dimmer+0x1>
    34bc:	80 93 e8 02 	sts	0x02E8, r24	; 0x8002e8 <dimmer>
    34c0:	60 e0       	ldi	r22, 0x00	; 0
    34c2:	85 e0       	ldi	r24, 0x05	; 5
    34c4:	0e 94 aa 09 	call	0x1354	; 0x1354 <digitalWrite>
    34c8:	0c 94 fd 18 	jmp	0x31fa	; 0x31fa <_Z11WDT_DISABLEv>

000034cc <_Z4piiij>:
    34cc:	cf 93       	push	r28
    34ce:	df 93       	push	r29
    34d0:	ec 01       	movw	r28, r24
    34d2:	6b e0       	ldi	r22, 0x0B	; 11
    34d4:	89 e0       	ldi	r24, 0x09	; 9
    34d6:	90 e0       	ldi	r25, 0x00	; 0
    34d8:	0e 94 0a 19 	call	0x3214	; 0x3214 <_Z3WDTjh>
    34dc:	61 e0       	ldi	r22, 0x01	; 1
    34de:	83 e0       	ldi	r24, 0x03	; 3
    34e0:	0e 94 aa 09 	call	0x1354	; 0x1354 <digitalWrite>
    34e4:	be 01       	movw	r22, r28
    34e6:	90 e0       	ldi	r25, 0x00	; 0
    34e8:	80 e0       	ldi	r24, 0x00	; 0
    34ea:	0e 94 e3 0a 	call	0x15c6	; 0x15c6 <delay>
    34ee:	60 e0       	ldi	r22, 0x00	; 0
    34f0:	83 e0       	ldi	r24, 0x03	; 3
    34f2:	0e 94 aa 09 	call	0x1354	; 0x1354 <digitalWrite>
    34f6:	df 91       	pop	r29
    34f8:	cf 91       	pop	r28
    34fa:	0c 94 fd 18 	jmp	0x31fa	; 0x31fa <_Z11WDT_DISABLEv>

000034fe <_Z8autoPidMv>:
    34fe:	82 e0       	ldi	r24, 0x02	; 2
    3500:	90 e0       	ldi	r25, 0x00	; 0
    3502:	90 93 02 01 	sts	0x0102, r25	; 0x800102 <state+0x1>
    3506:	80 93 01 01 	sts	0x0101, r24	; 0x800101 <state>
    350a:	08 95       	ret

0000350c <_Z13printMenuItemPKPKc>:
    350c:	fc 01       	movw	r30, r24
    350e:	25 91       	lpm	r18, Z+
    3510:	34 91       	lpm	r19, Z
    3512:	a9 e8       	ldi	r26, 0x89	; 137
    3514:	b2 e0       	ldi	r27, 0x02	; 2
    3516:	29 58       	subi	r18, 0x89	; 137
    3518:	32 40       	sbci	r19, 0x02	; 2
    351a:	f9 01       	movw	r30, r18
    351c:	ea 0f       	add	r30, r26
    351e:	fb 1f       	adc	r31, r27
    3520:	e4 91       	lpm	r30, Z
    3522:	ed 93       	st	X+, r30
    3524:	f2 e0       	ldi	r31, 0x02	; 2
    3526:	a0 3a       	cpi	r26, 0xA0	; 160
    3528:	bf 07       	cpc	r27, r31
    352a:	b9 f7       	brne	.-18     	; 0x351a <_Z13printMenuItemPKPKc+0xe>
    352c:	89 e8       	ldi	r24, 0x89	; 137
    352e:	92 e0       	ldi	r25, 0x02	; 2
    3530:	08 95       	ret

00003532 <_Z3isrv>:
    3532:	80 91 01 01 	lds	r24, 0x0101	; 0x800101 <state>
    3536:	90 91 02 01 	lds	r25, 0x0102	; 0x800102 <state+0x1>
    353a:	03 97       	sbiw	r24, 0x03	; 3
    353c:	03 97       	sbiw	r24, 0x03	; 3
    353e:	40 f5       	brcc	.+80     	; 0x3590 <_Z3isrv+0x5e>
    3540:	60 91 e8 02 	lds	r22, 0x02E8	; 0x8002e8 <dimmer>
    3544:	70 91 e9 02 	lds	r23, 0x02E9	; 0x8002e9 <dimmer+0x1>
    3548:	80 91 86 02 	lds	r24, 0x0286	; 0x800286 <lastDim>
    354c:	90 91 87 02 	lds	r25, 0x0287	; 0x800287 <lastDim+0x1>
    3550:	86 17       	cp	r24, r22
    3552:	97 07       	cpc	r25, r23
    3554:	81 f0       	breq	.+32     	; 0x3576 <_Z3isrv+0x44>
    3556:	70 93 87 02 	sts	0x0287, r23	; 0x800287 <lastDim+0x1>
    355a:	60 93 86 02 	sts	0x0286, r22	; 0x800286 <lastDim>
